ARM GAS  /tmp/ccJSKCFq.s 			page 1


   1              		.syntax unified
   2              		.cpu cortex-m3
   3              		.fpu softvfp
   4              		.eabi_attribute 20, 1	@ Tag_ABI_FP_denormal
   5              		.eabi_attribute 21, 1	@ Tag_ABI_FP_exceptions
   6              		.eabi_attribute 23, 3	@ Tag_ABI_FP_number_model
   7              		.eabi_attribute 24, 1	@ Tag_ABI_align8_needed
   8              		.eabi_attribute 25, 1	@ Tag_ABI_align8_preserved
   9              		.eabi_attribute 26, 1	@ Tag_ABI_enum_size
  10              		.eabi_attribute 30, 6	@ Tag_ABI_optimization_goals
  11              		.eabi_attribute 34, 1	@ Tag_CPU_unaligned_access
  12              		.eabi_attribute 18, 4	@ Tag_ABI_PCS_wchar_t
  13              		.file	"appConfig.c"
  14              	@ GNU C (15:4.9.3+svn231177-1) version 4.9.3 20150529 (prerelease) (arm-none-eabi)
  15              	@	compiled by GNU C version 5.2.1 20151129, GMP version 6.1.0, MPFR version 3.1.3, MPC version 1.0.
  16              	@ warning: MPFR header version 3.1.3 differs from library version 3.1.4.
  17              	@ GGC heuristics: --param ggc-min-expand=100 --param ggc-min-heapsize=131072
  18              	@ options passed:  -I . -I ./include -I ../pcf/include -imultilib armv7-m
  19              	@ -MD Build/Obj/Debug/appConfig.d -MF Build/.dep/appConfig.o.d -MP
  20              	@ -MQ Build/Obj/Debug/appConfig.o -D__USES_INITFINI__ ./source/appConfig.c
  21              	@ -mcpu=cortex-m3 -mthumb -auxbase-strip Build/Obj/Debug/appConfig.o
  22              	@ -gdwarf-2 -O0 -Wall -Wno-cpp -std=gnu99 -fomit-frame-pointer
  23              	@ -fverbose-asm
  24              	@ options enabled:  -faggressive-loop-optimizations -fauto-inc-dec -fcommon
  25              	@ -fdelete-null-pointer-checks -fdwarf2-cfi-asm -fearly-inlining
  26              	@ -feliminate-unused-debug-types -ffunction-cse -fgcse-lm -fgnu-runtime
  27              	@ -fgnu-unique -fident -finline-atomics -fira-hoist-pressure
  28              	@ -fira-share-save-slots -fira-share-spill-slots -fivopts
  29              	@ -fkeep-static-consts -fleading-underscore -flifetime-dse -fmath-errno
  30              	@ -fmerge-debug-strings -fomit-frame-pointer -fpeephole
  31              	@ -fprefetch-loop-arrays -freg-struct-return
  32              	@ -fsched-critical-path-heuristic -fsched-dep-count-heuristic
  33              	@ -fsched-group-heuristic -fsched-interblock -fsched-last-insn-heuristic
  34              	@ -fsched-rank-heuristic -fsched-spec -fsched-spec-insn-heuristic
  35              	@ -fsched-stalled-insns-dep -fshow-column -fsigned-zeros
  36              	@ -fsplit-ivs-in-unroller -fstrict-volatile-bitfields -fsync-libcalls
  37              	@ -ftrapping-math -ftree-coalesce-vars -ftree-cselim -ftree-forwprop
  38              	@ -ftree-loop-if-convert -ftree-loop-im -ftree-loop-ivcanon
  39              	@ -ftree-loop-optimize -ftree-parallelize-loops= -ftree-phiprop
  40              	@ -ftree-reassoc -ftree-scev-cprop -funit-at-a-time -fverbose-asm
  41              	@ -fzero-initialized-in-bss -mfix-cortex-m3-ldrd -mlittle-endian -mlra
  42              	@ -mpic-data-is-text-relative -msched-prolog -mthumb -munaligned-access
  43              	@ -mvectorize-with-neon-quad
  44              	
  45              		.text
  46              	.Ltext0:
  47              		.cfi_sections	.debug_frame
  48              		.comm	myClock,4,4
  49              		.comm	myGpio,4,4
  50              		.comm	LED,4,4
  51              		.comm	myLED,4,4
  52              		.comm	Switch,4,4
  53              		.comm	myUART,4,4
  54              		.comm	i2cDevice,4,4
  55              		.global	myClockCfg
  56              		.data
  57              		.align	2
ARM GAS  /tmp/ccJSKCFq.s 			page 2


  58              		.type	myClockCfg, %object
  59              		.size	myClockCfg, 12
  60              	myClockCfg:
  61              	@ cpuFreqHz:
  62 0000 00E1F505 		.word	100000000
  63              	@ oscFreq:
  64 0004 001BB700 		.word	12000000
  65              	@ pllClkSrc:
  66 0008 01       		.byte	1
  67 0009 000000   		.space	3
  68              		.global	myGpioCfg
  69              		.align	2
  70              		.type	myGpioCfg, %object
  71              		.size	myGpioCfg, 12
  72              	myGpioCfg:
  73              	@ portPin:
  74              	@ port:
  75 000c 00       		.byte	0
  76              	@ pin:
  77 000d 1A       		.byte	26
  78              	@ direction:
  79 000e 01       		.byte	1
  80              	@ mode:
  81 000f 00       		.byte	0
  82              	@ openDrain:
  83 0010 00       		.byte	0
  84 0011 00000000 		.space	7
  84      000000
  85              		.global	LED_Config
  86              		.align	2
  87              		.type	LED_Config, %object
  88              		.size	LED_Config, 12
  89              	LED_Config:
  90              	@ portPin:
  91              	@ port:
  92 0018 00       		.byte	0
  93              	@ pin:
  94 0019 19       		.byte	25
  95              	@ direction:
  96 001a 01       		.byte	1
  97              	@ mode:
  98 001b 00       		.byte	0
  99              	@ openDrain:
 100 001c 00       		.byte	0
 101 001d 00000000 		.space	7
 101      000000
 102              		.global	myLED_Config
 103              		.align	2
 104              		.type	myLED_Config, %object
 105              		.size	myLED_Config, 12
 106              	myLED_Config:
 107              	@ portPin:
 108              	@ port:
 109 0024 04       		.byte	4
 110              	@ pin:
 111 0025 1D       		.byte	29
 112              	@ direction:
ARM GAS  /tmp/ccJSKCFq.s 			page 3


 113 0026 01       		.byte	1
 114              	@ mode:
 115 0027 00       		.byte	0
 116              	@ openDrain:
 117 0028 00       		.byte	0
 118 0029 00000000 		.space	7
 118      000000
 119              		.global	Switch_Config
 120              		.align	2
 121              		.type	Switch_Config, %object
 122              		.size	Switch_Config, 12
 123              	Switch_Config:
 124              	@ portPin:
 125              	@ port:
 126 0030 00       		.byte	0
 127              	@ pin:
 128 0031 18       		.byte	24
 129              	@ direction:
 130 0032 00       		.byte	0
 131              	@ mode:
 132 0033 00       		.byte	0
 133              	@ openDrain:
 134 0034 00       		.byte	0
 135 0035 00000000 		.space	7
 135      000000
 136              		.global	uartHWCfg
 137              		.align	2
 138              		.type	uartHWCfg, %object
 139              		.size	uartHWCfg, 4
 140              	uartHWCfg:
 141              	@ uartTxPin:
 142              	@ port:
 143 003c 00       		.byte	0
 144              	@ pin:
 145 003d 02       		.byte	2
 146              	@ uartRxPin:
 147              	@ port:
 148 003e 00       		.byte	0
 149              	@ pin:
 150 003f 03       		.byte	3
 151              		.global	uart_Config
 152              		.align	2
 153              		.type	uart_Config, %object
 154              		.size	uart_Config, 20
 155              	uart_Config:
 156              	@ uartId:
 157 0040 00       		.byte	0
 158              	@ baudrate:
 159 0041 06       		.byte	6
 160              	@ dataBits:
 161 0042 08       		.byte	8
 162              	@ parity:
 163 0043 00       		.byte	0
 164              	@ stopBits:
 165 0044 01       		.byte	1
 166              	@ interruptEnable:
 167 0045 00       		.byte	0
ARM GAS  /tmp/ccJSKCFq.s 			page 4


 168              	@ txBufferSize:
 169 0046 0000     		.space	2
 170 0048 00000000 		.word	0
 171              	@ rxBufferSize:
 172 004c 00000000 		.word	0
 173              	@ hardwareCfg:
 174 0050 00000000 		.word	uartHWCfg
 175              		.global	i2cConfig
 176              		.align	2
 177              		.type	i2cConfig, %object
 178              		.size	i2cConfig, 40
 179              	i2cConfig:
 180              	@ i2cId:
 181 0054 00       		.byte	0
 182              	@ baudrate:
 183 0055 000000   		.space	3
 184 0058 A0860100 		.word	100000
 185              	@ addressType:
 186 005c 00       		.byte	0
 187              	@ ownAddress:
 188 005d 00       		.space	1
 189 005e 0000     		.short	0
 190 0060 0000     		.short	0
 191 0062 0000     		.short	0
 192 0064 0000     		.short	0
 193              	@ ownAddressMask:
 194 0066 0000     		.short	0
 195 0068 0000     		.short	0
 196 006a 0000     		.short	0
 197 006c 0000     		.short	0
 198              	@ generalCallEnable:
 199 006e 00       		.byte	0
 200              	@ interruptEnable:
 201 006f 01       		.byte	1
 202              	@ txBufferSize:
 203 0070 00010000 		.word	256
 204              	@ rxBufferSize:
 205 0074 00010000 		.word	256
 206              	@ hardwareCfg:
 207 0078 00000000 		.word	0
 208              		.global	communicationTimeOuts
 209              		.align	2
 210              		.type	communicationTimeOuts, %object
 211              		.size	communicationTimeOuts, 8
 212              	communicationTimeOuts:
 213              	@ count:
 214 007c 05000000 		.word	5
 215              	@ unit:
 216 0080 03       		.byte	3
 217 0081 000000   		.space	3
 218              		.text
 219              		.align	2
 220              		.global	delay
 221              		.thumb
 222              		.thumb_func
 223              		.type	delay, %function
 224              	delay:
ARM GAS  /tmp/ccJSKCFq.s 			page 5


 225              	.LFB40:
 226              		.file 1 "./source/appConfig.c"
   1:./source/appConfig.c **** /**
   2:./source/appConfig.c ****  *  \file       app_config.c
   3:./source/appConfig.c ****  *  \brief      Configuration settings to use GPIO device in extended mode from EduARM side
   4:./source/appConfig.c ****  *
   5:./source/appConfig.c ****  */
   6:./source/appConfig.c **** 
   7:./source/appConfig.c **** #include "pcf.h"
   8:./source/appConfig.c **** #include "appConfig.h"
   9:./source/appConfig.c **** 
  10:./source/appConfig.c **** EPCFSysClkDevice_t *myClock;
  11:./source/appConfig.c **** EPCFGpioDevice_t   *myGpio;
  12:./source/appConfig.c **** EPCFGpioDevice_t   *LED;
  13:./source/appConfig.c **** EPCFGpioDevice_t   *myLED;
  14:./source/appConfig.c **** EPCFGpioDevice_t   *Switch;
  15:./source/appConfig.c **** EPCFUartDevice_t   *myUART;
  16:./source/appConfig.c **** EPCFI2cDevice_t    *i2cDevice; 
  17:./source/appConfig.c **** 
  18:./source/appConfig.c **** 
  19:./source/appConfig.c **** EPCFSysClkCfg_t myClockCfg =
  20:./source/appConfig.c **** {
  21:./source/appConfig.c ****     100000000,
  22:./source/appConfig.c ****     12000000,
  23:./source/appConfig.c ****     enEPCFPllClkSrcMainOSC
  24:./source/appConfig.c **** };
  25:./source/appConfig.c **** 
  26:./source/appConfig.c **** EPCFGpioCfg_t myGpioCfg =
  27:./source/appConfig.c **** {
  28:./source/appConfig.c **** 	{0, 26},
  29:./source/appConfig.c **** 	enEPCFGpioDirection_Output,
  30:./source/appConfig.c **** 	enEPCFGpioPinMode_PullUp,
  31:./source/appConfig.c ****     enEPCFGpioOpenDrain_Disable,
  32:./source/appConfig.c **** };
  33:./source/appConfig.c **** 
  34:./source/appConfig.c **** EPCFGpioCfg_t LED_Config=
  35:./source/appConfig.c **** {
  36:./source/appConfig.c **** 	{0, 25},
  37:./source/appConfig.c **** 	enEPCFGpioDirection_Output,
  38:./source/appConfig.c **** 	enEPCFGpioPinMode_PullUp,
  39:./source/appConfig.c **** 	enEPCFGpioOpenDrain_Disable,
  40:./source/appConfig.c **** };
  41:./source/appConfig.c **** 
  42:./source/appConfig.c **** EPCFGpioCfg_t myLED_Config=
  43:./source/appConfig.c **** {
  44:./source/appConfig.c ****     {4, 29},
  45:./source/appConfig.c ****     enEPCFGpioDirection_Output,
  46:./source/appConfig.c ****     enEPCFGpioPinMode_PullUp,
  47:./source/appConfig.c ****     enEPCFGpioOpenDrain_Disable,
  48:./source/appConfig.c **** };
  49:./source/appConfig.c **** 
  50:./source/appConfig.c **** EPCFGpioCfg_t Switch_Config=
  51:./source/appConfig.c **** {
  52:./source/appConfig.c **** 	{0,24},
  53:./source/appConfig.c **** 	enEPCFGpioDirection_Input,
  54:./source/appConfig.c **** 	enEPCFGpioPinMode_PullUp,
  55:./source/appConfig.c **** 	enEPCFGpioOpenDrain_Disable,
ARM GAS  /tmp/ccJSKCFq.s 			page 6


  56:./source/appConfig.c **** };
  57:./source/appConfig.c **** 
  58:./source/appConfig.c **** 
  59:./source/appConfig.c **** /** Uart config Structure */
  60:./source/appConfig.c **** EPCFUartLpc1768Cfg_t uartHWCfg =
  61:./source/appConfig.c **** {
  62:./source/appConfig.c ****     {EPCF_PORT_0, EPCF_PIN_2},      //TX
  63:./source/appConfig.c ****     {EPCF_PORT_0, EPCF_PIN_3},      //RX
  64:./source/appConfig.c **** };
  65:./source/appConfig.c **** 
  66:./source/appConfig.c **** EPCFUartCfg_t uart_Config = 
  67:./source/appConfig.c **** {
  68:./source/appConfig.c ****     0,
  69:./source/appConfig.c ****     enEPCFUartBaudrate_115200,
  70:./source/appConfig.c ****     enEPCFUartDatabits_8,
  71:./source/appConfig.c ****     enEPCFUartParity_None,
  72:./source/appConfig.c ****     enEPCFUartStopBits_1,
  73:./source/appConfig.c ****     enEPCFBoolean_False,
  74:./source/appConfig.c ****     0,
  75:./source/appConfig.c ****     0,
  76:./source/appConfig.c ****     (EPCFUartLpc1768Cfg_t*)&uartHWCfg,
  77:./source/appConfig.c **** };
  78:./source/appConfig.c **** 
  79:./source/appConfig.c **** EPCFI2cCfg_t i2cConfig = 
  80:./source/appConfig.c **** {
  81:./source/appConfig.c ****     0,
  82:./source/appConfig.c ****     100000,
  83:./source/appConfig.c ****     enEPCFI2cAddress_7bit,
  84:./source/appConfig.c ****     {0,0,0,0},
  85:./source/appConfig.c ****     {0,0,0,0},
  86:./source/appConfig.c ****     0,
  87:./source/appConfig.c ****     enEPCFBoolean_True,
  88:./source/appConfig.c ****     256,
  89:./source/appConfig.c ****     256, 
  90:./source/appConfig.c ****     NULL,
  91:./source/appConfig.c **** };
  92:./source/appConfig.c **** 
  93:./source/appConfig.c **** EPCFTime_t communicationTimeOuts = {5, enEPCFTimeUnit_s,};
  94:./source/appConfig.c **** 
  95:./source/appConfig.c **** 
  96:./source/appConfig.c **** void delay(void)
  97:./source/appConfig.c **** {
 227              		.loc 1 97 0
 228              		.cfi_startproc
 229              		@ args = 0, pretend = 0, frame = 8
 230              		@ frame_needed = 0, uses_anonymous_args = 0
 231              		@ link register save eliminated.
 232 0000 82B0     		sub	sp, sp, #8	@,,
 233              	.LCFI0:
 234              		.cfi_def_cfa_offset 8
  98:./source/appConfig.c ****     uint32_t index=0;
 235              		.loc 1 98 0
 236 0002 0023     		movs	r3, #0	@ tmp110,
 237 0004 0193     		str	r3, [sp, #4]	@ tmp110, index
  99:./source/appConfig.c ****     for(index=0; index<50000000;index++);
 238              		.loc 1 99 0
 239 0006 0023     		movs	r3, #0	@ tmp111,
ARM GAS  /tmp/ccJSKCFq.s 			page 7


 240 0008 0193     		str	r3, [sp, #4]	@ tmp111, index
 241 000a 02E0     		b	.L2	@
 242              	.L3:
 243              		.loc 1 99 0 is_stmt 0 discriminator 3
 244 000c 019B     		ldr	r3, [sp, #4]	@ tmp113, index
 245 000e 0133     		adds	r3, r3, #1	@ tmp112, tmp113,
 246 0010 0193     		str	r3, [sp, #4]	@ tmp112, index
 247              	.L2:
 248              		.loc 1 99 0 discriminator 1
 249 0012 019B     		ldr	r3, [sp, #4]	@ tmp114, index
 250 0014 024A     		ldr	r2, .L4	@ tmp115,
 251 0016 9342     		cmp	r3, r2	@ tmp114, tmp115
 252 0018 F8D9     		bls	.L3	@,
 100:./source/appConfig.c **** }
 253              		.loc 1 100 0 is_stmt 1
 254 001a 02B0     		add	sp, sp, #8	@,,
 255              	.LCFI1:
 256              		.cfi_def_cfa_offset 0
 257              		@ sp needed	@
 258 001c 7047     		bx	lr	@
 259              	.L5:
 260 001e 00BF     		.align	2
 261              	.L4:
 262 0020 7FF0FA02 		.word	49999999
 263              		.cfi_endproc
 264              	.LFE40:
 265              		.size	delay, .-delay
 266              		.align	2
 267              		.global	serialBegin
 268              		.thumb
 269              		.thumb_func
 270              		.type	serialBegin, %function
 271              	serialBegin:
 272              	.LFB41:
 101:./source/appConfig.c **** 
 102:./source/appConfig.c **** void serialBegin() {
 273              		.loc 1 102 0
 274              		.cfi_startproc
 275              		@ args = 0, pretend = 0, frame = 0
 276              		@ frame_needed = 0, uses_anonymous_args = 0
 277 0024 08B5     		push	{r3, lr}	@
 278              	.LCFI2:
 279              		.cfi_def_cfa_offset 8
 280              		.cfi_offset 3, -8
 281              		.cfi_offset 14, -4
 103:./source/appConfig.c ****     myUART = epcf_uart_createNative(&uart_Config);
 282              		.loc 1 103 0
 283 0026 0348     		ldr	r0, .L7	@,
 284 0028 FFF7FEFF 		bl	epcf_uart_createNative	@
 285 002c 0246     		mov	r2, r0	@ D.6302,
 286 002e 024B     		ldr	r3, .L7+4	@ tmp111,
 287 0030 1A60     		str	r2, [r3]	@ D.6302, myUART
 104:./source/appConfig.c **** 
 105:./source/appConfig.c **** }
 288              		.loc 1 105 0
 289 0032 08BD     		pop	{r3, pc}	@
 290              	.L8:
ARM GAS  /tmp/ccJSKCFq.s 			page 8


 291              		.align	2
 292              	.L7:
 293 0034 00000000 		.word	uart_Config
 294 0038 00000000 		.word	myUART
 295              		.cfi_endproc
 296              	.LFE41:
 297              		.size	serialBegin, .-serialBegin
 298              		.align	2
 299              		.global	serialPrint
 300              		.thumb
 301              		.thumb_func
 302              		.type	serialPrint, %function
 303              	serialPrint:
 304              	.LFB42:
 106:./source/appConfig.c **** int32_t serialPrint(char x[]) {
 305              		.loc 1 106 0
 306              		.cfi_startproc
 307              		@ args = 0, pretend = 0, frame = 8
 308              		@ frame_needed = 0, uses_anonymous_args = 0
 309 003c 00B5     		push	{lr}	@
 310              	.LCFI3:
 311              		.cfi_def_cfa_offset 4
 312              		.cfi_offset 14, -4
 313 003e 85B0     		sub	sp, sp, #20	@,,
 314              	.LCFI4:
 315              		.cfi_def_cfa_offset 24
 316 0040 0390     		str	r0, [sp, #12]	@ x, x
 107:./source/appConfig.c ****     return epcf_uart_write(myUART, (uint8_t *)&x, sizeof(x) ,communicationTimeOuts);
 317              		.loc 1 107 0
 318 0042 074B     		ldr	r3, .L11	@ tmp113,
 319 0044 1868     		ldr	r0, [r3]	@ D.6303, myUART
 320 0046 03A9     		add	r1, sp, #12	@ tmp114,,
 321 0048 064B     		ldr	r3, .L11+4	@ tmp115,
 322 004a 5A68     		ldr	r2, [r3, #4]	@ tmp116, communicationTimeOuts
 323 004c 0092     		str	r2, [sp]	@ tmp116,
 324 004e 1B68     		ldr	r3, [r3]	@, communicationTimeOuts
 325 0050 0422     		movs	r2, #4	@,
 326 0052 FFF7FEFF 		bl	epcf_uart_write	@
 327 0056 0346     		mov	r3, r0	@ D.6304,
 108:./source/appConfig.c **** 
 109:./source/appConfig.c **** }
 328              		.loc 1 109 0
 329 0058 1846     		mov	r0, r3	@, <retval>
 330 005a 05B0     		add	sp, sp, #20	@,,
 331              	.LCFI5:
 332              		.cfi_def_cfa_offset 4
 333              		@ sp needed	@
 334 005c 5DF804FB 		ldr	pc, [sp], #4	@
 335              	.L12:
 336              		.align	2
 337              	.L11:
 338 0060 00000000 		.word	myUART
 339 0064 00000000 		.word	communicationTimeOuts
 340              		.cfi_endproc
 341              	.LFE42:
 342              		.size	serialPrint, .-serialPrint
 343              		.align	2
ARM GAS  /tmp/ccJSKCFq.s 			page 9


 344              		.global	appInit
 345              		.thumb
 346              		.thumb_func
 347              		.type	appInit, %function
 348              	appInit:
 349              	.LFB43:
 110:./source/appConfig.c **** 
 111:./source/appConfig.c **** int8_t appInit(void)
 112:./source/appConfig.c **** {
 350              		.loc 1 112 0
 351              		.cfi_startproc
 352              		@ args = 0, pretend = 0, frame = 0
 353              		@ frame_needed = 0, uses_anonymous_args = 0
 354 0068 08B5     		push	{r3, lr}	@
 355              	.LCFI6:
 356              		.cfi_def_cfa_offset 8
 357              		.cfi_offset 3, -8
 358              		.cfi_offset 14, -4
 113:./source/appConfig.c ****     myClock = epcfCreateSysClk(&myClockCfg);
 359              		.loc 1 113 0
 360 006a 2248     		ldr	r0, .L18	@,
 361 006c FFF7FEFF 		bl	epcfCreateSysClk	@
 362 0070 0246     		mov	r2, r0	@ D.6307,
 363 0072 214B     		ldr	r3, .L18+4	@ tmp123,
 364 0074 1A60     		str	r2, [r3]	@ D.6307, myClock
 114:./source/appConfig.c ****     if(myClock == NULL)
 365              		.loc 1 114 0
 366 0076 204B     		ldr	r3, .L18+4	@ tmp124,
 367 0078 1B68     		ldr	r3, [r3]	@ D.6307, myClock
 368 007a 002B     		cmp	r3, #0	@ D.6307,
 369 007c 01D1     		bne	.L14	@,
 115:./source/appConfig.c ****     {
 116:./source/appConfig.c ****         APP_DEBUG("Error in creating SysClk!");
 117:./source/appConfig.c ****         return -1;
 370              		.loc 1 117 0
 371 007e FF23     		movs	r3, #255	@ D.6306,
 372 0080 34E0     		b	.L15	@
 373              	.L14:
 118:./source/appConfig.c ****     }
 119:./source/appConfig.c **** 
 120:./source/appConfig.c ****     myUART = epcf_uart_createNative(&uart_Config);
 374              		.loc 1 120 0
 375 0082 1E48     		ldr	r0, .L18+8	@,
 376 0084 FFF7FEFF 		bl	epcf_uart_createNative	@
 377 0088 0246     		mov	r2, r0	@ D.6308,
 378 008a 1D4B     		ldr	r3, .L18+12	@ tmp125,
 379 008c 1A60     		str	r2, [r3]	@ D.6308, myUART
 121:./source/appConfig.c ****     myGpio = epcf_gpio_createNative(&myGpioCfg);
 380              		.loc 1 121 0
 381 008e 1D48     		ldr	r0, .L18+16	@,
 382 0090 FFF7FEFF 		bl	epcf_gpio_createNative	@
 383 0094 0246     		mov	r2, r0	@ D.6309,
 384 0096 1C4B     		ldr	r3, .L18+20	@ tmp126,
 385 0098 1A60     		str	r2, [r3]	@ D.6309, myGpio
 122:./source/appConfig.c **** 	LED = epcf_gpio_createNative(&LED_Config);
 386              		.loc 1 122 0
 387 009a 1C48     		ldr	r0, .L18+24	@,
ARM GAS  /tmp/ccJSKCFq.s 			page 10


 388 009c FFF7FEFF 		bl	epcf_gpio_createNative	@
 389 00a0 0246     		mov	r2, r0	@ D.6309,
 390 00a2 1B4B     		ldr	r3, .L18+28	@ tmp127,
 391 00a4 1A60     		str	r2, [r3]	@ D.6309, LED
 123:./source/appConfig.c ****     myLED = epcf_gpio_createNative(&myLED_Config);
 392              		.loc 1 123 0
 393 00a6 1B48     		ldr	r0, .L18+32	@,
 394 00a8 FFF7FEFF 		bl	epcf_gpio_createNative	@
 395 00ac 0246     		mov	r2, r0	@ D.6309,
 396 00ae 1A4B     		ldr	r3, .L18+36	@ tmp128,
 397 00b0 1A60     		str	r2, [r3]	@ D.6309, myLED
 124:./source/appConfig.c **** 	Switch = epcf_gpio_createNative(&Switch_Config);
 398              		.loc 1 124 0
 399 00b2 1A48     		ldr	r0, .L18+40	@,
 400 00b4 FFF7FEFF 		bl	epcf_gpio_createNative	@
 401 00b8 0246     		mov	r2, r0	@ D.6309,
 402 00ba 194B     		ldr	r3, .L18+44	@ tmp129,
 403 00bc 1A60     		str	r2, [r3]	@ D.6309, Switch
 125:./source/appConfig.c ****     i2cDevice = epcf_i2c_CreateNative(&i2cConfig);
 404              		.loc 1 125 0
 405 00be 1948     		ldr	r0, .L18+48	@,
 406 00c0 FFF7FEFF 		bl	epcf_i2c_CreateNative	@
 407 00c4 0246     		mov	r2, r0	@ D.6310,
 408 00c6 184B     		ldr	r3, .L18+52	@ tmp130,
 409 00c8 1A60     		str	r2, [r3]	@ D.6310, i2cDevice
 126:./source/appConfig.c ****     serialBegin();
 410              		.loc 1 126 0
 411 00ca FFF7FEFF 		bl	serialBegin	@
 127:./source/appConfig.c **** 	
 128:./source/appConfig.c ****     if((LED == NULL) || (Switch == NULL) || (myGpio == NULL))
 412              		.loc 1 128 0
 413 00ce 104B     		ldr	r3, .L18+28	@ tmp131,
 414 00d0 1B68     		ldr	r3, [r3]	@ D.6309, LED
 415 00d2 002B     		cmp	r3, #0	@ D.6309,
 416 00d4 07D0     		beq	.L16	@,
 417              		.loc 1 128 0 is_stmt 0 discriminator 1
 418 00d6 124B     		ldr	r3, .L18+44	@ tmp132,
 419 00d8 1B68     		ldr	r3, [r3]	@ D.6309, Switch
 420 00da 002B     		cmp	r3, #0	@ D.6309,
 421 00dc 03D0     		beq	.L16	@,
 422              		.loc 1 128 0 discriminator 2
 423 00de 0A4B     		ldr	r3, .L18+20	@ tmp133,
 424 00e0 1B68     		ldr	r3, [r3]	@ D.6309, myGpio
 425 00e2 002B     		cmp	r3, #0	@ D.6309,
 426 00e4 01D1     		bne	.L17	@,
 427              	.L16:
 129:./source/appConfig.c ****     {
 130:./source/appConfig.c ****         APP_DEBUG("Error in Initializing GPIO!\n");
 131:./source/appConfig.c ****         return -1;
 428              		.loc 1 131 0 is_stmt 1
 429 00e6 FF23     		movs	r3, #255	@ D.6306,
 430 00e8 00E0     		b	.L15	@
 431              	.L17:
 132:./source/appConfig.c ****     }
 133:./source/appConfig.c ****     else
 134:./source/appConfig.c ****     {
 135:./source/appConfig.c ****         APP_DEBUG("GPIO Initialized!\n");
ARM GAS  /tmp/ccJSKCFq.s 			page 11


 136:./source/appConfig.c ****     }
 137:./source/appConfig.c **** 
 138:./source/appConfig.c ****     return 0;
 432              		.loc 1 138 0
 433 00ea 0023     		movs	r3, #0	@ D.6306,
 434              	.L15:
 435 00ec 5BB2     		sxtb	r3, r3	@ tmp135, D.6306
 139:./source/appConfig.c **** }
 436              		.loc 1 139 0
 437 00ee 1846     		mov	r0, r3	@, <retval>
 438 00f0 08BD     		pop	{r3, pc}	@
 439              	.L19:
 440 00f2 00BF     		.align	2
 441              	.L18:
 442 00f4 00000000 		.word	myClockCfg
 443 00f8 00000000 		.word	myClock
 444 00fc 00000000 		.word	uart_Config
 445 0100 00000000 		.word	myUART
 446 0104 00000000 		.word	myGpioCfg
 447 0108 00000000 		.word	myGpio
 448 010c 00000000 		.word	LED_Config
 449 0110 00000000 		.word	LED
 450 0114 00000000 		.word	myLED_Config
 451 0118 00000000 		.word	myLED
 452 011c 00000000 		.word	Switch_Config
 453 0120 00000000 		.word	Switch
 454 0124 00000000 		.word	i2cConfig
 455 0128 00000000 		.word	i2cDevice
 456              		.cfi_endproc
 457              	.LFE43:
 458              		.size	appInit, .-appInit
 459              	.Letext0:
 460              		.file 2 "/usr/include/newlib/machine/_default_types.h"
 461              		.file 3 "/usr/include/newlib/sys/_stdint.h"
 462              		.file 4 "../pcf/include/../../epcf/./common/types.h"
 463              		.file 5 "../pcf/include/../../epcf/./common/portpin.h"
 464              		.file 6 "./include/../../epcf/peripheral/include/./sysClk/sysClk.h"
 465              		.file 7 "./include/../../epcf/peripheral/include/./gpio/gpio.h"
 466              		.file 8 "./include/../../epcf/peripheral/include/./uart/uart.h"
 467              		.file 9 "./include/../../epcf/native/port/arm/cm3/nxp/lpc1768/include/uart/uart_lpc1768_config.h"
 468              		.file 10 "./include/../../epcf/peripheral/include/./i2c/i2c.h"
 469              		.file 11 "../pcf/include/private/arch/arm/cm3/nxp/lpc1768/./../../../../arm/cm3/nxp/lpc1768/lpc176