ARM GAS  /tmp/ccJSKCFq.s 			page 1


   1              		.syntax unified
   2              		.cpu cortex-m3
   3              		.fpu softvfp
   4              		.eabi_attribute 20, 1	@ Tag_ABI_FP_denormal
   5              		.eabi_attribute 21, 1	@ Tag_ABI_FP_exceptions
   6              		.eabi_attribute 23, 3	@ Tag_ABI_FP_number_model
   7              		.eabi_attribute 24, 1	@ Tag_ABI_align8_needed
   8              		.eabi_attribute 25, 1	@ Tag_ABI_align8_preserved
   9              		.eabi_attribute 26, 1	@ Tag_ABI_enum_size
  10              		.eabi_attribute 30, 6	@ Tag_ABI_optimization_goals
  11              		.eabi_attribute 34, 1	@ Tag_CPU_unaligned_access
  12              		.eabi_attribute 18, 4	@ Tag_ABI_PCS_wchar_t
  13              		.file	"appConfig.c"
  14              	@ GNU C (15:4.9.3+svn231177-1) version 4.9.3 20150529 (prerelease) (arm-none-eabi)
  15              	@	compiled by GNU C version 5.2.1 20151129, GMP version 6.1.0, MPFR version 3.1.3, MPC version 1.0.
  16              	@ warning: MPFR header version 3.1.3 differs from library version 3.1.4.
  17              	@ GGC heuristics: --param ggc-min-expand=100 --param ggc-min-heapsize=131072
  18              	@ options passed:  -I . -I ./include -I ../pcf/include -imultilib armv7-m
  19              	@ -MD Build/Obj/Debug/appConfig.d -MF Build/.dep/appConfig.o.d -MP
  20              	@ -MQ Build/Obj/Debug/appConfig.o -D__USES_INITFINI__ ./source/appConfig.c
  21              	@ -mcpu=cortex-m3 -mthumb -auxbase-strip Build/Obj/Debug/appConfig.o
  22              	@ -gdwarf-2 -O0 -Wall -Wno-cpp -std=gnu99 -fomit-frame-pointer
  23              	@ -fverbose-asm
  24              	@ options enabled:  -faggressive-loop-optimizations -fauto-inc-dec -fcommon
  25              	@ -fdelete-null-pointer-checks -fdwarf2-cfi-asm -fearly-inlining
  26              	@ -feliminate-unused-debug-types -ffunction-cse -fgcse-lm -fgnu-runtime
  27              	@ -fgnu-unique -fident -finline-atomics -fira-hoist-pressure
  28              	@ -fira-share-save-slots -fira-share-spill-slots -fivopts
  29              	@ -fkeep-static-consts -fleading-underscore -flifetime-dse -fmath-errno
  30              	@ -fmerge-debug-strings -fomit-frame-pointer -fpeephole
  31              	@ -fprefetch-loop-arrays -freg-struct-return
  32              	@ -fsched-critical-path-heuristic -fsched-dep-count-heuristic
  33              	@ -fsched-group-heuristic -fsched-interblock -fsched-last-insn-heuristic
  34              	@ -fsched-rank-heuristic -fsched-spec -fsched-spec-insn-heuristic
  35              	@ -fsched-stalled-insns-dep -fshow-column -fsigned-zeros
  36              	@ -fsplit-ivs-in-unroller -fstrict-volatile-bitfields -fsync-libcalls
  37              	@ -ftrapping-math -ftree-coalesce-vars -ftree-cselim -ftree-forwprop
  38              	@ -ftree-loop-if-convert -ftree-loop-im -ftree-loop-ivcanon
  39              	@ -ftree-loop-optimize -ftree-parallelize-loops= -ftree-phiprop
  40              	@ -ftree-reassoc -ftree-scev-cprop -funit-at-a-time -fverbose-asm
  41              	@ -fzero-initialized-in-bss -mfix-cortex-m3-ldrd -mlittle-endian -mlra
  42              	@ -mpic-data-is-text-relative -msched-prolog -mthumb -munaligned-access
  43              	@ -mvectorize-with-neon-quad
  44              	
  45              		.text
  46              	.Ltext0:
  47              		.cfi_sections	.debug_frame
  48              		.comm	myClock,4,4
  49              		.comm	myGpio,4,4
  50              		.comm	LED,4,4
  51              		.comm	myLED,4,4
  52              		.comm	Switch,4,4
  53              		.comm	myUART,4,4
  54              		.comm	i2cDevice,4,4
  55              		.global	myClockCfg
  56              		.data
  57              		.align	2
ARM GAS  /tmp/ccJSKCFq.s 			page 2


  58              		.type	myClockCfg, %object
  59              		.size	myClockCfg, 12
  60              	myClockCfg:
  61              	@ cpuFreqHz:
  62 0000 00E1F505 		.word	100000000
  63              	@ oscFreq:
  64 0004 001BB700 		.word	12000000
  65              	@ pllClkSrc:
  66 0008 01       		.byte	1
  67 0009 000000   		.space	3
  68              		.global	myGpioCfg
  69              		.align	2
  70              		.type	myGpioCfg, %object
  71              		.size	myGpioCfg, 12
  72              	myGpioCfg:
  73              	@ portPin:
  74              	@ port:
  75 000c 00       		.byte	0
  76              	@ pin:
  77 000d 1A       		.byte	26
  78              	@ direction:
  79 000e 01       		.byte	1
  80              	@ mode:
  81 000f 00       		.byte	0
  82              	@ openDrain:
  83 0010 00       		.byte	0
  84 0011 00000000 		.space	7
  84      000000
  85              		.global	LED_Config
  86              		.align	2
  87              		.type	LED_Config, %object
  88              		.size	LED_Config, 12
  89              	LED_Config:
  90              	@ portPin:
  91              	@ port:
  92 0018 00       		.byte	0
  93              	@ pin:
  94 0019 19       		.byte	25
  95              	@ direction:
  96 001a 01       		.byte	1
  97              	@ mode:
  98 001b 00       		.byte	0
  99              	@ openDrain:
 100 001c 00       		.byte	0
 101 001d 00000000 		.space	7
 101      000000
 102              		.global	myLED_Config
 103              		.align	2
 104              		.type	myLED_Config, %object
 105              		.size	myLED_Config, 12
 106              	myLED_Config:
 107              	@ portPin:
 108              	@ port:
 109 0024 04       		.byte	4
 110              	@ pin:
 111 0025 1D       		.byte	29
 112              	@ direction:
ARM GAS  /tmp/ccJSKCFq.s 			page 3


 113 0026 01       		.byte	1
 114              	@ mode:
 115 0027 00       		.byte	0
 116              	@ openDrain:
 117 0028 00       		.byte	0
 118 0029 00000000 		.space	7
 118      000000
 119              		.global	Switch_Config
 120              		.align	2
 121              		.type	Switch_Config, %object
 122              		.size	Switch_Config, 12
 123              	Switch_Config:
 124              	@ portPin:
 125              	@ port:
 126 0030 00       		.byte	0
 127              	@ pin:
 128 0031 18       		.byte	24
 129              	@ direction:
 130 0032 00       		.byte	0
 131              	@ mode:
 132 0033 00       		.byte	0
 133              	@ openDrain:
 134 0034 00       		.byte	0
 135 0035 00000000 		.space	7
 135      000000
 136              		.global	uartHWCfg
 137              		.align	2
 138              		.type	uartHWCfg, %object
 139              		.size	uartHWCfg, 4
 140              	uartHWCfg:
 141              	@ uartTxPin:
 142              	@ port:
 143 003c 00       		.byte	0
 144              	@ pin:
 145 003d 02       		.byte	2
 146              	@ uartRxPin:
 147              	@ port:
 148 003e 00       		.byte	0
 149              	@ pin:
 150 003f 03       		.byte	3
 151              		.global	uart_Config
 152              		.align	2
 153              		.type	uart_Config, %object
 154              		.size	uart_Config, 20
 155              	uart_Config:
 156              	@ uartId:
 157 0040 00       		.byte	0
 158              	@ baudrate:
 159 0041 06       		.byte	6
 160              	@ dataBits:
 161 0042 08       		.byte	8
 162              	@ parity:
 163 0043 00       		.byte	0
 164              	@ stopBits:
 165 0044 01       		.byte	1
 166              	@ interruptEnable:
 167 0045 00       		.byte	0
ARM GAS  /tmp/ccJSKCFq.s 			page 4


 168              	@ txBufferSize:
 169 0046 0000     		.space	2
 170 0048 00000000 		.word	0
 171              	@ rxBufferSize:
 172 004c 00000000 		.word	0
 173              	@ hardwareCfg:
 174 0050 00000000 		.word	uartHWCfg
 175              		.global	i2cConfig
 176              		.align	2
 177              		.type	i2cConfig, %object
 178              		.size	i2cConfig, 40
 179              	i2cConfig:
 180              	@ i2cId:
 181 0054 00       		.byte	0
 182              	@ baudrate:
 183 0055 000000   		.space	3
 184 0058 A0860100 		.word	100000
 185              	@ addressType:
 186 005c 00       		.byte	0
 187              	@ ownAddress:
 188 005d 00       		.space	1
 189 005e 0000     		.short	0
 190 0060 0000     		.short	0
 191 0062 0000     		.short	0
 192 0064 0000     		.short	0
 193              	@ ownAddressMask:
 194 0066 0000     		.short	0
 195 0068 0000     		.short	0
 196 006a 0000     		.short	0
 197 006c 0000     		.short	0
 198              	@ generalCallEnable:
 199 006e 00       		.byte	0
 200              	@ interruptEnable:
 201 006f 01       		.byte	1
 202              	@ txBufferSize:
 203 0070 00010000 		.word	256
 204              	@ rxBufferSize:
 205 0074 00010000 		.word	256
 206              	@ hardwareCfg:
 207 0078 00000000 		.word	0
 208              		.global	communicationTimeOuts
 209              		.align	2
 210              		.type	communicationTimeOuts, %object
 211              		.size	communicationTimeOuts, 8
 212              	communicationTimeOuts:
 213              	@ count:
 214 007c 05000000 		.word	5
 215              	@ unit:
 216 0080 03       		.byte	3
 217 0081 000000   		.space	3
 218              		.text
 219              		.align	2
 220              		.global	delay
 221              		.thumb
 222              		.thumb_func
 223              		.type	delay, %function
 224              	delay:
ARM GAS  /tmp/ccJSKCFq.s 			page 5


 225              	.LFB40:
 226              		.file 1 "./source/appConfig.c"
   1:./source/appConfig.c **** /**
   2:./source/appConfig.c ****  *  \file       app_config.c
   3:./source/appConfig.c ****  *  \brief      Configuration settings to use GPIO device in extended mode from EduARM side
   4:./source/appConfig.c ****  *
   5:./source/appConfig.c ****  */
   6:./source/appConfig.c **** 
   7:./source/appConfig.c **** #include "pcf.h"
   8:./source/appConfig.c **** #include "appConfig.h"
   9:./source/appConfig.c **** 
  10:./source/appConfig.c **** EPCFSysClkDevice_t *myClock;
  11:./source/appConfig.c **** EPCFGpioDevice_t   *myGpio;
  12:./source/appConfig.c **** EPCFGpioDevice_t   *LED;
  13:./source/appConfig.c **** EPCFGpioDevice_t   *myLED;
  14:./source/appConfig.c **** EPCFGpioDevice_t   *Switch;
  15:./source/appConfig.c **** EPCFUartDevice_t   *myUART;
  16:./source/appConfig.c **** EPCFI2cDevice_t    *i2cDevice; 
  17:./source/appConfig.c **** 
  18:./source/appConfig.c **** 
  19:./source/appConfig.c **** EPCFSysClkCfg_t myClockCfg =
  20:./source/appConfig.c **** {
  21:./source/appConfig.c ****     100000000,
  22:./source/appConfig.c ****     12000000,
  23:./source/appConfig.c ****     enEPCFPllClkSrcMainOSC
  24:./source/appConfig.c **** };
  25:./source/appConfig.c **** 
  26:./source/appConfig.c **** EPCFGpioCfg_t myGpioCfg =
  27:./source/appConfig.c **** {
  28:./source/appConfig.c **** 	{0, 26},
  29:./source/appConfig.c **** 	enEPCFGpioDirection_Output,
  30:./source/appConfig.c **** 	enEPCFGpioPinMode_PullUp,
  31:./source/appConfig.c ****     enEPCFGpioOpenDrain_Disable,
  32:./source/appConfig.c **** };
  33:./source/appConfig.c **** 
  34:./source/appConfig.c **** EPCFGpioCfg_t LED_Config=
  35:./source/appConfig.c **** {
  36:./source/appConfig.c **** 	{0, 25},
  37:./source/appConfig.c **** 	enEPCFGpioDirection_Output,
  38:./source/appConfig.c **** 	enEPCFGpioPinMode_PullUp,
  39:./source/appConfig.c **** 	enEPCFGpioOpenDrain_Disable,
  40:./source/appConfig.c **** };
  41:./source/appConfig.c **** 
  42:./source/appConfig.c **** EPCFGpioCfg_t myLED_Config=
  43:./source/appConfig.c **** {
  44:./source/appConfig.c ****     {4, 29},
  45:./source/appConfig.c ****     enEPCFGpioDirection_Output,
  46:./source/appConfig.c ****     enEPCFGpioPinMode_PullUp,
  47:./source/appConfig.c ****     enEPCFGpioOpenDrain_Disable,
  48:./source/appConfig.c **** };
  49:./source/appConfig.c **** 
  50:./source/appConfig.c **** EPCFGpioCfg_t Switch_Config=
  51:./source/appConfig.c **** {
  52:./source/appConfig.c **** 	{0,24},
  53:./source/appConfig.c **** 	enEPCFGpioDirection_Input,
  54:./source/appConfig.c **** 	enEPCFGpioPinMode_PullUp,
  55:./source/appConfig.c **** 	enEPCFGpioOpenDrain_Disable,
ARM GAS  /tmp/ccJSKCFq.s 			page 6


  56:./source/appConfig.c **** };
  57:./source/appConfig.c **** 
  58:./source/appConfig.c **** 
  59:./source/appConfig.c **** /** Uart config Structure */
  60:./source/appConfig.c **** EPCFUartLpc1768Cfg_t uartHWCfg =
  61:./source/appConfig.c **** {
  62:./source/appConfig.c ****     {EPCF_PORT_0, EPCF_PIN_2},      //TX
  63:./source/appConfig.c ****     {EPCF_PORT_0, EPCF_PIN_3},      //RX
  64:./source/appConfig.c **** };
  65:./source/appConfig.c **** 
  66:./source/appConfig.c **** EPCFUartCfg_t uart_Config = 
  67:./source/appConfig.c **** {
  68:./source/appConfig.c ****     0,
  69:./source/appConfig.c ****     enEPCFUartBaudrate_115200,
  70:./source/appConfig.c ****     enEPCFUartDatabits_8,
  71:./source/appConfig.c ****     enEPCFUartParity_None,
  72:./source/appConfig.c ****     enEPCFUartStopBits_1,
  73:./source/appConfig.c ****     enEPCFBoolean_False,
  74:./source/appConfig.c ****     0,
  75:./source/appConfig.c ****     0,
  76:./source/appConfig.c ****     (EPCFUartLpc1768Cfg_t*)&uartHWCfg,
  77:./source/appConfig.c **** };
  78:./source/appConfig.c **** 
  79:./source/appConfig.c **** EPCFI2cCfg_t i2cConfig = 
  80:./source/appConfig.c **** {
  81:./source/appConfig.c ****     0,
  82:./source/appConfig.c ****     100000,
  83:./source/appConfig.c ****     enEPCFI2cAddress_7bit,
  84:./source/appConfig.c ****     {0,0,0,0},
  85:./source/appConfig.c ****     {0,0,0,0},
  86:./source/appConfig.c ****     0,
  87:./source/appConfig.c ****     enEPCFBoolean_True,
  88:./source/appConfig.c ****     256,
  89:./source/appConfig.c ****     256, 
  90:./source/appConfig.c ****     NULL,
  91:./source/appConfig.c **** };
  92:./source/appConfig.c **** 
  93:./source/appConfig.c **** EPCFTime_t communicationTimeOuts = {5, enEPCFTimeUnit_s,};
  94:./source/appConfig.c **** 
  95:./source/appConfig.c **** 
  96:./source/appConfig.c **** void delay(void)
  97:./source/appConfig.c **** {
 227              		.loc 1 97 0
 228              		.cfi_startproc
 229              		@ args = 0, pretend = 0, frame = 8
 230              		@ frame_needed = 0, uses_anonymous_args = 0
 231              		@ link register save eliminated.
 232 0000 82B0     		sub	sp, sp, #8	@,,
 233              	.LCFI0:
 234              		.cfi_def_cfa_offset 8
  98:./source/appConfig.c ****     uint32_t index=0;
 235              		.loc 1 98 0
 236 0002 0023     		movs	r3, #0	@ tmp110,
 237 0004 0193     		str	r3, [sp, #4]	@ tmp110, index
  99:./source/appConfig.c ****     for(index=0; index<50000000;index++);
 238              		.loc 1 99 0
 239 0006 0023     		movs	r3, #0	@ tmp111,
ARM GAS  /tmp/ccJSKCFq.s 			page 7


 240 0008 0193     		str	r3, [sp, #4]	@ tmp111, index
 241 000a 02E0     		b	.L2	@
 242              	.L3:
 243              		.loc 1 99 0 is_stmt 0 discriminator 3
 244 000c 019B     		ldr	r3, [sp, #4]	@ tmp113, index
 245 000e 0133     		adds	r3, r3, #1	@ tmp112, tmp113,
 246 0010 0193     		str	r3, [sp, #4]	@ tmp112, index
 247              	.L2:
 248              		.loc 1 99 0 discriminator 1
 249 0012 019B     		ldr	r3, [sp, #4]	@ tmp114, index
 250 0014 024A     		ldr	r2, .L4	@ tmp115,
 251 0016 9342     		cmp	r3, r2	@ tmp114, tmp115
 252 0018 F8D9     		bls	.L3	@,
 100:./source/appConfig.c **** }
 253              		.loc 1 100 0 is_stmt 1
 254 001a 02B0     		add	sp, sp, #8	@,,
 255              	.LCFI1:
 256              		.cfi_def_cfa_offset 0
 257              		@ sp needed	@
 258 001c 7047     		bx	lr	@
 259              	.L5:
 260 001e 00BF     		.align	2
 261              	.L4:
 262 0020 7FF0FA02 		.word	49999999
 263              		.cfi_endproc
 264              	.LFE40:
 265              		.size	delay, .-delay
 266              		.align	2
 267              		.global	serialBegin
 268              		.thumb
 269              		.thumb_func
 270              		.type	serialBegin, %function
 271              	serialBegin:
 272              	.LFB41:
 101:./source/appConfig.c **** 
 102:./source/appConfig.c **** void serialBegin() {
 273              		.loc 1 102 0
 274              		.cfi_startproc
 275              		@ args = 0, pretend = 0, frame = 0
 276              		@ frame_needed = 0, uses_anonymous_args = 0
 277 0024 08B5     		push	{r3, lr}	@
 278              	.LCFI2:
 279              		.cfi_def_cfa_offset 8
 280              		.cfi_offset 3, -8
 281              		.cfi_offset 14, -4
 103:./source/appConfig.c ****     myUART = epcf_uart_createNative(&uart_Config);
 282              		.loc 1 103 0
 283 0026 0348     		ldr	r0, .L7	@,
 284 0028 FFF7FEFF 		bl	epcf_uart_createNative	@
 285 002c 0246     		mov	r2, r0	@ D.6302,
 286 002e 024B     		ldr	r3, .L7+4	@ tmp111,
 287 0030 1A60     		str	r2, [r3]	@ D.6302, myUART
 104:./source/appConfig.c **** 
 105:./source/appConfig.c **** }
 288              		.loc 1 105 0
 289 0032 08BD     		pop	{r3, pc}	@
 290              	.L8:
ARM GAS  /tmp/ccJSKCFq.s 			page 8


 291              		.align	2
 292              	.L7:
 293 0034 00000000 		.word	uart_Config
 294 0038 00000000 		.word	myUART
 295              		.cfi_endproc
 296              	.LFE41:
 297              		.size	serialBegin, .-serialBegin
 298              		.align	2
 299              		.global	serialPrint
 300              		.thumb
 301              		.thumb_func
 302              		.type	serialPrint, %function
 303              	serialPrint:
 304              	.LFB42:
 106:./source/appConfig.c **** int32_t serialPrint(char x[]) {
 305              		.loc 1 106 0
 306              		.cfi_startproc
 307              		@ args = 0, pretend = 0, frame = 8
 308              		@ frame_needed = 0, uses_anonymous_args = 0
 309 003c 00B5     		push	{lr}	@
 310              	.LCFI3:
 311              		.cfi_def_cfa_offset 4
 312              		.cfi_offset 14, -4
 313 003e 85B0     		sub	sp, sp, #20	@,,
 314              	.LCFI4:
 315              		.cfi_def_cfa_offset 24
 316 0040 0390     		str	r0, [sp, #12]	@ x, x
 107:./source/appConfig.c ****     return epcf_uart_write(myUART, (uint8_t *)&x, sizeof(x) ,communicationTimeOuts);
 317              		.loc 1 107 0
 318 0042 074B     		ldr	r3, .L11	@ tmp113,
 319 0044 1868     		ldr	r0, [r3]	@ D.6303, myUART
 320 0046 03A9     		add	r1, sp, #12	@ tmp114,,
 321 0048 064B     		ldr	r3, .L11+4	@ tmp115,
 322 004a 5A68     		ldr	r2, [r3, #4]	@ tmp116, communicationTimeOuts
 323 004c 0092     		str	r2, [sp]	@ tmp116,
 324 004e 1B68     		ldr	r3, [r3]	@, communicationTimeOuts
 325 0050 0422     		movs	r2, #4	@,
 326 0052 FFF7FEFF 		bl	epcf_uart_write	@
 327 0056 0346     		mov	r3, r0	@ D.6304,
 108:./source/appConfig.c **** 
 109:./source/appConfig.c **** }
 328              		.loc 1 109 0
 329 0058 1846     		mov	r0, r3	@, <retval>
 330 005a 05B0     		add	sp, sp, #20	@,,
 331              	.LCFI5:
 332              		.cfi_def_cfa_offset 4
 333              		@ sp needed	@
 334 005c 5DF804FB 		ldr	pc, [sp], #4	@
 335              	.L12:
 336              		.align	2
 337              	.L11:
 338 0060 00000000 		.word	myUART
 339 0064 00000000 		.word	communicationTimeOuts
 340              		.cfi_endproc
 341              	.LFE42:
 342              		.size	serialPrint, .-serialPrint
 343              		.align	2
ARM GAS  /tmp/ccJSKCFq.s 			page 9


 344              		.global	appInit
 345              		.thumb
 346              		.thumb_func
 347              		.type	appInit, %function
 348              	appInit:
 349              	.LFB43:
 110:./source/appConfig.c **** 
 111:./source/appConfig.c **** int8_t appInit(void)
 112:./source/appConfig.c **** {
 350              		.loc 1 112 0
 351              		.cfi_startproc
 352              		@ args = 0, pretend = 0, frame = 0
 353              		@ frame_needed = 0, uses_anonymous_args = 0
 354 0068 08B5     		push	{r3, lr}	@
 355              	.LCFI6:
 356              		.cfi_def_cfa_offset 8
 357              		.cfi_offset 3, -8
 358              		.cfi_offset 14, -4
 113:./source/appConfig.c ****     myClock = epcfCreateSysClk(&myClockCfg);
 359              		.loc 1 113 0
 360 006a 2248     		ldr	r0, .L18	@,
 361 006c FFF7FEFF 		bl	epcfCreateSysClk	@
 362 0070 0246     		mov	r2, r0	@ D.6307,
 363 0072 214B     		ldr	r3, .L18+4	@ tmp123,
 364 0074 1A60     		str	r2, [r3]	@ D.6307, myClock
 114:./source/appConfig.c ****     if(myClock == NULL)
 365              		.loc 1 114 0
 366 0076 204B     		ldr	r3, .L18+4	@ tmp124,
 367 0078 1B68     		ldr	r3, [r3]	@ D.6307, myClock
 368 007a 002B     		cmp	r3, #0	@ D.6307,
 369 007c 01D1     		bne	.L14	@,
 115:./source/appConfig.c ****     {
 116:./source/appConfig.c ****         APP_DEBUG("Error in creating SysClk!");
 117:./source/appConfig.c ****         return -1;
 370              		.loc 1 117 0
 371 007e FF23     		movs	r3, #255	@ D.6306,
 372 0080 34E0     		b	.L15	@
 373              	.L14:
 118:./source/appConfig.c ****     }
 119:./source/appConfig.c **** 
 120:./source/appConfig.c ****     myUART = epcf_uart_createNative(&uart_Config);
 374              		.loc 1 120 0
 375 0082 1E48     		ldr	r0, .L18+8	@,
 376 0084 FFF7FEFF 		bl	epcf_uart_createNative	@
 377 0088 0246     		mov	r2, r0	@ D.6308,
 378 008a 1D4B     		ldr	r3, .L18+12	@ tmp125,
 379 008c 1A60     		str	r2, [r3]	@ D.6308, myUART
 121:./source/appConfig.c ****     myGpio = epcf_gpio_createNative(&myGpioCfg);
 380              		.loc 1 121 0
 381 008e 1D48     		ldr	r0, .L18+16	@,
 382 0090 FFF7FEFF 		bl	epcf_gpio_createNative	@
 383 0094 0246     		mov	r2, r0	@ D.6309,
 384 0096 1C4B     		ldr	r3, .L18+20	@ tmp126,
 385 0098 1A60     		str	r2, [r3]	@ D.6309, myGpio
 122:./source/appConfig.c **** 	LED = epcf_gpio_createNative(&LED_Config);
 386              		.loc 1 122 0
 387 009a 1C48     		ldr	r0, .L18+24	@,
ARM GAS  /tmp/ccJSKCFq.s 			page 10


 388 009c FFF7FEFF 		bl	epcf_gpio_createNative	@
 389 00a0 0246     		mov	r2, r0	@ D.6309,
 390 00a2 1B4B     		ldr	r3, .L18+28	@ tmp127,
 391 00a4 1A60     		str	r2, [r3]	@ D.6309, LED
 123:./source/appConfig.c ****     myLED = epcf_gpio_createNative(&myLED_Config);
 392              		.loc 1 123 0
 393 00a6 1B48     		ldr	r0, .L18+32	@,
 394 00a8 FFF7FEFF 		bl	epcf_gpio_createNative	@
 395 00ac 0246     		mov	r2, r0	@ D.6309,
 396 00ae 1A4B     		ldr	r3, .L18+36	@ tmp128,
 397 00b0 1A60     		str	r2, [r3]	@ D.6309, myLED
 124:./source/appConfig.c **** 	Switch = epcf_gpio_createNative(&Switch_Config);
 398              		.loc 1 124 0
 399 00b2 1A48     		ldr	r0, .L18+40	@,
 400 00b4 FFF7FEFF 		bl	epcf_gpio_createNative	@
 401 00b8 0246     		mov	r2, r0	@ D.6309,
 402 00ba 194B     		ldr	r3, .L18+44	@ tmp129,
 403 00bc 1A60     		str	r2, [r3]	@ D.6309, Switch
 125:./source/appConfig.c ****     i2cDevice = epcf_i2c_CreateNative(&i2cConfig);
 404              		.loc 1 125 0
 405 00be 1948     		ldr	r0, .L18+48	@,
 406 00c0 FFF7FEFF 		bl	epcf_i2c_CreateNative	@
 407 00c4 0246     		mov	r2, r0	@ D.6310,
 408 00c6 184B     		ldr	r3, .L18+52	@ tmp130,
 409 00c8 1A60     		str	r2, [r3]	@ D.6310, i2cDevice
 126:./source/appConfig.c ****     serialBegin();
 410              		.loc 1 126 0
 411 00ca FFF7FEFF 		bl	serialBegin	@
 127:./source/appConfig.c **** 	
 128:./source/appConfig.c ****     if((LED == NULL) || (Switch == NULL) || (myGpio == NULL))
 412              		.loc 1 128 0
 413 00ce 104B     		ldr	r3, .L18+28	@ tmp131,
 414 00d0 1B68     		ldr	r3, [r3]	@ D.6309, LED
 415 00d2 002B     		cmp	r3, #0	@ D.6309,
 416 00d4 07D0     		beq	.L16	@,
 417              		.loc 1 128 0 is_stmt 0 discriminator 1
 418 00d6 124B     		ldr	r3, .L18+44	@ tmp132,
 419 00d8 1B68     		ldr	r3, [r3]	@ D.6309, Switch
 420 00da 002B     		cmp	r3, #0	@ D.6309,
 421 00dc 03D0     		beq	.L16	@,
 422              		.loc 1 128 0 discriminator 2
 423 00de 0A4B     		ldr	r3, .L18+20	@ tmp133,
 424 00e0 1B68     		ldr	r3, [r3]	@ D.6309, myGpio
 425 00e2 002B     		cmp	r3, #0	@ D.6309,
 426 00e4 01D1     		bne	.L17	@,
 427              	.L16:
 129:./source/appConfig.c ****     {
 130:./source/appConfig.c ****         APP_DEBUG("Error in Initializing GPIO!\n");
 131:./source/appConfig.c ****         return -1;
 428              		.loc 1 131 0 is_stmt 1
 429 00e6 FF23     		movs	r3, #255	@ D.6306,
 430 00e8 00E0     		b	.L15	@
 431              	.L17:
 132:./source/appConfig.c ****     }
 133:./source/appConfig.c ****     else
 134:./source/appConfig.c ****     {
 135:./source/appConfig.c ****         APP_DEBUG("GPIO Initialized!\n");
ARM GAS  /tmp/ccJSKCFq.s 			page 11


 136:./source/appConfig.c ****     }
 137:./source/appConfig.c **** 
 138:./source/appConfig.c ****     return 0;
 432              		.loc 1 138 0
 433 00ea 0023     		movs	r3, #0	@ D.6306,
 434              	.L15:
 435 00ec 5BB2     		sxtb	r3, r3	@ tmp135, D.6306
 139:./source/appConfig.c **** }
 436              		.loc 1 139 0
 437 00ee 1846     		mov	r0, r3	@, <retval>
 438 00f0 08BD     		pop	{r3, pc}	@
 439              	.L19:
 440 00f2 00BF     		.align	2
 441              	.L18:
 442 00f4 00000000 		.word	myClockCfg
 443 00f8 00000000 		.word	myClock
 444 00fc 00000000 		.word	uart_Config
 445 0100 00000000 		.word	myUART
 446 0104 00000000 		.word	myGpioCfg
 447 0108 00000000 		.word	myGpio
 448 010c 00000000 		.word	LED_Config
 449 0110 00000000 		.word	LED
 450 0114 00000000 		.word	myLED_Config
 451 0118 00000000 		.word	myLED
 452 011c 00000000 		.word	Switch_Config
 453 0120 00000000 		.word	Switch
 454 0124 00000000 		.word	i2cConfig
 455 0128 00000000 		.word	i2cDevice
 456              		.cfi_endproc
 457              	.LFE43:
 458              		.size	appInit, .-appInit
 459              	.Letext0:
 460              		.file 2 "/usr/include/newlib/machine/_default_types.h"
 461              		.file 3 "/usr/include/newlib/sys/_stdint.h"
 462              		.file 4 "../pcf/include/../../epcf/./common/types.h"
 463              		.file 5 "../pcf/include/../../epcf/./common/portpin.h"
 464              		.file 6 "./include/../../epcf/peripheral/include/./sysClk/sysClk.h"
 465              		.file 7 "./include/../../epcf/peripheral/include/./gpio/gpio.h"
 466              		.file 8 "./include/../../epcf/peripheral/include/./uart/uart.h"
 467              		.file 9 "./include/../../epcf/native/port/arm/cm3/nxp/lpc1768/include/uart/uart_lpc1768_config.h"
 468              		.file 10 "./include/../../epcf/peripheral/include/./i2c/i2c.h"
 469              		.file 11 "../pcf/include/private/arch/arm/cm3/nxp/lpc1768/./../../../../arm/cm3/nxp/lpc1768/lpc176
 470              		.section	.debug_info,"",%progbits
 471              	.Ldebug_info0:
 472 0000 E1070000 		.4byte	0x7e1
 473 0004 0200     		.2byte	0x2
 474 0006 00000000 		.4byte	.Ldebug_abbrev0
 475 000a 04       		.byte	0x4
 476 000b 01       		.uleb128 0x1
 477 000c 0D040000 		.4byte	.LASF155
 478 0010 01       		.byte	0x1
 479 0011 8E080000 		.4byte	.LASF156
 480 0015 CE010000 		.4byte	.LASF157
 481 0019 00000000 		.4byte	.Ltext0
 482 001d 2C010000 		.4byte	.Letext0
 483 0021 00000000 		.4byte	.Ldebug_line0
 484 0025 02       		.uleb128 0x2
ARM GAS  /tmp/ccJSKCFq.s 			page 12


 485 0026 04       		.byte	0x4
 486 0027 07       		.byte	0x7
 487 0028 E0030000 		.4byte	.LASF0
 488 002c 03       		.uleb128 0x3
 489 002d 04       		.byte	0x4
 490 002e 05       		.byte	0x5
 491 002f 696E7400 		.ascii	"int\000"
 492 0033 04       		.uleb128 0x4
 493 0034 48010000 		.4byte	.LASF2
 494 0038 02       		.byte	0x2
 495 0039 1B       		.byte	0x1b
 496 003a 3E000000 		.4byte	0x3e
 497 003e 02       		.uleb128 0x2
 498 003f 01       		.byte	0x1
 499 0040 06       		.byte	0x6
 500 0041 9F010000 		.4byte	.LASF1
 501 0045 04       		.uleb128 0x4
 502 0046 8D000000 		.4byte	.LASF3
 503 004a 02       		.byte	0x2
 504 004b 1D       		.byte	0x1d
 505 004c 50000000 		.4byte	0x50
 506 0050 02       		.uleb128 0x2
 507 0051 01       		.byte	0x1
 508 0052 08       		.byte	0x8
 509 0053 06070000 		.4byte	.LASF4
 510 0057 02       		.uleb128 0x2
 511 0058 02       		.byte	0x2
 512 0059 05       		.byte	0x5
 513 005a 39070000 		.4byte	.LASF5
 514 005e 04       		.uleb128 0x4
 515 005f C5080000 		.4byte	.LASF6
 516 0063 02       		.byte	0x2
 517 0064 2B       		.byte	0x2b
 518 0065 69000000 		.4byte	0x69
 519 0069 02       		.uleb128 0x2
 520 006a 02       		.byte	0x2
 521 006b 07       		.byte	0x7
 522 006c 33090000 		.4byte	.LASF7
 523 0070 04       		.uleb128 0x4
 524 0071 E6080000 		.4byte	.LASF8
 525 0075 02       		.byte	0x2
 526 0076 3F       		.byte	0x3f
 527 0077 7B000000 		.4byte	0x7b
 528 007b 02       		.uleb128 0x2
 529 007c 04       		.byte	0x4
 530 007d 05       		.byte	0x5
 531 007e A8020000 		.4byte	.LASF9
 532 0082 04       		.uleb128 0x4
 533 0083 99030000 		.4byte	.LASF10
 534 0087 02       		.byte	0x2
 535 0088 41       		.byte	0x41
 536 0089 8D000000 		.4byte	0x8d
 537 008d 02       		.uleb128 0x2
 538 008e 04       		.byte	0x4
 539 008f 07       		.byte	0x7
 540 0090 8D040000 		.4byte	.LASF11
 541 0094 02       		.uleb128 0x2
ARM GAS  /tmp/ccJSKCFq.s 			page 13


 542 0095 08       		.byte	0x8
 543 0096 05       		.byte	0x5
 544 0097 91010000 		.4byte	.LASF12
 545 009b 02       		.uleb128 0x2
 546 009c 08       		.byte	0x8
 547 009d 07       		.byte	0x7
 548 009e D5000000 		.4byte	.LASF13
 549 00a2 02       		.uleb128 0x2
 550 00a3 04       		.byte	0x4
 551 00a4 07       		.byte	0x7
 552 00a5 F1050000 		.4byte	.LASF14
 553 00a9 05       		.uleb128 0x5
 554 00aa 04       		.byte	0x4
 555 00ab 06       		.uleb128 0x6
 556 00ac 04       		.byte	0x4
 557 00ad B1000000 		.4byte	0xb1
 558 00b1 02       		.uleb128 0x2
 559 00b2 01       		.byte	0x1
 560 00b3 08       		.byte	0x8
 561 00b4 84080000 		.4byte	.LASF15
 562 00b8 04       		.uleb128 0x4
 563 00b9 5B090000 		.4byte	.LASF16
 564 00bd 03       		.byte	0x3
 565 00be 13       		.byte	0x13
 566 00bf 33000000 		.4byte	0x33
 567 00c3 04       		.uleb128 0x4
 568 00c4 F0090000 		.4byte	.LASF17
 569 00c8 03       		.byte	0x3
 570 00c9 14       		.byte	0x14
 571 00ca 45000000 		.4byte	0x45
 572 00ce 04       		.uleb128 0x4
 573 00cf 4F030000 		.4byte	.LASF18
 574 00d3 03       		.byte	0x3
 575 00d4 1A       		.byte	0x1a
 576 00d5 5E000000 		.4byte	0x5e
 577 00d9 04       		.uleb128 0x4
 578 00da FE060000 		.4byte	.LASF19
 579 00de 03       		.byte	0x3
 580 00df 1F       		.byte	0x1f
 581 00e0 70000000 		.4byte	0x70
 582 00e4 04       		.uleb128 0x4
 583 00e5 FF070000 		.4byte	.LASF20
 584 00e9 03       		.byte	0x3
 585 00ea 20       		.byte	0x20
 586 00eb 82000000 		.4byte	0x82
 587 00ef 02       		.uleb128 0x2
 588 00f0 04       		.byte	0x4
 589 00f1 04       		.byte	0x4
 590 00f2 B3060000 		.4byte	.LASF21
 591 00f6 07       		.uleb128 0x7
 592 00f7 01       		.byte	0x1
 593 00f8 04       		.byte	0x4
 594 00f9 06       		.byte	0x6
 595 00fa 11010000 		.4byte	0x111
 596 00fe 08       		.uleb128 0x8
 597 00ff 8B060000 		.4byte	.LASF22
 598 0103 00       		.sleb128 0
ARM GAS  /tmp/ccJSKCFq.s 			page 14


 599 0104 08       		.uleb128 0x8
 600 0105 EC070000 		.4byte	.LASF23
 601 0109 01       		.sleb128 1
 602 010a 08       		.uleb128 0x8
 603 010b BE040000 		.4byte	.LASF24
 604 010f 02       		.sleb128 2
 605 0110 00       		.byte	0
 606 0111 04       		.uleb128 0x4
 607 0112 24050000 		.4byte	.LASF25
 608 0116 04       		.byte	0x4
 609 0117 0A       		.byte	0xa
 610 0118 F6000000 		.4byte	0xf6
 611 011c 07       		.uleb128 0x7
 612 011d 01       		.byte	0x1
 613 011e 04       		.byte	0x4
 614 011f 12       		.byte	0x12
 615 0120 43010000 		.4byte	0x143
 616 0124 08       		.uleb128 0x8
 617 0125 9F0A0000 		.4byte	.LASF26
 618 0129 00       		.sleb128 0
 619 012a 08       		.uleb128 0x8
 620 012b F8090000 		.4byte	.LASF27
 621 012f 01       		.sleb128 1
 622 0130 08       		.uleb128 0x8
 623 0131 7D090000 		.4byte	.LASF28
 624 0135 02       		.sleb128 2
 625 0136 08       		.uleb128 0x8
 626 0137 1A010000 		.4byte	.LASF29
 627 013b 03       		.sleb128 3
 628 013c 08       		.uleb128 0x8
 629 013d 88050000 		.4byte	.LASF30
 630 0141 04       		.sleb128 4
 631 0142 00       		.byte	0
 632 0143 04       		.uleb128 0x4
 633 0144 08080000 		.4byte	.LASF31
 634 0148 04       		.byte	0x4
 635 0149 18       		.byte	0x18
 636 014a 1C010000 		.4byte	0x11c
 637 014e 09       		.uleb128 0x9
 638 014f 08       		.byte	0x8
 639 0150 04       		.byte	0x4
 640 0151 1D       		.byte	0x1d
 641 0152 73010000 		.4byte	0x173
 642 0156 0A       		.uleb128 0xa
 643 0157 0F000000 		.4byte	.LASF32
 644 015b 04       		.byte	0x4
 645 015c 1F       		.byte	0x1f
 646 015d E4000000 		.4byte	0xe4
 647 0161 02       		.byte	0x2
 648 0162 23       		.byte	0x23
 649 0163 00       		.uleb128 0
 650 0164 0A       		.uleb128 0xa
 651 0165 97000000 		.4byte	.LASF33
 652 0169 04       		.byte	0x4
 653 016a 20       		.byte	0x20
 654 016b 43010000 		.4byte	0x143
 655 016f 02       		.byte	0x2
ARM GAS  /tmp/ccJSKCFq.s 			page 15


 656 0170 23       		.byte	0x23
 657 0171 04       		.uleb128 0x4
 658 0172 00       		.byte	0
 659 0173 04       		.uleb128 0x4
 660 0174 71010000 		.4byte	.LASF34
 661 0178 04       		.byte	0x4
 662 0179 21       		.byte	0x21
 663 017a 4E010000 		.4byte	0x14e
 664 017e 09       		.uleb128 0x9
 665 017f 02       		.byte	0x2
 666 0180 05       		.byte	0x5
 667 0181 47       		.byte	0x47
 668 0182 A3010000 		.4byte	0x1a3
 669 0186 0A       		.uleb128 0xa
 670 0187 DB030000 		.4byte	.LASF35
 671 018b 05       		.byte	0x5
 672 018c 49       		.byte	0x49
 673 018d C3000000 		.4byte	0xc3
 674 0191 02       		.byte	0x2
 675 0192 23       		.byte	0x23
 676 0193 00       		.uleb128 0
 677 0194 0B       		.uleb128 0xb
 678 0195 70696E00 		.ascii	"pin\000"
 679 0199 05       		.byte	0x5
 680 019a 4A       		.byte	0x4a
 681 019b C3000000 		.4byte	0xc3
 682 019f 02       		.byte	0x2
 683 01a0 23       		.byte	0x23
 684 01a1 01       		.uleb128 0x1
 685 01a2 00       		.byte	0
 686 01a3 04       		.uleb128 0x4
 687 01a4 F7040000 		.4byte	.LASF36
 688 01a8 05       		.byte	0x5
 689 01a9 4B       		.byte	0x4b
 690 01aa 7E010000 		.4byte	0x17e
 691 01ae 04       		.uleb128 0x4
 692 01af D5020000 		.4byte	.LASF37
 693 01b3 06       		.byte	0x6
 694 01b4 09       		.byte	0x9
 695 01b5 B9010000 		.4byte	0x1b9
 696 01b9 0C       		.uleb128 0xc
 697 01ba 14060000 		.4byte	.LASF48
 698 01be 01       		.byte	0x1
 699 01bf 0D       		.uleb128 0xd
 700 01c0 D0040000 		.4byte	.LASF50
 701 01c4 01       		.byte	0x1
 702 01c5 06       		.byte	0x6
 703 01c6 0C       		.byte	0xc
 704 01c7 E4010000 		.4byte	0x1e4
 705 01cb 08       		.uleb128 0x8
 706 01cc 25080000 		.4byte	.LASF38
 707 01d0 00       		.sleb128 0
 708 01d1 08       		.uleb128 0x8
 709 01d2 1C090000 		.4byte	.LASF39
 710 01d6 01       		.sleb128 1
 711 01d7 08       		.uleb128 0x8
 712 01d8 BF020000 		.4byte	.LASF40
ARM GAS  /tmp/ccJSKCFq.s 			page 16


 713 01dc 02       		.sleb128 2
 714 01dd 08       		.uleb128 0x8
 715 01de DF090000 		.4byte	.LASF41
 716 01e2 03       		.sleb128 3
 717 01e3 00       		.byte	0
 718 01e4 04       		.uleb128 0x4
 719 01e5 2E0A0000 		.4byte	.LASF42
 720 01e9 06       		.byte	0x6
 721 01ea 12       		.byte	0x12
 722 01eb BF010000 		.4byte	0x1bf
 723 01ef 0E       		.uleb128 0xe
 724 01f0 B0040000 		.4byte	.LASF112
 725 01f4 0C       		.byte	0xc
 726 01f5 06       		.byte	0x6
 727 01f6 1F       		.byte	0x1f
 728 01f7 26020000 		.4byte	0x226
 729 01fb 0A       		.uleb128 0xa
 730 01fc 3B060000 		.4byte	.LASF43
 731 0200 06       		.byte	0x6
 732 0201 21       		.byte	0x21
 733 0202 E4000000 		.4byte	0xe4
 734 0206 02       		.byte	0x2
 735 0207 23       		.byte	0x23
 736 0208 00       		.uleb128 0
 737 0209 0A       		.uleb128 0xa
 738 020a DD040000 		.4byte	.LASF44
 739 020e 06       		.byte	0x6
 740 020f 22       		.byte	0x22
 741 0210 E4000000 		.4byte	0xe4
 742 0214 02       		.byte	0x2
 743 0215 23       		.byte	0x23
 744 0216 04       		.uleb128 0x4
 745 0217 0A       		.uleb128 0xa
 746 0218 ED040000 		.4byte	.LASF45
 747 021c 06       		.byte	0x6
 748 021d 23       		.byte	0x23
 749 021e E4010000 		.4byte	0x1e4
 750 0222 02       		.byte	0x2
 751 0223 23       		.byte	0x23
 752 0224 08       		.uleb128 0x8
 753 0225 00       		.byte	0
 754 0226 04       		.uleb128 0x4
 755 0227 1E0A0000 		.4byte	.LASF46
 756 022b 06       		.byte	0x6
 757 022c 24       		.byte	0x24
 758 022d EF010000 		.4byte	0x1ef
 759 0231 04       		.uleb128 0x4
 760 0232 B9060000 		.4byte	.LASF47
 761 0236 07       		.byte	0x7
 762 0237 0A       		.byte	0xa
 763 0238 3C020000 		.4byte	0x23c
 764 023c 0C       		.uleb128 0xc
 765 023d 46090000 		.4byte	.LASF49
 766 0241 01       		.byte	0x1
 767 0242 0D       		.uleb128 0xd
 768 0243 9F060000 		.4byte	.LASF51
 769 0247 01       		.byte	0x1
ARM GAS  /tmp/ccJSKCFq.s 			page 17


 770 0248 07       		.byte	0x7
 771 0249 0D       		.byte	0xd
 772 024a 67020000 		.4byte	0x267
 773 024e 08       		.uleb128 0x8
 774 024f FA050000 		.4byte	.LASF52
 775 0253 00       		.sleb128 0
 776 0254 08       		.uleb128 0x8
 777 0255 43020000 		.4byte	.LASF53
 778 0259 01       		.sleb128 1
 779 025a 08       		.uleb128 0x8
 780 025b A4030000 		.4byte	.LASF54
 781 025f 02       		.sleb128 2
 782 0260 08       		.uleb128 0x8
 783 0261 A6000000 		.4byte	.LASF55
 784 0265 03       		.sleb128 3
 785 0266 00       		.byte	0
 786 0267 04       		.uleb128 0x4
 787 0268 DB050000 		.4byte	.LASF56
 788 026c 07       		.byte	0x7
 789 026d 13       		.byte	0x13
 790 026e 42020000 		.4byte	0x242
 791 0272 0D       		.uleb128 0xd
 792 0273 14070000 		.4byte	.LASF57
 793 0277 01       		.byte	0x1
 794 0278 07       		.byte	0x7
 795 0279 16       		.byte	0x16
 796 027a 9D020000 		.4byte	0x29d
 797 027e 08       		.uleb128 0x8
 798 027f EC000000 		.4byte	.LASF58
 799 0283 00       		.sleb128 0
 800 0284 08       		.uleb128 0x8
 801 0285 C0050000 		.4byte	.LASF59
 802 0289 01       		.sleb128 1
 803 028a 08       		.uleb128 0x8
 804 028b 93070000 		.4byte	.LASF60
 805 028f 02       		.sleb128 2
 806 0290 08       		.uleb128 0x8
 807 0291 6E070000 		.4byte	.LASF61
 808 0295 03       		.sleb128 3
 809 0296 08       		.uleb128 0x8
 810 0297 0C020000 		.4byte	.LASF62
 811 029b 04       		.sleb128 4
 812 029c 00       		.byte	0
 813 029d 04       		.uleb128 0x4
 814 029e 0A0A0000 		.4byte	.LASF63
 815 02a2 07       		.byte	0x7
 816 02a3 1D       		.byte	0x1d
 817 02a4 72020000 		.4byte	0x272
 818 02a8 0D       		.uleb128 0xd
 819 02a9 5E020000 		.4byte	.LASF64
 820 02ad 01       		.byte	0x1
 821 02ae 07       		.byte	0x7
 822 02af 20       		.byte	0x20
 823 02b0 C7020000 		.4byte	0x2c7
 824 02b4 08       		.uleb128 0x8
 825 02b5 53080000 		.4byte	.LASF65
 826 02b9 00       		.sleb128 0
ARM GAS  /tmp/ccJSKCFq.s 			page 18


 827 02ba 08       		.uleb128 0x8
 828 02bb 62090000 		.4byte	.LASF66
 829 02bf 01       		.sleb128 1
 830 02c0 08       		.uleb128 0x8
 831 02c1 90020000 		.4byte	.LASF67
 832 02c5 02       		.sleb128 2
 833 02c6 00       		.byte	0
 834 02c7 04       		.uleb128 0x4
 835 02c8 25060000 		.4byte	.LASF68
 836 02cc 07       		.byte	0x7
 837 02cd 25       		.byte	0x25
 838 02ce A8020000 		.4byte	0x2a8
 839 02d2 07       		.uleb128 0x7
 840 02d3 01       		.byte	0x1
 841 02d4 07       		.byte	0x7
 842 02d5 29       		.byte	0x29
 843 02d6 FF020000 		.4byte	0x2ff
 844 02da 08       		.uleb128 0x8
 845 02db 19030000 		.4byte	.LASF69
 846 02df 00       		.sleb128 0
 847 02e0 08       		.uleb128 0x8
 848 02e1 2B000000 		.4byte	.LASF70
 849 02e5 01       		.sleb128 1
 850 02e6 08       		.uleb128 0x8
 851 02e7 B2070000 		.4byte	.LASF71
 852 02eb 02       		.sleb128 2
 853 02ec 08       		.uleb128 0x8
 854 02ed 72000000 		.4byte	.LASF72
 855 02f1 03       		.sleb128 3
 856 02f2 08       		.uleb128 0x8
 857 02f3 00090000 		.4byte	.LASF73
 858 02f7 04       		.sleb128 4
 859 02f8 08       		.uleb128 0x8
 860 02f9 ED030000 		.4byte	.LASF74
 861 02fd 05       		.sleb128 5
 862 02fe 00       		.byte	0
 863 02ff 04       		.uleb128 0x4
 864 0300 3F080000 		.4byte	.LASF75
 865 0304 07       		.byte	0x7
 866 0305 30       		.byte	0x30
 867 0306 D2020000 		.4byte	0x2d2
 868 030a 09       		.uleb128 0x9
 869 030b 0C       		.byte	0xc
 870 030c 07       		.byte	0x7
 871 030d 3B       		.byte	0x3b
 872 030e 75030000 		.4byte	0x375
 873 0312 0A       		.uleb128 0xa
 874 0313 F6060000 		.4byte	.LASF76
 875 0317 07       		.byte	0x7
 876 0318 3D       		.byte	0x3d
 877 0319 A3010000 		.4byte	0x1a3
 878 031d 02       		.byte	0x2
 879 031e 23       		.byte	0x23
 880 031f 00       		.uleb128 0
 881 0320 0A       		.uleb128 0xa
 882 0321 9C000000 		.4byte	.LASF77
 883 0325 07       		.byte	0x7
ARM GAS  /tmp/ccJSKCFq.s 			page 19


 884 0326 3E       		.byte	0x3e
 885 0327 67020000 		.4byte	0x267
 886 032b 02       		.byte	0x2
 887 032c 23       		.byte	0x23
 888 032d 02       		.uleb128 0x2
 889 032e 0A       		.uleb128 0xa
 890 032f 89080000 		.4byte	.LASF78
 891 0333 07       		.byte	0x7
 892 0334 3F       		.byte	0x3f
 893 0335 9D020000 		.4byte	0x29d
 894 0339 02       		.byte	0x2
 895 033a 23       		.byte	0x23
 896 033b 03       		.uleb128 0x3
 897 033c 0A       		.uleb128 0xa
 898 033d 540A0000 		.4byte	.LASF79
 899 0341 07       		.byte	0x7
 900 0342 40       		.byte	0x40
 901 0343 C7020000 		.4byte	0x2c7
 902 0347 02       		.byte	0x2
 903 0348 23       		.byte	0x23
 904 0349 04       		.uleb128 0x4
 905 034a 0A       		.uleb128 0xa
 906 034b 05050000 		.4byte	.LASF80
 907 034f 07       		.byte	0x7
 908 0350 41       		.byte	0x41
 909 0351 11010000 		.4byte	0x111
 910 0355 02       		.byte	0x2
 911 0356 23       		.byte	0x23
 912 0357 05       		.uleb128 0x5
 913 0358 0A       		.uleb128 0xa
 914 0359 E5040000 		.4byte	.LASF81
 915 035d 07       		.byte	0x7
 916 035e 42       		.byte	0x42
 917 035f FF020000 		.4byte	0x2ff
 918 0363 02       		.byte	0x2
 919 0364 23       		.byte	0x23
 920 0365 06       		.uleb128 0x6
 921 0366 0A       		.uleb128 0xa
 922 0367 A5090000 		.4byte	.LASF82
 923 036b 07       		.byte	0x7
 924 036c 43       		.byte	0x43
 925 036d A9000000 		.4byte	0xa9
 926 0371 02       		.byte	0x2
 927 0372 23       		.byte	0x23
 928 0373 08       		.uleb128 0x8
 929 0374 00       		.byte	0
 930 0375 04       		.uleb128 0x4
 931 0376 B2050000 		.4byte	.LASF83
 932 037a 07       		.byte	0x7
 933 037b 44       		.byte	0x44
 934 037c 0A030000 		.4byte	0x30a
 935 0380 04       		.uleb128 0x4
 936 0381 9F040000 		.4byte	.LASF84
 937 0385 08       		.byte	0x8
 938 0386 0B       		.byte	0xb
 939 0387 8B030000 		.4byte	0x38b
 940 038b 0C       		.uleb128 0xc
ARM GAS  /tmp/ccJSKCFq.s 			page 20


 941 038c 5F070000 		.4byte	.LASF85
 942 0390 01       		.byte	0x1
 943 0391 07       		.uleb128 0x7
 944 0392 01       		.byte	0x1
 945 0393 08       		.byte	0x8
 946 0394 0F       		.byte	0xf
 947 0395 CA030000 		.4byte	0x3ca
 948 0399 08       		.uleb128 0x8
 949 039a 2B020000 		.4byte	.LASF86
 950 039e 00       		.sleb128 0
 951 039f 08       		.uleb128 0x8
 952 03a0 37030000 		.4byte	.LASF87
 953 03a4 01       		.sleb128 1
 954 03a5 08       		.uleb128 0x8
 955 03a6 5A000000 		.4byte	.LASF88
 956 03aa 02       		.sleb128 2
 957 03ab 08       		.uleb128 0x8
 958 03ac 3D050000 		.4byte	.LASF89
 959 03b0 03       		.sleb128 3
 960 03b1 08       		.uleb128 0x8
 961 03b2 56050000 		.4byte	.LASF90
 962 03b6 04       		.sleb128 4
 963 03b7 08       		.uleb128 0x8
 964 03b8 6F050000 		.4byte	.LASF91
 965 03bc 05       		.sleb128 5
 966 03bd 08       		.uleb128 0x8
 967 03be E8020000 		.4byte	.LASF92
 968 03c2 06       		.sleb128 6
 969 03c3 08       		.uleb128 0x8
 970 03c4 02030000 		.4byte	.LASF93
 971 03c8 07       		.sleb128 7
 972 03c9 00       		.byte	0
 973 03ca 04       		.uleb128 0x4
 974 03cb 6F030000 		.4byte	.LASF94
 975 03cf 08       		.byte	0x8
 976 03d0 18       		.byte	0x18
 977 03d1 91030000 		.4byte	0x391
 978 03d5 07       		.uleb128 0x7
 979 03d6 01       		.byte	0x1
 980 03d7 08       		.byte	0x8
 981 03d8 1C       		.byte	0x1c
 982 03d9 FC030000 		.4byte	0x3fc
 983 03dd 08       		.uleb128 0x8
 984 03de BE030000 		.4byte	.LASF95
 985 03e2 05       		.sleb128 5
 986 03e3 08       		.uleb128 0x8
 987 03e4 AB010000 		.4byte	.LASF96
 988 03e8 06       		.sleb128 6
 989 03e9 08       		.uleb128 0x8
 990 03ea B10A0000 		.4byte	.LASF97
 991 03ee 07       		.sleb128 7
 992 03ef 08       		.uleb128 0x8
 993 03f0 C60A0000 		.4byte	.LASF98
 994 03f4 08       		.sleb128 8
 995 03f5 08       		.uleb128 0x8
 996 03f6 3D0A0000 		.4byte	.LASF99
 997 03fa 09       		.sleb128 9
ARM GAS  /tmp/ccJSKCFq.s 			page 21


 998 03fb 00       		.byte	0
 999 03fc 04       		.uleb128 0x4
 1000 03fd 7C010000 		.4byte	.LASF100
 1001 0401 08       		.byte	0x8
 1002 0402 22       		.byte	0x22
 1003 0403 D5030000 		.4byte	0x3d5
 1004 0407 07       		.uleb128 0x7
 1005 0408 01       		.byte	0x1
 1006 0409 08       		.byte	0x8
 1007 040a 26       		.byte	0x26
 1008 040b 34040000 		.4byte	0x434
 1009 040f 08       		.uleb128 0x8
 1010 0410 730A0000 		.4byte	.LASF101
 1011 0414 00       		.sleb128 0
 1012 0415 08       		.uleb128 0x8
 1013 0416 D7060000 		.4byte	.LASF102
 1014 041a 01       		.sleb128 1
 1015 041b 08       		.uleb128 0x8
 1016 041c 45060000 		.4byte	.LASF103
 1017 0420 02       		.sleb128 2
 1018 0421 08       		.uleb128 0x8
 1019 0422 0F050000 		.4byte	.LASF104
 1020 0426 03       		.sleb128 3
 1021 0427 08       		.uleb128 0x8
 1022 0428 15000000 		.4byte	.LASF105
 1023 042c 04       		.sleb128 4
 1024 042d 08       		.uleb128 0x8
 1025 042e 05010000 		.4byte	.LASF106
 1026 0432 05       		.sleb128 5
 1027 0433 00       		.byte	0
 1028 0434 04       		.uleb128 0x4
 1029 0435 5E010000 		.4byte	.LASF107
 1030 0439 08       		.byte	0x8
 1031 043a 2D       		.byte	0x2d
 1032 043b 07040000 		.4byte	0x407
 1033 043f 07       		.uleb128 0x7
 1034 0440 01       		.byte	0x1
 1035 0441 08       		.byte	0x8
 1036 0442 31       		.byte	0x31
 1037 0443 5A040000 		.4byte	0x45a
 1038 0447 08       		.uleb128 0x8
 1039 0448 CA090000 		.4byte	.LASF108
 1040 044c 01       		.sleb128 1
 1041 044d 08       		.uleb128 0x8
 1042 044e 6F080000 		.4byte	.LASF109
 1043 0452 02       		.sleb128 2
 1044 0453 08       		.uleb128 0x8
 1045 0454 5B060000 		.4byte	.LASF110
 1046 0458 03       		.sleb128 3
 1047 0459 00       		.byte	0
 1048 045a 04       		.uleb128 0x4
 1049 045b 5E0A0000 		.4byte	.LASF111
 1050 045f 08       		.byte	0x8
 1051 0460 35       		.byte	0x35
 1052 0461 3F040000 		.4byte	0x43f
 1053 0465 0E       		.uleb128 0xe
 1054 0466 E0070000 		.4byte	.LASF113
ARM GAS  /tmp/ccJSKCFq.s 			page 22


 1055 046a 14       		.byte	0x14
 1056 046b 08       		.byte	0x8
 1057 046c 3E       		.byte	0x3e
 1058 046d F0040000 		.4byte	0x4f0
 1059 0471 0A       		.uleb128 0xa
 1060 0472 DF080000 		.4byte	.LASF114
 1061 0476 08       		.byte	0x8
 1062 0477 40       		.byte	0x40
 1063 0478 C3000000 		.4byte	0xc3
 1064 047c 02       		.byte	0x2
 1065 047d 23       		.byte	0x23
 1066 047e 00       		.uleb128 0
 1067 047f 0A       		.uleb128 0xa
 1068 0480 22020000 		.4byte	.LASF115
 1069 0484 08       		.byte	0x8
 1070 0485 42       		.byte	0x42
 1071 0486 CA030000 		.4byte	0x3ca
 1072 048a 02       		.byte	0x2
 1073 048b 23       		.byte	0x23
 1074 048c 01       		.uleb128 0x1
 1075 048d 0A       		.uleb128 0xa
 1076 048e 34050000 		.4byte	.LASF116
 1077 0492 08       		.byte	0x8
 1078 0493 44       		.byte	0x44
 1079 0494 FC030000 		.4byte	0x3fc
 1080 0498 02       		.byte	0x2
 1081 0499 23       		.byte	0x23
 1082 049a 02       		.uleb128 0x2
 1083 049b 0A       		.uleb128 0xa
 1084 049c 84030000 		.4byte	.LASF117
 1085 04a0 08       		.byte	0x8
 1086 04a1 46       		.byte	0x46
 1087 04a2 34040000 		.4byte	0x434
 1088 04a6 02       		.byte	0x2
 1089 04a7 23       		.byte	0x23
 1090 04a8 03       		.uleb128 0x3
 1091 04a9 0A       		.uleb128 0xa
 1092 04aa D0080000 		.4byte	.LASF118
 1093 04ae 08       		.byte	0x8
 1094 04af 48       		.byte	0x48
 1095 04b0 5A040000 		.4byte	0x45a
 1096 04b4 02       		.byte	0x2
 1097 04b5 23       		.byte	0x23
 1098 04b6 04       		.uleb128 0x4
 1099 04b7 0A       		.uleb128 0xa
 1100 04b8 7D040000 		.4byte	.LASF119
 1101 04bc 08       		.byte	0x8
 1102 04bd 4A       		.byte	0x4a
 1103 04be 11010000 		.4byte	0x111
 1104 04c2 02       		.byte	0x2
 1105 04c3 23       		.byte	0x23
 1106 04c4 05       		.uleb128 0x5
 1107 04c5 0A       		.uleb128 0xa
 1108 04c6 BE000000 		.4byte	.LASF120
 1109 04ca 08       		.byte	0x8
 1110 04cb 4C       		.byte	0x4c
 1111 04cc E4000000 		.4byte	0xe4
ARM GAS  /tmp/ccJSKCFq.s 			page 23


 1112 04d0 02       		.byte	0x2
 1113 04d1 23       		.byte	0x23
 1114 04d2 08       		.uleb128 0x8
 1115 04d3 0A       		.uleb128 0xa
 1116 04d4 26070000 		.4byte	.LASF121
 1117 04d8 08       		.byte	0x8
 1118 04d9 4F       		.byte	0x4f
 1119 04da E4000000 		.4byte	0xe4
 1120 04de 02       		.byte	0x2
 1121 04df 23       		.byte	0x23
 1122 04e0 0C       		.uleb128 0xc
 1123 04e1 0A       		.uleb128 0xa
 1124 04e2 A5090000 		.4byte	.LASF82
 1125 04e6 08       		.byte	0x8
 1126 04e7 52       		.byte	0x52
 1127 04e8 A9000000 		.4byte	0xa9
 1128 04ec 02       		.byte	0x2
 1129 04ed 23       		.byte	0x23
 1130 04ee 10       		.uleb128 0x10
 1131 04ef 00       		.byte	0
 1132 04f0 04       		.uleb128 0x4
 1133 04f1 B1020000 		.4byte	.LASF122
 1134 04f5 08       		.byte	0x8
 1135 04f6 53       		.byte	0x53
 1136 04f7 65040000 		.4byte	0x465
 1137 04fb 0E       		.uleb128 0xe
 1138 04fc CD070000 		.4byte	.LASF123
 1139 0500 04       		.byte	0x4
 1140 0501 09       		.byte	0x9
 1141 0502 0B       		.byte	0xb
 1142 0503 24050000 		.4byte	0x524
 1143 0507 0A       		.uleb128 0xa
 1144 0508 EC060000 		.4byte	.LASF124
 1145 050c 09       		.byte	0x9
 1146 050d 0D       		.byte	0xd
 1147 050e A3010000 		.4byte	0x1a3
 1148 0512 02       		.byte	0x2
 1149 0513 23       		.byte	0x23
 1150 0514 00       		.uleb128 0
 1151 0515 0A       		.uleb128 0xa
 1152 0516 8F090000 		.4byte	.LASF125
 1153 051a 09       		.byte	0x9
 1154 051b 0E       		.byte	0xe
 1155 051c A3010000 		.4byte	0x1a3
 1156 0520 02       		.byte	0x2
 1157 0521 23       		.byte	0x23
 1158 0522 02       		.uleb128 0x2
 1159 0523 00       		.byte	0
 1160 0524 04       		.uleb128 0x4
 1161 0525 B0080000 		.4byte	.LASF126
 1162 0529 09       		.byte	0x9
 1163 052a 0F       		.byte	0xf
 1164 052b FB040000 		.4byte	0x4fb
 1165 052f 04       		.uleb128 0x4
 1166 0530 F0080000 		.4byte	.LASF127
 1167 0534 0A       		.byte	0xa
 1168 0535 0A       		.byte	0xa
ARM GAS  /tmp/ccJSKCFq.s 			page 24


 1169 0536 3A050000 		.4byte	0x53a
 1170 053a 0C       		.uleb128 0xc
 1171 053b C0010000 		.4byte	.LASF128
 1172 053f 01       		.byte	0x1
 1173 0540 07       		.uleb128 0x7
 1174 0541 01       		.byte	0x1
 1175 0542 0A       		.byte	0xa
 1176 0543 0E       		.byte	0xe
 1177 0544 5B050000 		.4byte	0x55b
 1178 0548 08       		.uleb128 0x8
 1179 0549 890A0000 		.4byte	.LASF129
 1180 054d 00       		.sleb128 0
 1181 054e 08       		.uleb128 0x8
 1182 054f 9B050000 		.4byte	.LASF130
 1183 0553 01       		.sleb128 1
 1184 0554 08       		.uleb128 0x8
 1185 0555 B1090000 		.4byte	.LASF131
 1186 0559 02       		.sleb128 2
 1187 055a 00       		.byte	0
 1188 055b 04       		.uleb128 0x4
 1189 055c 2B010000 		.4byte	.LASF132
 1190 0560 0A       		.byte	0xa
 1191 0561 12       		.byte	0x12
 1192 0562 40050000 		.4byte	0x540
 1193 0566 09       		.uleb128 0x9
 1194 0567 28       		.byte	0x28
 1195 0568 0A       		.byte	0xa
 1196 0569 36       		.byte	0x36
 1197 056a FB050000 		.4byte	0x5fb
 1198 056e 0A       		.uleb128 0xa
 1199 056f 55090000 		.4byte	.LASF133
 1200 0573 0A       		.byte	0xa
 1201 0574 38       		.byte	0x38
 1202 0575 C3000000 		.4byte	0xc3
 1203 0579 02       		.byte	0x2
 1204 057a 23       		.byte	0x23
 1205 057b 00       		.uleb128 0
 1206 057c 0A       		.uleb128 0xa
 1207 057d 22020000 		.4byte	.LASF115
 1208 0581 0A       		.byte	0xa
 1209 0582 3A       		.byte	0x3a
 1210 0583 E4000000 		.4byte	0xe4
 1211 0587 02       		.byte	0x2
 1212 0588 23       		.byte	0x23
 1213 0589 04       		.uleb128 0x4
 1214 058a 0A       		.uleb128 0xa
 1215 058b 63030000 		.4byte	.LASF134
 1216 058f 0A       		.byte	0xa
 1217 0590 3E       		.byte	0x3e
 1218 0591 5B050000 		.4byte	0x55b
 1219 0595 02       		.byte	0x2
 1220 0596 23       		.byte	0x23
 1221 0597 08       		.uleb128 0x8
 1222 0598 0A       		.uleb128 0xa
 1223 0599 58030000 		.4byte	.LASF135
 1224 059d 0A       		.byte	0xa
 1225 059e 40       		.byte	0x40
ARM GAS  /tmp/ccJSKCFq.s 			page 25


 1226 059f FB050000 		.4byte	0x5fb
 1227 05a3 02       		.byte	0x2
 1228 05a4 23       		.byte	0x23
 1229 05a5 0A       		.uleb128 0xa
 1230 05a6 0A       		.uleb128 0xa
 1231 05a7 00000000 		.4byte	.LASF136
 1232 05ab 0A       		.byte	0xa
 1233 05ac 45       		.byte	0x45
 1234 05ad FB050000 		.4byte	0x5fb
 1235 05b1 02       		.byte	0x2
 1236 05b2 23       		.byte	0x23
 1237 05b3 12       		.uleb128 0x12
 1238 05b4 0A       		.uleb128 0xa
 1239 05b5 48000000 		.4byte	.LASF137
 1240 05b9 0A       		.byte	0xa
 1241 05ba 4C       		.byte	0x4c
 1242 05bb 11010000 		.4byte	0x111
 1243 05bf 02       		.byte	0x2
 1244 05c0 23       		.byte	0x23
 1245 05c1 1A       		.uleb128 0x1a
 1246 05c2 0A       		.uleb128 0xa
 1247 05c3 7D040000 		.4byte	.LASF119
 1248 05c7 0A       		.byte	0xa
 1249 05c8 51       		.byte	0x51
 1250 05c9 11010000 		.4byte	0x111
 1251 05cd 02       		.byte	0x2
 1252 05ce 23       		.byte	0x23
 1253 05cf 1B       		.uleb128 0x1b
 1254 05d0 0A       		.uleb128 0xa
 1255 05d1 BE000000 		.4byte	.LASF120
 1256 05d5 0A       		.byte	0xa
 1257 05d6 55       		.byte	0x55
 1258 05d7 E4000000 		.4byte	0xe4
 1259 05db 02       		.byte	0x2
 1260 05dc 23       		.byte	0x23
 1261 05dd 1C       		.uleb128 0x1c
 1262 05de 0A       		.uleb128 0xa
 1263 05df 26070000 		.4byte	.LASF121
 1264 05e3 0A       		.byte	0xa
 1265 05e4 58       		.byte	0x58
 1266 05e5 E4000000 		.4byte	0xe4
 1267 05e9 02       		.byte	0x2
 1268 05ea 23       		.byte	0x23
 1269 05eb 20       		.uleb128 0x20
 1270 05ec 0A       		.uleb128 0xa
 1271 05ed A5090000 		.4byte	.LASF82
 1272 05f1 0A       		.byte	0xa
 1273 05f2 5B       		.byte	0x5b
 1274 05f3 A9000000 		.4byte	0xa9
 1275 05f7 02       		.byte	0x2
 1276 05f8 23       		.byte	0x23
 1277 05f9 24       		.uleb128 0x24
 1278 05fa 00       		.byte	0
 1279 05fb 0F       		.uleb128 0xf
 1280 05fc CE000000 		.4byte	0xce
 1281 0600 0B060000 		.4byte	0x60b
 1282 0604 10       		.uleb128 0x10
ARM GAS  /tmp/ccJSKCFq.s 			page 26


 1283 0605 A2000000 		.4byte	0xa2
 1284 0609 03       		.byte	0x3
 1285 060a 00       		.byte	0
 1286 060b 04       		.uleb128 0x4
 1287 060c A3080000 		.4byte	.LASF138
 1288 0610 0A       		.byte	0xa
 1289 0611 5C       		.byte	0x5c
 1290 0612 66050000 		.4byte	0x566
 1291 0616 11       		.uleb128 0x11
 1292 0617 01       		.byte	0x1
 1293 0618 33070000 		.4byte	.LASF158
 1294 061c 01       		.byte	0x1
 1295 061d 60       		.byte	0x60
 1296 061e 01       		.byte	0x1
 1297 061f 00000000 		.4byte	.LFB40
 1298 0623 24000000 		.4byte	.LFE40
 1299 0627 00000000 		.4byte	.LLST0
 1300 062b 01       		.byte	0x1
 1301 062c 3F060000 		.4byte	0x63f
 1302 0630 12       		.uleb128 0x12
 1303 0631 D9080000 		.4byte	.LASF159
 1304 0635 01       		.byte	0x1
 1305 0636 62       		.byte	0x62
 1306 0637 E4000000 		.4byte	0xe4
 1307 063b 02       		.byte	0x2
 1308 063c 91       		.byte	0x91
 1309 063d 7C       		.sleb128 -4
 1310 063e 00       		.byte	0
 1311 063f 13       		.uleb128 0x13
 1312 0640 01       		.byte	0x1
 1313 0641 84020000 		.4byte	.LASF160
 1314 0645 01       		.byte	0x1
 1315 0646 66       		.byte	0x66
 1316 0647 24000000 		.4byte	.LFB41
 1317 064b 3C000000 		.4byte	.LFE41
 1318 064f 2C000000 		.4byte	.LLST1
 1319 0653 01       		.byte	0x1
 1320 0654 14       		.uleb128 0x14
 1321 0655 01       		.byte	0x1
 1322 0656 99090000 		.4byte	.LASF161
 1323 065a 01       		.byte	0x1
 1324 065b 6A       		.byte	0x6a
 1325 065c 01       		.byte	0x1
 1326 065d D9000000 		.4byte	0xd9
 1327 0661 3C000000 		.4byte	.LFB42
 1328 0665 68000000 		.4byte	.LFE42
 1329 0669 4C000000 		.4byte	.LLST2
 1330 066d 01       		.byte	0x1
 1331 066e 7F060000 		.4byte	0x67f
 1332 0672 15       		.uleb128 0x15
 1333 0673 7800     		.ascii	"x\000"
 1334 0675 01       		.byte	0x1
 1335 0676 6A       		.byte	0x6a
 1336 0677 AB000000 		.4byte	0xab
 1337 067b 02       		.byte	0x2
 1338 067c 91       		.byte	0x91
 1339 067d 74       		.sleb128 -12
ARM GAS  /tmp/ccJSKCFq.s 			page 27


 1340 067e 00       		.byte	0
 1341 067f 16       		.uleb128 0x16
 1342 0680 01       		.byte	0x1
 1343 0681 D3030000 		.4byte	.LASF162
 1344 0685 01       		.byte	0x1
 1345 0686 6F       		.byte	0x6f
 1346 0687 01       		.byte	0x1
 1347 0688 B8000000 		.4byte	0xb8
 1348 068c 68000000 		.4byte	.LFB43
 1349 0690 2C010000 		.4byte	.LFE43
 1350 0694 84000000 		.4byte	.LLST3
 1351 0698 01       		.byte	0x1
 1352 0699 17       		.uleb128 0x17
 1353 069a 51010000 		.4byte	.LASF139
 1354 069e 0B       		.byte	0xb
 1355 069f E602     		.2byte	0x2e6
 1356 06a1 A7060000 		.4byte	0x6a7
 1357 06a5 01       		.byte	0x1
 1358 06a6 01       		.byte	0x1
 1359 06a7 18       		.uleb128 0x18
 1360 06a8 D9000000 		.4byte	0xd9
 1361 06ac 19       		.uleb128 0x19
 1362 06ad 75040000 		.4byte	.LASF140
 1363 06b1 01       		.byte	0x1
 1364 06b2 0A       		.byte	0xa
 1365 06b3 BE060000 		.4byte	0x6be
 1366 06b7 01       		.byte	0x1
 1367 06b8 05       		.byte	0x5
 1368 06b9 03       		.byte	0x3
 1369 06ba 00000000 		.4byte	myClock
 1370 06be 06       		.uleb128 0x6
 1371 06bf 04       		.byte	0x4
 1372 06c0 AE010000 		.4byte	0x1ae
 1373 06c4 19       		.uleb128 0x19
 1374 06c5 58070000 		.4byte	.LASF141
 1375 06c9 01       		.byte	0x1
 1376 06ca 0B       		.byte	0xb
 1377 06cb D6060000 		.4byte	0x6d6
 1378 06cf 01       		.byte	0x1
 1379 06d0 05       		.byte	0x5
 1380 06d1 03       		.byte	0x3
 1381 06d2 00000000 		.4byte	myGpio
 1382 06d6 06       		.uleb128 0x6
 1383 06d7 04       		.byte	0x4
 1384 06d8 31020000 		.4byte	0x231
 1385 06dc 1A       		.uleb128 0x1a
 1386 06dd 4C454400 		.ascii	"LED\000"
 1387 06e1 01       		.byte	0x1
 1388 06e2 0C       		.byte	0xc
 1389 06e3 D6060000 		.4byte	0x6d6
 1390 06e7 01       		.byte	0x1
 1391 06e8 05       		.byte	0x5
 1392 06e9 03       		.byte	0x3
 1393 06ea 00000000 		.4byte	LED
 1394 06ee 19       		.uleb128 0x19
 1395 06ef 42010000 		.4byte	.LASF142
 1396 06f3 01       		.byte	0x1
ARM GAS  /tmp/ccJSKCFq.s 			page 28


 1397 06f4 0D       		.byte	0xd
 1398 06f5 D6060000 		.4byte	0x6d6
 1399 06f9 01       		.byte	0x1
 1400 06fa 05       		.byte	0x5
 1401 06fb 03       		.byte	0x3
 1402 06fc 00000000 		.4byte	myLED
 1403 0700 19       		.uleb128 0x19
 1404 0701 79060000 		.4byte	.LASF143
 1405 0705 01       		.byte	0x1
 1406 0706 0E       		.byte	0xe
 1407 0707 D6060000 		.4byte	0x6d6
 1408 070b 01       		.byte	0x1
 1409 070c 05       		.byte	0x5
 1410 070d 03       		.byte	0x3
 1411 070e 00000000 		.4byte	Switch
 1412 0712 19       		.uleb128 0x19
 1413 0713 72060000 		.4byte	.LASF144
 1414 0717 01       		.byte	0x1
 1415 0718 0F       		.byte	0xf
 1416 0719 24070000 		.4byte	0x724
 1417 071d 01       		.byte	0x1
 1418 071e 05       		.byte	0x5
 1419 071f 03       		.byte	0x3
 1420 0720 00000000 		.4byte	myUART
 1421 0724 06       		.uleb128 0x6
 1422 0725 04       		.byte	0x4
 1423 0726 80030000 		.4byte	0x380
 1424 072a 19       		.uleb128 0x19
 1425 072b 89070000 		.4byte	.LASF145
 1426 072f 01       		.byte	0x1
 1427 0730 10       		.byte	0x10
 1428 0731 3C070000 		.4byte	0x73c
 1429 0735 01       		.byte	0x1
 1430 0736 05       		.byte	0x5
 1431 0737 03       		.byte	0x3
 1432 0738 00000000 		.4byte	i2cDevice
 1433 073c 06       		.uleb128 0x6
 1434 073d 04       		.byte	0x4
 1435 073e 2F050000 		.4byte	0x52f
 1436 0742 19       		.uleb128 0x19
 1437 0743 43070000 		.4byte	.LASF146
 1438 0747 01       		.byte	0x1
 1439 0748 13       		.byte	0x13
 1440 0749 26020000 		.4byte	0x226
 1441 074d 01       		.byte	0x1
 1442 074e 05       		.byte	0x5
 1443 074f 03       		.byte	0x3
 1444 0750 00000000 		.4byte	myClockCfg
 1445 0754 19       		.uleb128 0x19
 1446 0755 4E070000 		.4byte	.LASF147
 1447 0759 01       		.byte	0x1
 1448 075a 1A       		.byte	0x1a
 1449 075b 75030000 		.4byte	0x375
 1450 075f 01       		.byte	0x1
 1451 0760 05       		.byte	0x5
 1452 0761 03       		.byte	0x3
 1453 0762 00000000 		.4byte	myGpioCfg
ARM GAS  /tmp/ccJSKCFq.s 			page 29


 1454 0766 19       		.uleb128 0x19
 1455 0767 80060000 		.4byte	.LASF148
 1456 076b 01       		.byte	0x1
 1457 076c 22       		.byte	0x22
 1458 076d 75030000 		.4byte	0x375
 1459 0771 01       		.byte	0x1
 1460 0772 05       		.byte	0x5
 1461 0773 03       		.byte	0x3
 1462 0774 00000000 		.4byte	LED_Config
 1463 0778 19       		.uleb128 0x19
 1464 0779 CA060000 		.4byte	.LASF149
 1465 077d 01       		.byte	0x1
 1466 077e 2A       		.byte	0x2a
 1467 077f 75030000 		.4byte	0x375
 1468 0783 01       		.byte	0x1
 1469 0784 05       		.byte	0x5
 1470 0785 03       		.byte	0x3
 1471 0786 00000000 		.4byte	myLED_Config
 1472 078a 19       		.uleb128 0x19
 1473 078b 8B030000 		.4byte	.LASF150
 1474 078f 01       		.byte	0x1
 1475 0790 32       		.byte	0x32
 1476 0791 75030000 		.4byte	0x375
 1477 0795 01       		.byte	0x1
 1478 0796 05       		.byte	0x5
 1479 0797 03       		.byte	0x3
 1480 0798 00000000 		.4byte	Switch_Config
 1481 079c 19       		.uleb128 0x19
 1482 079d 03040000 		.4byte	.LASF151
 1483 07a1 01       		.byte	0x1
 1484 07a2 3C       		.byte	0x3c
 1485 07a3 24050000 		.4byte	0x524
 1486 07a7 01       		.byte	0x1
 1487 07a8 05       		.byte	0x5
 1488 07a9 03       		.byte	0x3
 1489 07aa 00000000 		.4byte	uartHWCfg
 1490 07ae 19       		.uleb128 0x19
 1491 07af 19080000 		.4byte	.LASF152
 1492 07b3 01       		.byte	0x1
 1493 07b4 42       		.byte	0x42
 1494 07b5 F0040000 		.4byte	0x4f0
 1495 07b9 01       		.byte	0x1
 1496 07ba 05       		.byte	0x5
 1497 07bb 03       		.byte	0x3
 1498 07bc 00000000 		.4byte	uart_Config
 1499 07c0 19       		.uleb128 0x19
 1500 07c1 CB000000 		.4byte	.LASF153
 1501 07c5 01       		.byte	0x1
 1502 07c6 4F       		.byte	0x4f
 1503 07c7 0B060000 		.4byte	0x60b
 1504 07cb 01       		.byte	0x1
 1505 07cc 05       		.byte	0x5
 1506 07cd 03       		.byte	0x3
 1507 07ce 00000000 		.4byte	i2cConfig
 1508 07d2 19       		.uleb128 0x19
 1509 07d3 6E020000 		.4byte	.LASF154
 1510 07d7 01       		.byte	0x1
ARM GAS  /tmp/ccJSKCFq.s 			page 30


 1511 07d8 5D       		.byte	0x5d
 1512 07d9 73010000 		.4byte	0x173
 1513 07dd 01       		.byte	0x1
 1514 07de 05       		.byte	0x5
 1515 07df 03       		.byte	0x3
 1516 07e0 00000000 		.4byte	communicationTimeOuts
 1517 07e4 00       		.byte	0
 1518              		.section	.debug_abbrev,"",%progbits
 1519              	.Ldebug_abbrev0:
 1520 0000 01       		.uleb128 0x1
 1521 0001 11       		.uleb128 0x11
 1522 0002 01       		.byte	0x1
 1523 0003 25       		.uleb128 0x25
 1524 0004 0E       		.uleb128 0xe
 1525 0005 13       		.uleb128 0x13
 1526 0006 0B       		.uleb128 0xb
 1527 0007 03       		.uleb128 0x3
 1528 0008 0E       		.uleb128 0xe
 1529 0009 1B       		.uleb128 0x1b
 1530 000a 0E       		.uleb128 0xe
 1531 000b 11       		.uleb128 0x11
 1532 000c 01       		.uleb128 0x1
 1533 000d 12       		.uleb128 0x12
 1534 000e 01       		.uleb128 0x1
 1535 000f 10       		.uleb128 0x10
 1536 0010 06       		.uleb128 0x6
 1537 0011 00       		.byte	0
 1538 0012 00       		.byte	0
 1539 0013 02       		.uleb128 0x2
 1540 0014 24       		.uleb128 0x24
 1541 0015 00       		.byte	0
 1542 0016 0B       		.uleb128 0xb
 1543 0017 0B       		.uleb128 0xb
 1544 0018 3E       		.uleb128 0x3e
 1545 0019 0B       		.uleb128 0xb
 1546 001a 03       		.uleb128 0x3
 1547 001b 0E       		.uleb128 0xe
 1548 001c 00       		.byte	0
 1549 001d 00       		.byte	0
 1550 001e 03       		.uleb128 0x3
 1551 001f 24       		.uleb128 0x24
 1552 0020 00       		.byte	0
 1553 0021 0B       		.uleb128 0xb
 1554 0022 0B       		.uleb128 0xb
 1555 0023 3E       		.uleb128 0x3e
 1556 0024 0B       		.uleb128 0xb
 1557 0025 03       		.uleb128 0x3
 1558 0026 08       		.uleb128 0x8
 1559 0027 00       		.byte	0
 1560 0028 00       		.byte	0
 1561 0029 04       		.uleb128 0x4
 1562 002a 16       		.uleb128 0x16
 1563 002b 00       		.byte	0
 1564 002c 03       		.uleb128 0x3
 1565 002d 0E       		.uleb128 0xe
 1566 002e 3A       		.uleb128 0x3a
 1567 002f 0B       		.uleb128 0xb
ARM GAS  /tmp/ccJSKCFq.s 			page 31


 1568 0030 3B       		.uleb128 0x3b
 1569 0031 0B       		.uleb128 0xb
 1570 0032 49       		.uleb128 0x49
 1571 0033 13       		.uleb128 0x13
 1572 0034 00       		.byte	0
 1573 0035 00       		.byte	0
 1574 0036 05       		.uleb128 0x5
 1575 0037 0F       		.uleb128 0xf
 1576 0038 00       		.byte	0
 1577 0039 0B       		.uleb128 0xb
 1578 003a 0B       		.uleb128 0xb
 1579 003b 00       		.byte	0
 1580 003c 00       		.byte	0
 1581 003d 06       		.uleb128 0x6
 1582 003e 0F       		.uleb128 0xf
 1583 003f 00       		.byte	0
 1584 0040 0B       		.uleb128 0xb
 1585 0041 0B       		.uleb128 0xb
 1586 0042 49       		.uleb128 0x49
 1587 0043 13       		.uleb128 0x13
 1588 0044 00       		.byte	0
 1589 0045 00       		.byte	0
 1590 0046 07       		.uleb128 0x7
 1591 0047 04       		.uleb128 0x4
 1592 0048 01       		.byte	0x1
 1593 0049 0B       		.uleb128 0xb
 1594 004a 0B       		.uleb128 0xb
 1595 004b 3A       		.uleb128 0x3a
 1596 004c 0B       		.uleb128 0xb
 1597 004d 3B       		.uleb128 0x3b
 1598 004e 0B       		.uleb128 0xb
 1599 004f 01       		.uleb128 0x1
 1600 0050 13       		.uleb128 0x13
 1601 0051 00       		.byte	0
 1602 0052 00       		.byte	0
 1603 0053 08       		.uleb128 0x8
 1604 0054 28       		.uleb128 0x28
 1605 0055 00       		.byte	0
 1606 0056 03       		.uleb128 0x3
 1607 0057 0E       		.uleb128 0xe
 1608 0058 1C       		.uleb128 0x1c
 1609 0059 0D       		.uleb128 0xd
 1610 005a 00       		.byte	0
 1611 005b 00       		.byte	0
 1612 005c 09       		.uleb128 0x9
 1613 005d 13       		.uleb128 0x13
 1614 005e 01       		.byte	0x1
 1615 005f 0B       		.uleb128 0xb
 1616 0060 0B       		.uleb128 0xb
 1617 0061 3A       		.uleb128 0x3a
 1618 0062 0B       		.uleb128 0xb
 1619 0063 3B       		.uleb128 0x3b
 1620 0064 0B       		.uleb128 0xb
 1621 0065 01       		.uleb128 0x1
 1622 0066 13       		.uleb128 0x13
 1623 0067 00       		.byte	0
 1624 0068 00       		.byte	0
ARM GAS  /tmp/ccJSKCFq.s 			page 32


 1625 0069 0A       		.uleb128 0xa
 1626 006a 0D       		.uleb128 0xd
 1627 006b 00       		.byte	0
 1628 006c 03       		.uleb128 0x3
 1629 006d 0E       		.uleb128 0xe
 1630 006e 3A       		.uleb128 0x3a
 1631 006f 0B       		.uleb128 0xb
 1632 0070 3B       		.uleb128 0x3b
 1633 0071 0B       		.uleb128 0xb
 1634 0072 49       		.uleb128 0x49
 1635 0073 13       		.uleb128 0x13
 1636 0074 38       		.uleb128 0x38
 1637 0075 0A       		.uleb128 0xa
 1638 0076 00       		.byte	0
 1639 0077 00       		.byte	0
 1640 0078 0B       		.uleb128 0xb
 1641 0079 0D       		.uleb128 0xd
 1642 007a 00       		.byte	0
 1643 007b 03       		.uleb128 0x3
 1644 007c 08       		.uleb128 0x8
 1645 007d 3A       		.uleb128 0x3a
 1646 007e 0B       		.uleb128 0xb
 1647 007f 3B       		.uleb128 0x3b
 1648 0080 0B       		.uleb128 0xb
 1649 0081 49       		.uleb128 0x49
 1650 0082 13       		.uleb128 0x13
 1651 0083 38       		.uleb128 0x38
 1652 0084 0A       		.uleb128 0xa
 1653 0085 00       		.byte	0
 1654 0086 00       		.byte	0
 1655 0087 0C       		.uleb128 0xc
 1656 0088 13       		.uleb128 0x13
 1657 0089 00       		.byte	0
 1658 008a 03       		.uleb128 0x3
 1659 008b 0E       		.uleb128 0xe
 1660 008c 3C       		.uleb128 0x3c
 1661 008d 0C       		.uleb128 0xc
 1662 008e 00       		.byte	0
 1663 008f 00       		.byte	0
 1664 0090 0D       		.uleb128 0xd
 1665 0091 04       		.uleb128 0x4
 1666 0092 01       		.byte	0x1
 1667 0093 03       		.uleb128 0x3
 1668 0094 0E       		.uleb128 0xe
 1669 0095 0B       		.uleb128 0xb
 1670 0096 0B       		.uleb128 0xb
 1671 0097 3A       		.uleb128 0x3a
 1672 0098 0B       		.uleb128 0xb
 1673 0099 3B       		.uleb128 0x3b
 1674 009a 0B       		.uleb128 0xb
 1675 009b 01       		.uleb128 0x1
 1676 009c 13       		.uleb128 0x13
 1677 009d 00       		.byte	0
 1678 009e 00       		.byte	0
 1679 009f 0E       		.uleb128 0xe
 1680 00a0 13       		.uleb128 0x13
 1681 00a1 01       		.byte	0x1
ARM GAS  /tmp/ccJSKCFq.s 			page 33


 1682 00a2 03       		.uleb128 0x3
 1683 00a3 0E       		.uleb128 0xe
 1684 00a4 0B       		.uleb128 0xb
 1685 00a5 0B       		.uleb128 0xb
 1686 00a6 3A       		.uleb128 0x3a
 1687 00a7 0B       		.uleb128 0xb
 1688 00a8 3B       		.uleb128 0x3b
 1689 00a9 0B       		.uleb128 0xb
 1690 00aa 01       		.uleb128 0x1
 1691 00ab 13       		.uleb128 0x13
 1692 00ac 00       		.byte	0
 1693 00ad 00       		.byte	0
 1694 00ae 0F       		.uleb128 0xf
 1695 00af 01       		.uleb128 0x1
 1696 00b0 01       		.byte	0x1
 1697 00b1 49       		.uleb128 0x49
 1698 00b2 13       		.uleb128 0x13
 1699 00b3 01       		.uleb128 0x1
 1700 00b4 13       		.uleb128 0x13
 1701 00b5 00       		.byte	0
 1702 00b6 00       		.byte	0
 1703 00b7 10       		.uleb128 0x10
 1704 00b8 21       		.uleb128 0x21
 1705 00b9 00       		.byte	0
 1706 00ba 49       		.uleb128 0x49
 1707 00bb 13       		.uleb128 0x13
 1708 00bc 2F       		.uleb128 0x2f
 1709 00bd 0B       		.uleb128 0xb
 1710 00be 00       		.byte	0
 1711 00bf 00       		.byte	0
 1712 00c0 11       		.uleb128 0x11
 1713 00c1 2E       		.uleb128 0x2e
 1714 00c2 01       		.byte	0x1
 1715 00c3 3F       		.uleb128 0x3f
 1716 00c4 0C       		.uleb128 0xc
 1717 00c5 03       		.uleb128 0x3
 1718 00c6 0E       		.uleb128 0xe
 1719 00c7 3A       		.uleb128 0x3a
 1720 00c8 0B       		.uleb128 0xb
 1721 00c9 3B       		.uleb128 0x3b
 1722 00ca 0B       		.uleb128 0xb
 1723 00cb 27       		.uleb128 0x27
 1724 00cc 0C       		.uleb128 0xc
 1725 00cd 11       		.uleb128 0x11
 1726 00ce 01       		.uleb128 0x1
 1727 00cf 12       		.uleb128 0x12
 1728 00d0 01       		.uleb128 0x1
 1729 00d1 40       		.uleb128 0x40
 1730 00d2 06       		.uleb128 0x6
 1731 00d3 9742     		.uleb128 0x2117
 1732 00d5 0C       		.uleb128 0xc
 1733 00d6 01       		.uleb128 0x1
 1734 00d7 13       		.uleb128 0x13
 1735 00d8 00       		.byte	0
 1736 00d9 00       		.byte	0
 1737 00da 12       		.uleb128 0x12
 1738 00db 34       		.uleb128 0x34
ARM GAS  /tmp/ccJSKCFq.s 			page 34


 1739 00dc 00       		.byte	0
 1740 00dd 03       		.uleb128 0x3
 1741 00de 0E       		.uleb128 0xe
 1742 00df 3A       		.uleb128 0x3a
 1743 00e0 0B       		.uleb128 0xb
 1744 00e1 3B       		.uleb128 0x3b
 1745 00e2 0B       		.uleb128 0xb
 1746 00e3 49       		.uleb128 0x49
 1747 00e4 13       		.uleb128 0x13
 1748 00e5 02       		.uleb128 0x2
 1749 00e6 0A       		.uleb128 0xa
 1750 00e7 00       		.byte	0
 1751 00e8 00       		.byte	0
 1752 00e9 13       		.uleb128 0x13
 1753 00ea 2E       		.uleb128 0x2e
 1754 00eb 00       		.byte	0
 1755 00ec 3F       		.uleb128 0x3f
 1756 00ed 0C       		.uleb128 0xc
 1757 00ee 03       		.uleb128 0x3
 1758 00ef 0E       		.uleb128 0xe
 1759 00f0 3A       		.uleb128 0x3a
 1760 00f1 0B       		.uleb128 0xb
 1761 00f2 3B       		.uleb128 0x3b
 1762 00f3 0B       		.uleb128 0xb
 1763 00f4 11       		.uleb128 0x11
 1764 00f5 01       		.uleb128 0x1
 1765 00f6 12       		.uleb128 0x12
 1766 00f7 01       		.uleb128 0x1
 1767 00f8 40       		.uleb128 0x40
 1768 00f9 06       		.uleb128 0x6
 1769 00fa 9642     		.uleb128 0x2116
 1770 00fc 0C       		.uleb128 0xc
 1771 00fd 00       		.byte	0
 1772 00fe 00       		.byte	0
 1773 00ff 14       		.uleb128 0x14
 1774 0100 2E       		.uleb128 0x2e
 1775 0101 01       		.byte	0x1
 1776 0102 3F       		.uleb128 0x3f
 1777 0103 0C       		.uleb128 0xc
 1778 0104 03       		.uleb128 0x3
 1779 0105 0E       		.uleb128 0xe
 1780 0106 3A       		.uleb128 0x3a
 1781 0107 0B       		.uleb128 0xb
 1782 0108 3B       		.uleb128 0x3b
 1783 0109 0B       		.uleb128 0xb
 1784 010a 27       		.uleb128 0x27
 1785 010b 0C       		.uleb128 0xc
 1786 010c 49       		.uleb128 0x49
 1787 010d 13       		.uleb128 0x13
 1788 010e 11       		.uleb128 0x11
 1789 010f 01       		.uleb128 0x1
 1790 0110 12       		.uleb128 0x12
 1791 0111 01       		.uleb128 0x1
 1792 0112 40       		.uleb128 0x40
 1793 0113 06       		.uleb128 0x6
 1794 0114 9642     		.uleb128 0x2116
 1795 0116 0C       		.uleb128 0xc
ARM GAS  /tmp/ccJSKCFq.s 			page 35


 1796 0117 01       		.uleb128 0x1
 1797 0118 13       		.uleb128 0x13
 1798 0119 00       		.byte	0
 1799 011a 00       		.byte	0
 1800 011b 15       		.uleb128 0x15
 1801 011c 05       		.uleb128 0x5
 1802 011d 00       		.byte	0
 1803 011e 03       		.uleb128 0x3
 1804 011f 08       		.uleb128 0x8
 1805 0120 3A       		.uleb128 0x3a
 1806 0121 0B       		.uleb128 0xb
 1807 0122 3B       		.uleb128 0x3b
 1808 0123 0B       		.uleb128 0xb
 1809 0124 49       		.uleb128 0x49
 1810 0125 13       		.uleb128 0x13
 1811 0126 02       		.uleb128 0x2
 1812 0127 0A       		.uleb128 0xa
 1813 0128 00       		.byte	0
 1814 0129 00       		.byte	0
 1815 012a 16       		.uleb128 0x16
 1816 012b 2E       		.uleb128 0x2e
 1817 012c 00       		.byte	0
 1818 012d 3F       		.uleb128 0x3f
 1819 012e 0C       		.uleb128 0xc
 1820 012f 03       		.uleb128 0x3
 1821 0130 0E       		.uleb128 0xe
 1822 0131 3A       		.uleb128 0x3a
 1823 0132 0B       		.uleb128 0xb
 1824 0133 3B       		.uleb128 0x3b
 1825 0134 0B       		.uleb128 0xb
 1826 0135 27       		.uleb128 0x27
 1827 0136 0C       		.uleb128 0xc
 1828 0137 49       		.uleb128 0x49
 1829 0138 13       		.uleb128 0x13
 1830 0139 11       		.uleb128 0x11
 1831 013a 01       		.uleb128 0x1
 1832 013b 12       		.uleb128 0x12
 1833 013c 01       		.uleb128 0x1
 1834 013d 40       		.uleb128 0x40
 1835 013e 06       		.uleb128 0x6
 1836 013f 9642     		.uleb128 0x2116
 1837 0141 0C       		.uleb128 0xc
 1838 0142 00       		.byte	0
 1839 0143 00       		.byte	0
 1840 0144 17       		.uleb128 0x17
 1841 0145 34       		.uleb128 0x34
 1842 0146 00       		.byte	0
 1843 0147 03       		.uleb128 0x3
 1844 0148 0E       		.uleb128 0xe
 1845 0149 3A       		.uleb128 0x3a
 1846 014a 0B       		.uleb128 0xb
 1847 014b 3B       		.uleb128 0x3b
 1848 014c 05       		.uleb128 0x5
 1849 014d 49       		.uleb128 0x49
 1850 014e 13       		.uleb128 0x13
 1851 014f 3F       		.uleb128 0x3f
 1852 0150 0C       		.uleb128 0xc
ARM GAS  /tmp/ccJSKCFq.s 			page 36


 1853 0151 3C       		.uleb128 0x3c
 1854 0152 0C       		.uleb128 0xc
 1855 0153 00       		.byte	0
 1856 0154 00       		.byte	0
 1857 0155 18       		.uleb128 0x18
 1858 0156 35       		.uleb128 0x35
 1859 0157 00       		.byte	0
 1860 0158 49       		.uleb128 0x49
 1861 0159 13       		.uleb128 0x13
 1862 015a 00       		.byte	0
 1863 015b 00       		.byte	0
 1864 015c 19       		.uleb128 0x19
 1865 015d 34       		.uleb128 0x34
 1866 015e 00       		.byte	0
 1867 015f 03       		.uleb128 0x3
 1868 0160 0E       		.uleb128 0xe
 1869 0161 3A       		.uleb128 0x3a
 1870 0162 0B       		.uleb128 0xb
 1871 0163 3B       		.uleb128 0x3b
 1872 0164 0B       		.uleb128 0xb
 1873 0165 49       		.uleb128 0x49
 1874 0166 13       		.uleb128 0x13
 1875 0167 3F       		.uleb128 0x3f
 1876 0168 0C       		.uleb128 0xc
 1877 0169 02       		.uleb128 0x2
 1878 016a 0A       		.uleb128 0xa
 1879 016b 00       		.byte	0
 1880 016c 00       		.byte	0
 1881 016d 1A       		.uleb128 0x1a
 1882 016e 34       		.uleb128 0x34
 1883 016f 00       		.byte	0
 1884 0170 03       		.uleb128 0x3
 1885 0171 08       		.uleb128 0x8
 1886 0172 3A       		.uleb128 0x3a
 1887 0173 0B       		.uleb128 0xb
 1888 0174 3B       		.uleb128 0x3b
 1889 0175 0B       		.uleb128 0xb
 1890 0176 49       		.uleb128 0x49
 1891 0177 13       		.uleb128 0x13
 1892 0178 3F       		.uleb128 0x3f
 1893 0179 0C       		.uleb128 0xc
 1894 017a 02       		.uleb128 0x2
 1895 017b 0A       		.uleb128 0xa
 1896 017c 00       		.byte	0
 1897 017d 00       		.byte	0
 1898 017e 00       		.byte	0
 1899              		.section	.debug_loc,"",%progbits
 1900              	.Ldebug_loc0:
 1901              	.LLST0:
 1902 0000 00000000 		.4byte	.LFB40-.Ltext0
 1903 0004 02000000 		.4byte	.LCFI0-.Ltext0
 1904 0008 0200     		.2byte	0x2
 1905 000a 7D       		.byte	0x7d
 1906 000b 00       		.sleb128 0
 1907 000c 02000000 		.4byte	.LCFI0-.Ltext0
 1908 0010 1C000000 		.4byte	.LCFI1-.Ltext0
 1909 0014 0200     		.2byte	0x2
ARM GAS  /tmp/ccJSKCFq.s 			page 37


 1910 0016 7D       		.byte	0x7d
 1911 0017 08       		.sleb128 8
 1912 0018 1C000000 		.4byte	.LCFI1-.Ltext0
 1913 001c 24000000 		.4byte	.LFE40-.Ltext0
 1914 0020 0200     		.2byte	0x2
 1915 0022 7D       		.byte	0x7d
 1916 0023 00       		.sleb128 0
 1917 0024 00000000 		.4byte	0
 1918 0028 00000000 		.4byte	0
 1919              	.LLST1:
 1920 002c 24000000 		.4byte	.LFB41-.Ltext0
 1921 0030 26000000 		.4byte	.LCFI2-.Ltext0
 1922 0034 0200     		.2byte	0x2
 1923 0036 7D       		.byte	0x7d
 1924 0037 00       		.sleb128 0
 1925 0038 26000000 		.4byte	.LCFI2-.Ltext0
 1926 003c 3C000000 		.4byte	.LFE41-.Ltext0
 1927 0040 0200     		.2byte	0x2
 1928 0042 7D       		.byte	0x7d
 1929 0043 08       		.sleb128 8
 1930 0044 00000000 		.4byte	0
 1931 0048 00000000 		.4byte	0
 1932              	.LLST2:
 1933 004c 3C000000 		.4byte	.LFB42-.Ltext0
 1934 0050 3E000000 		.4byte	.LCFI3-.Ltext0
 1935 0054 0200     		.2byte	0x2
 1936 0056 7D       		.byte	0x7d
 1937 0057 00       		.sleb128 0
 1938 0058 3E000000 		.4byte	.LCFI3-.Ltext0
 1939 005c 40000000 		.4byte	.LCFI4-.Ltext0
 1940 0060 0200     		.2byte	0x2
 1941 0062 7D       		.byte	0x7d
 1942 0063 04       		.sleb128 4
 1943 0064 40000000 		.4byte	.LCFI4-.Ltext0
 1944 0068 5C000000 		.4byte	.LCFI5-.Ltext0
 1945 006c 0200     		.2byte	0x2
 1946 006e 7D       		.byte	0x7d
 1947 006f 18       		.sleb128 24
 1948 0070 5C000000 		.4byte	.LCFI5-.Ltext0
 1949 0074 68000000 		.4byte	.LFE42-.Ltext0
 1950 0078 0200     		.2byte	0x2
 1951 007a 7D       		.byte	0x7d
 1952 007b 04       		.sleb128 4
 1953 007c 00000000 		.4byte	0
 1954 0080 00000000 		.4byte	0
 1955              	.LLST3:
 1956 0084 68000000 		.4byte	.LFB43-.Ltext0
 1957 0088 6A000000 		.4byte	.LCFI6-.Ltext0
 1958 008c 0200     		.2byte	0x2
 1959 008e 7D       		.byte	0x7d
 1960 008f 00       		.sleb128 0
 1961 0090 6A000000 		.4byte	.LCFI6-.Ltext0
 1962 0094 2C010000 		.4byte	.LFE43-.Ltext0
 1963 0098 0200     		.2byte	0x2
 1964 009a 7D       		.byte	0x7d
 1965 009b 08       		.sleb128 8
 1966 009c 00000000 		.4byte	0
ARM GAS  /tmp/ccJSKCFq.s 			page 38


 1967 00a0 00000000 		.4byte	0
 1968              		.section	.debug_aranges,"",%progbits
 1969 0000 1C000000 		.4byte	0x1c
 1970 0004 0200     		.2byte	0x2
 1971 0006 00000000 		.4byte	.Ldebug_info0
 1972 000a 04       		.byte	0x4
 1973 000b 00       		.byte	0
 1974 000c 0000     		.2byte	0
 1975 000e 0000     		.2byte	0
 1976 0010 00000000 		.4byte	.Ltext0
 1977 0014 2C010000 		.4byte	.Letext0-.Ltext0
 1978 0018 00000000 		.4byte	0
 1979 001c 00000000 		.4byte	0
 1980              		.section	.debug_line,"",%progbits
 1981              	.Ldebug_line0:
 1982 0000 A5020000 		.section	.debug_str,"MS",%progbits,1
 1982      02005F02 
 1982      00000201 
 1982      FB0E0D00 
 1982      01010101 
 1983              	.LASF136:
 1984 0000 6F776E41 		.ascii	"ownAddressMask\000"
 1984      64647265 
 1984      73734D61 
 1984      736B00
 1985              	.LASF32:
 1986 000f 636F756E 		.ascii	"count\000"
 1986      7400
 1987              	.LASF105:
 1988 0015 656E4550 		.ascii	"enEPCFUartParity_Zero\000"
 1988      43465561 
 1988      72745061 
 1988      72697479 
 1988      5F5A6572 
 1989              	.LASF70:
 1990 002b 656E4550 		.ascii	"enEPCFGpioIntMode_RisingEdge\000"
 1990      43464770 
 1990      696F496E 
 1990      744D6F64 
 1990      655F5269 
 1991              	.LASF137:
 1992 0048 67656E65 		.ascii	"generalCallEnable\000"
 1992      72616C43 
 1992      616C6C45 
 1992      6E61626C 
 1992      6500
 1993              	.LASF88:
 1994 005a 656E4550 		.ascii	"enEPCFUartBaudrate_9600\000"
 1994      43465561 
 1994      72744261 
 1994      75647261 
 1994      74655F39 
 1995              	.LASF72:
 1996 0072 656E4550 		.ascii	"enEPCFGpioIntMode_LowLevel\000"
 1996      43464770 
 1996      696F496E 
 1996      744D6F64 
ARM GAS  /tmp/ccJSKCFq.s 			page 39


 1996      655F4C6F 
 1997              	.LASF3:
 1998 008d 5F5F7569 		.ascii	"__uint8_t\000"
 1998      6E74385F 
 1998      7400
 1999              	.LASF33:
 2000 0097 756E6974 		.ascii	"unit\000"
 2000      00
 2001              	.LASF77:
 2002 009c 64697265 		.ascii	"direction\000"
 2002      6374696F 
 2002      6E00
 2003              	.LASF55:
 2004 00a6 656E4550 		.ascii	"enEPCFGpioDirection_Max\000"
 2004      43464770 
 2004      696F4469 
 2004      72656374 
 2004      696F6E5F 
 2005              	.LASF120:
 2006 00be 74784275 		.ascii	"txBufferSize\000"
 2006      66666572 
 2006      53697A65 
 2006      00
 2007              	.LASF153:
 2008 00cb 69326343 		.ascii	"i2cConfig\000"
 2008      6F6E6669 
 2008      6700
 2009              	.LASF13:
 2010 00d5 6C6F6E67 		.ascii	"long long unsigned int\000"
 2010      206C6F6E 
 2010      6720756E 
 2010      7369676E 
 2010      65642069 
 2011              	.LASF58:
 2012 00ec 656E4550 		.ascii	"enEPCFGpioPinMode_PullUp\000"
 2012      43464770 
 2012      696F5069 
 2012      6E4D6F64 
 2012      655F5075 
 2013              	.LASF106:
 2014 0105 656E4550 		.ascii	"enEPCFUartParity_Max\000"
 2014      43465561 
 2014      72745061 
 2014      72697479 
 2014      5F4D6178 
 2015              	.LASF29:
 2016 011a 656E4550 		.ascii	"enEPCFTimeUnit_s\000"
 2016      43465469 
 2016      6D65556E 
 2016      69745F73 
 2016      00
 2017              	.LASF132:
 2018 012b 456E4550 		.ascii	"EnEPCFI2cAddressType_t\000"
 2018      43464932 
 2018      63416464 
 2018      72657373 
 2018      54797065 
ARM GAS  /tmp/ccJSKCFq.s 			page 40


 2019              	.LASF142:
 2020 0142 6D794C45 		.ascii	"myLED\000"
 2020      4400
 2021              	.LASF2:
 2022 0148 5F5F696E 		.ascii	"__int8_t\000"
 2022      74385F74 
 2022      00
 2023              	.LASF139:
 2024 0151 49544D5F 		.ascii	"ITM_RxBuffer\000"
 2024      52784275 
 2024      66666572 
 2024      00
 2025              	.LASF107:
 2026 015e 456E4550 		.ascii	"EnEPCFUartParity_t\000"
 2026      43465561 
 2026      72745061 
 2026      72697479 
 2026      5F7400
 2027              	.LASF34:
 2028 0171 45504346 		.ascii	"EPCFTime_t\000"
 2028      54696D65 
 2028      5F7400
 2029              	.LASF100:
 2030 017c 456E4550 		.ascii	"EnEPCFUartDataBits_t\000"
 2030      43465561 
 2030      72744461 
 2030      74614269 
 2030      74735F74 
 2031              	.LASF12:
 2032 0191 6C6F6E67 		.ascii	"long long int\000"
 2032      206C6F6E 
 2032      6720696E 
 2032      7400
 2033              	.LASF1:
 2034 019f 7369676E 		.ascii	"signed char\000"
 2034      65642063 
 2034      68617200 
 2035              	.LASF96:
 2036 01ab 656E4550 		.ascii	"enEPCFUartDatabits_6\000"
 2036      43465561 
 2036      72744461 
 2036      74616269 
 2036      74735F36 
 2037              	.LASF128:
 2038 01c0 45504346 		.ascii	"EPCFI2cDevice\000"
 2038      49326344 
 2038      65766963 
 2038      6500
 2039              	.LASF157:
 2040 01ce 2F686F6D 		.ascii	"/home/majorviraj/Desktop/self_balancing/firmware/i2"
 2040      652F6D61 
 2040      6A6F7276 
 2040      6972616A 
 2040      2F446573 
 2041 0201 635F7465 		.ascii	"c_test/app\000"
 2041      73742F61 
 2041      707000
ARM GAS  /tmp/ccJSKCFq.s 			page 41


 2042              	.LASF62:
 2043 020c 656E4550 		.ascii	"enEPCFGpioPinMode_Max\000"
 2043      43464770 
 2043      696F5069 
 2043      6E4D6F64 
 2043      655F4D61 
 2044              	.LASF115:
 2045 0222 62617564 		.ascii	"baudrate\000"
 2045      72617465 
 2045      00
 2046              	.LASF86:
 2047 022b 656E4550 		.ascii	"enEPCFUartBaudrate_2400\000"
 2047      43465561 
 2047      72744261 
 2047      75647261 
 2047      74655F32 
 2048              	.LASF53:
 2049 0243 656E4550 		.ascii	"enEPCFGpioDirection_Output\000"
 2049      43464770 
 2049      696F4469 
 2049      72656374 
 2049      696F6E5F 
 2050              	.LASF64:
 2051 025e 456E4550 		.ascii	"EnEPCFOpenDrain\000"
 2051      43464F70 
 2051      656E4472 
 2051      61696E00 
 2052              	.LASF154:
 2053 026e 636F6D6D 		.ascii	"communicationTimeOuts\000"
 2053      756E6963 
 2053      6174696F 
 2053      6E54696D 
 2053      654F7574 
 2054              	.LASF160:
 2055 0284 73657269 		.ascii	"serialBegin\000"
 2055      616C4265 
 2055      67696E00 
 2056              	.LASF67:
 2057 0290 656E4550 		.ascii	"enEPCFGpioOpenDrain_Max\000"
 2057      43464770 
 2057      696F4F70 
 2057      656E4472 
 2057      61696E5F 
 2058              	.LASF9:
 2059 02a8 6C6F6E67 		.ascii	"long int\000"
 2059      20696E74 
 2059      00
 2060              	.LASF122:
 2061 02b1 45504346 		.ascii	"EPCFUartCfg_t\000"
 2061      55617274 
 2061      4366675F 
 2061      7400
 2062              	.LASF40:
 2063 02bf 656E4550 		.ascii	"enEPCFPllClkSrcRtcOSC\000"
 2063      4346506C 
 2063      6C436C6B 
 2063      53726352 
ARM GAS  /tmp/ccJSKCFq.s 			page 42


 2063      74634F53 
 2064              	.LASF37:
 2065 02d5 45504346 		.ascii	"EPCFSysClkDevice_t\000"
 2065      53797343 
 2065      6C6B4465 
 2065      76696365 
 2065      5F7400
 2066              	.LASF92:
 2067 02e8 656E4550 		.ascii	"enEPCFUartBaudrate_115200\000"
 2067      43465561 
 2067      72744261 
 2067      75647261 
 2067      74655F31 
 2068              	.LASF93:
 2069 0302 656E4550 		.ascii	"enEPCFUartBaudrate_Max\000"
 2069      43465561 
 2069      72744261 
 2069      75647261 
 2069      74655F4D 
 2070              	.LASF69:
 2071 0319 656E4550 		.ascii	"enEPCFGpioIntMode_FallingEdge\000"
 2071      43464770 
 2071      696F496E 
 2071      744D6F64 
 2071      655F4661 
 2072              	.LASF87:
 2073 0337 656E4550 		.ascii	"enEPCFUartBaudrate_4800\000"
 2073      43465561 
 2073      72744261 
 2073      75647261 
 2073      74655F34 
 2074              	.LASF18:
 2075 034f 75696E74 		.ascii	"uint16_t\000"
 2075      31365F74 
 2075      00
 2076              	.LASF135:
 2077 0358 6F776E41 		.ascii	"ownAddress\000"
 2077      64647265 
 2077      737300
 2078              	.LASF134:
 2079 0363 61646472 		.ascii	"addressType\000"
 2079      65737354 
 2079      79706500 
 2080              	.LASF94:
 2081 036f 456E4550 		.ascii	"EnEPCFUartBaudrate_t\000"
 2081      43465561 
 2081      72744261 
 2081      75647261 
 2081      74655F74 
 2082              	.LASF117:
 2083 0384 70617269 		.ascii	"parity\000"
 2083      747900
 2084              	.LASF150:
 2085 038b 53776974 		.ascii	"Switch_Config\000"
 2085      63685F43 
 2085      6F6E6669 
 2085      6700
ARM GAS  /tmp/ccJSKCFq.s 			page 43


 2086              	.LASF10:
 2087 0399 5F5F7569 		.ascii	"__uint32_t\000"
 2087      6E743332 
 2087      5F7400
 2088              	.LASF54:
 2089 03a4 656E4550 		.ascii	"enEPCFGpioDirection_HighZ\000"
 2089      43464770 
 2089      696F4469 
 2089      72656374 
 2089      696F6E5F 
 2090              	.LASF95:
 2091 03be 656E4550 		.ascii	"enEPCFUartDatabits_5\000"
 2091      43465561 
 2091      72744461 
 2091      74616269 
 2091      74735F35 
 2092              	.LASF162:
 2093 03d3 61707049 		.ascii	"appInit\000"
 2093      6E697400 
 2094              	.LASF35:
 2095 03db 706F7274 		.ascii	"port\000"
 2095      00
 2096              	.LASF0:
 2097 03e0 756E7369 		.ascii	"unsigned int\000"
 2097      676E6564 
 2097      20696E74 
 2097      00
 2098              	.LASF74:
 2099 03ed 656E4550 		.ascii	"enEPCFGpioIntMode_Max\000"
 2099      43464770 
 2099      696F496E 
 2099      744D6F64 
 2099      655F4D61 
 2100              	.LASF151:
 2101 0403 75617274 		.ascii	"uartHWCfg\000"
 2101      48574366 
 2101      6700
 2102              	.LASF155:
 2103 040d 474E5520 		.ascii	"GNU C 4.9.3 20150529 (prerelease) -mcpu=cortex-m3 -"
 2103      4320342E 
 2103      392E3320 
 2103      32303135 
 2103      30353239 
 2104 0440 6D746875 		.ascii	"mthumb -gdwarf-2 -O0 -std=gnu99 -fomit-frame-pointe"
 2104      6D62202D 
 2104      67647761 
 2104      72662D32 
 2104      202D4F30 
 2105 0473 7200     		.ascii	"r\000"
 2106              	.LASF140:
 2107 0475 6D79436C 		.ascii	"myClock\000"
 2107      6F636B00 
 2108              	.LASF119:
 2109 047d 696E7465 		.ascii	"interruptEnable\000"
 2109      72727570 
 2109      74456E61 
 2109      626C6500 
ARM GAS  /tmp/ccJSKCFq.s 			page 44


 2110              	.LASF11:
 2111 048d 6C6F6E67 		.ascii	"long unsigned int\000"
 2111      20756E73 
 2111      69676E65 
 2111      6420696E 
 2111      7400
 2112              	.LASF84:
 2113 049f 45504346 		.ascii	"EPCFUartDevice_t\000"
 2113      55617274 
 2113      44657669 
 2113      63655F74 
 2113      00
 2114              	.LASF112:
 2115 04b0 45504346 		.ascii	"EPCFSysClkCfg\000"
 2115      53797343 
 2115      6C6B4366 
 2115      6700
 2116              	.LASF24:
 2117 04be 656E4550 		.ascii	"enEPCFBoolean_Max\000"
 2117      4346426F 
 2117      6F6C6561 
 2117      6E5F4D61 
 2117      7800
 2118              	.LASF50:
 2119 04d0 456E4550 		.ascii	"EnEPCFClkSrc\000"
 2119      4346436C 
 2119      6B537263 
 2119      00
 2120              	.LASF44:
 2121 04dd 6F736346 		.ascii	"oscFreq\000"
 2121      72657100 
 2122              	.LASF81:
 2123 04e5 696E744D 		.ascii	"intMode\000"
 2123      6F646500 
 2124              	.LASF45:
 2125 04ed 706C6C43 		.ascii	"pllClkSrc\000"
 2125      6C6B5372 
 2125      6300
 2126              	.LASF36:
 2127 04f7 45504346 		.ascii	"EPCFPortPin_t\000"
 2127      506F7274 
 2127      50696E5F 
 2127      7400
 2128              	.LASF80:
 2129 0505 696E7445 		.ascii	"intEnable\000"
 2129      6E61626C 
 2129      6500
 2130              	.LASF104:
 2131 050f 656E4550 		.ascii	"enEPCFUartParity_One\000"
 2131      43465561 
 2131      72745061 
 2131      72697479 
 2131      5F4F6E65 
 2132              	.LASF25:
 2133 0524 456E4550 		.ascii	"EnEPCFBoolean_t\000"
 2133      4346426F 
 2133      6F6C6561 
ARM GAS  /tmp/ccJSKCFq.s 			page 45


 2133      6E5F7400 
 2134              	.LASF116:
 2135 0534 64617461 		.ascii	"dataBits\000"
 2135      42697473 
 2135      00
 2136              	.LASF89:
 2137 053d 656E4550 		.ascii	"enEPCFUartBaudrate_19200\000"
 2137      43465561 
 2137      72744261 
 2137      75647261 
 2137      74655F31 
 2138              	.LASF90:
 2139 0556 656E4550 		.ascii	"enEPCFUartBaudrate_38400\000"
 2139      43465561 
 2139      72744261 
 2139      75647261 
 2139      74655F33 
 2140              	.LASF91:
 2141 056f 656E4550 		.ascii	"enEPCFUartBaudrate_57600\000"
 2141      43465561 
 2141      72744261 
 2141      75647261 
 2141      74655F35 
 2142              	.LASF30:
 2143 0588 656E4550 		.ascii	"enEPCFTimeUnit_Max\000"
 2143      43465469 
 2143      6D65556E 
 2143      69745F4D 
 2143      617800
 2144              	.LASF130:
 2145 059b 656E4550 		.ascii	"enEPCFI2cAddress_10bit\000"
 2145      43464932 
 2145      63416464 
 2145      72657373 
 2145      5F313062 
 2146              	.LASF83:
 2147 05b2 45504346 		.ascii	"EPCFGpioCfg_t\000"
 2147      4770696F 
 2147      4366675F 
 2147      7400
 2148              	.LASF59:
 2149 05c0 656E4550 		.ascii	"enEPCFGpioPinMode_Repeater\000"
 2149      43464770 
 2149      696F5069 
 2149      6E4D6F64 
 2149      655F5265 
 2150              	.LASF56:
 2151 05db 456E4550 		.ascii	"EnEPCFGpioDirection_t\000"
 2151      43464770 
 2151      696F4469 
 2151      72656374 
 2151      696F6E5F 
 2152              	.LASF14:
 2153 05f1 73697A65 		.ascii	"sizetype\000"
 2153      74797065 
 2153      00
 2154              	.LASF52:
ARM GAS  /tmp/ccJSKCFq.s 			page 46


 2155 05fa 656E4550 		.ascii	"enEPCFGpioDirection_Input\000"
 2155      43464770 
 2155      696F4469 
 2155      72656374 
 2155      696F6E5F 
 2156              	.LASF48:
 2157 0614 45504346 		.ascii	"EPCFSysClkDevice\000"
 2157      53797343 
 2157      6C6B4465 
 2157      76696365 
 2157      00
 2158              	.LASF68:
 2159 0625 456E4550 		.ascii	"EnEPCFGpioOpenDrain_t\000"
 2159      43464770 
 2159      696F4F70 
 2159      656E4472 
 2159      61696E5F 
 2160              	.LASF43:
 2161 063b 63707546 		.ascii	"cpuFreqHz\000"
 2161      72657148 
 2161      7A00
 2162              	.LASF103:
 2163 0645 656E4550 		.ascii	"enEPCFUartParity_Even\000"
 2163      43465561 
 2163      72745061 
 2163      72697479 
 2163      5F457665 
 2164              	.LASF110:
 2165 065b 656E4550 		.ascii	"enEPCFUartStopBits_Max\000"
 2165      43465561 
 2165      72745374 
 2165      6F704269 
 2165      74735F4D 
 2166              	.LASF144:
 2167 0672 6D795541 		.ascii	"myUART\000"
 2167      525400
 2168              	.LASF143:
 2169 0679 53776974 		.ascii	"Switch\000"
 2169      636800
 2170              	.LASF148:
 2171 0680 4C45445F 		.ascii	"LED_Config\000"
 2171      436F6E66 
 2171      696700
 2172              	.LASF22:
 2173 068b 656E4550 		.ascii	"enEPCFBoolean_False\000"
 2173      4346426F 
 2173      6F6C6561 
 2173      6E5F4661 
 2173      6C736500 
 2174              	.LASF51:
 2175 069f 456E4550 		.ascii	"EnEPCFGpioDirection\000"
 2175      43464770 
 2175      696F4469 
 2175      72656374 
 2175      696F6E00 
 2176              	.LASF21:
 2177 06b3 666C6F61 		.ascii	"float\000"
ARM GAS  /tmp/ccJSKCFq.s 			page 47


 2177      7400
 2178              	.LASF47:
 2179 06b9 45504346 		.ascii	"EPCFGpioDevice_t\000"
 2179      4770696F 
 2179      44657669 
 2179      63655F74 
 2179      00
 2180              	.LASF149:
 2181 06ca 6D794C45 		.ascii	"myLED_Config\000"
 2181      445F436F 
 2181      6E666967 
 2181      00
 2182              	.LASF102:
 2183 06d7 656E4550 		.ascii	"enEPCFUartparity_Odd\000"
 2183      43465561 
 2183      72747061 
 2183      72697479 
 2183      5F4F6464 
 2184              	.LASF124:
 2185 06ec 75617274 		.ascii	"uartTxPin\000"
 2185      54785069 
 2185      6E00
 2186              	.LASF76:
 2187 06f6 706F7274 		.ascii	"portPin\000"
 2187      50696E00 
 2188              	.LASF19:
 2189 06fe 696E7433 		.ascii	"int32_t\000"
 2189      325F7400 
 2190              	.LASF4:
 2191 0706 756E7369 		.ascii	"unsigned char\000"
 2191      676E6564 
 2191      20636861 
 2191      7200
 2192              	.LASF57:
 2193 0714 456E4550 		.ascii	"EnEPCFGpioPinMode\000"
 2193      43464770 
 2193      696F5069 
 2193      6E4D6F64 
 2193      6500
 2194              	.LASF121:
 2195 0726 72784275 		.ascii	"rxBufferSize\000"
 2195      66666572 
 2195      53697A65 
 2195      00
 2196              	.LASF158:
 2197 0733 64656C61 		.ascii	"delay\000"
 2197      7900
 2198              	.LASF5:
 2199 0739 73686F72 		.ascii	"short int\000"
 2199      7420696E 
 2199      7400
 2200              	.LASF146:
 2201 0743 6D79436C 		.ascii	"myClockCfg\000"
 2201      6F636B43 
 2201      666700
 2202              	.LASF147:
 2203 074e 6D794770 		.ascii	"myGpioCfg\000"
ARM GAS  /tmp/ccJSKCFq.s 			page 48


 2203      696F4366 
 2203      6700
 2204              	.LASF141:
 2205 0758 6D794770 		.ascii	"myGpio\000"
 2205      696F00
 2206              	.LASF85:
 2207 075f 45504346 		.ascii	"EPCFUartDevice\000"
 2207      55617274 
 2207      44657669 
 2207      636500
 2208              	.LASF61:
 2209 076e 656E4550 		.ascii	"enEPCFGpioPinMode_PullDown\000"
 2209      43464770 
 2209      696F5069 
 2209      6E4D6F64 
 2209      655F5075 
 2210              	.LASF145:
 2211 0789 69326344 		.ascii	"i2cDevice\000"
 2211      65766963 
 2211      6500
 2212              	.LASF60:
 2213 0793 656E4550 		.ascii	"enEPCFGpioPinMode_NoPullUpDown\000"
 2213      43464770 
 2213      696F5069 
 2213      6E4D6F64 
 2213      655F4E6F 
 2214              	.LASF71:
 2215 07b2 656E4550 		.ascii	"enEPCFGpioIntMode_BothEdge\000"
 2215      43464770 
 2215      696F496E 
 2215      744D6F64 
 2215      655F426F 
 2216              	.LASF123:
 2217 07cd 45504346 		.ascii	"EPCFUartLpc1768Cfg\000"
 2217      55617274 
 2217      4C706331 
 2217      37363843 
 2217      666700
 2218              	.LASF113:
 2219 07e0 45504346 		.ascii	"EPCFUartCfg\000"
 2219      55617274 
 2219      43666700 
 2220              	.LASF23:
 2221 07ec 656E4550 		.ascii	"enEPCFBoolean_True\000"
 2221      4346426F 
 2221      6F6C6561 
 2221      6E5F5472 
 2221      756500
 2222              	.LASF20:
 2223 07ff 75696E74 		.ascii	"uint32_t\000"
 2223      33325F74 
 2223      00
 2224              	.LASF31:
 2225 0808 456E4550 		.ascii	"EnEPCFTimeUnit_t\000"
 2225      43465469 
 2225      6D65556E 
 2225      69745F74 
ARM GAS  /tmp/ccJSKCFq.s 			page 49


 2225      00
 2226              	.LASF152:
 2227 0819 75617274 		.ascii	"uart_Config\000"
 2227      5F436F6E 
 2227      66696700 
 2228              	.LASF38:
 2229 0825 656E4550 		.ascii	"enEPCFPllClkSrcInternalRC\000"
 2229      4346506C 
 2229      6C436C6B 
 2229      53726349 
 2229      6E746572 
 2230              	.LASF75:
 2231 083f 456E4550 		.ascii	"EnEPCFGpioIntMode_t\000"
 2231      43464770 
 2231      696F496E 
 2231      744D6F64 
 2231      655F7400 
 2232              	.LASF65:
 2233 0853 656E4550 		.ascii	"enEPCFGpioOpenDrain_Disable\000"
 2233      43464770 
 2233      696F4F70 
 2233      656E4472 
 2233      61696E5F 
 2234              	.LASF109:
 2235 086f 656E4550 		.ascii	"enEPCFUartStopBits_2\000"
 2235      43465561 
 2235      72745374 
 2235      6F704269 
 2235      74735F32 
 2236              	.LASF15:
 2237 0884 63686172 		.ascii	"char\000"
 2237      00
 2238              	.LASF78:
 2239 0889 6D6F6465 		.ascii	"mode\000"
 2239      00
 2240              	.LASF156:
 2241 088e 2E2F736F 		.ascii	"./source/appConfig.c\000"
 2241      75726365 
 2241      2F617070 
 2241      436F6E66 
 2241      69672E63 
 2242              	.LASF138:
 2243 08a3 45504346 		.ascii	"EPCFI2cCfg_t\000"
 2243      49326343 
 2243      66675F74 
 2243      00
 2244              	.LASF126:
 2245 08b0 45504346 		.ascii	"EPCFUartLpc1768Cfg_t\000"
 2245      55617274 
 2245      4C706331 
 2245      37363843 
 2245      66675F74 
 2246              	.LASF6:
 2247 08c5 5F5F7569 		.ascii	"__uint16_t\000"
 2247      6E743136 
 2247      5F7400
 2248              	.LASF118:
ARM GAS  /tmp/ccJSKCFq.s 			page 50


 2249 08d0 73746F70 		.ascii	"stopBits\000"
 2249      42697473 
 2249      00
 2250              	.LASF159:
 2251 08d9 696E6465 		.ascii	"index\000"
 2251      7800
 2252              	.LASF114:
 2253 08df 75617274 		.ascii	"uartId\000"
 2253      496400
 2254              	.LASF8:
 2255 08e6 5F5F696E 		.ascii	"__int32_t\000"
 2255      7433325F 
 2255      7400
 2256              	.LASF127:
 2257 08f0 45504346 		.ascii	"EPCFI2cDevice_t\000"
 2257      49326344 
 2257      65766963 
 2257      655F7400 
 2258              	.LASF73:
 2259 0900 656E4550 		.ascii	"enEPCFGpioIntMode_HighLevel\000"
 2259      43464770 
 2259      696F496E 
 2259      744D6F64 
 2259      655F4869 
 2260              	.LASF39:
 2261 091c 656E4550 		.ascii	"enEPCFPllClkSrcMainOSC\000"
 2261      4346506C 
 2261      6C436C6B 
 2261      5372634D 
 2261      61696E4F 
 2262              	.LASF7:
 2263 0933 73686F72 		.ascii	"short unsigned int\000"
 2263      7420756E 
 2263      7369676E 
 2263      65642069 
 2263      6E7400
 2264              	.LASF49:
 2265 0946 45504346 		.ascii	"EPCFGpioDevice\000"
 2265      4770696F 
 2265      44657669 
 2265      636500
 2266              	.LASF133:
 2267 0955 69326349 		.ascii	"i2cId\000"
 2267      6400
 2268              	.LASF16:
 2269 095b 696E7438 		.ascii	"int8_t\000"
 2269      5F7400
 2270              	.LASF66:
 2271 0962 656E4550 		.ascii	"enEPCFGpioOpenDrain_Enable\000"
 2271      43464770 
 2271      696F4F70 
 2271      656E4472 
 2271      61696E5F 
 2272              	.LASF28:
 2273 097d 656E4550 		.ascii	"enEPCFTimeUnit_ms\000"
 2273      43465469 
 2273      6D65556E 
ARM GAS  /tmp/ccJSKCFq.s 			page 51


 2273      69745F6D 
 2273      7300
 2274              	.LASF125:
 2275 098f 75617274 		.ascii	"uartRxPin\000"
 2275      52785069 
 2275      6E00
 2276              	.LASF161:
 2277 0999 73657269 		.ascii	"serialPrint\000"
 2277      616C5072 
 2277      696E7400 
 2278              	.LASF82:
 2279 09a5 68617264 		.ascii	"hardwareCfg\000"
 2279      77617265 
 2279      43666700 
 2280              	.LASF131:
 2281 09b1 656E4550 		.ascii	"enEPCFI2cAddressType_Max\000"
 2281      43464932 
 2281      63416464 
 2281      72657373 
 2281      54797065 
 2282              	.LASF108:
 2283 09ca 656E4550 		.ascii	"enEPCFUartStopBits_1\000"
 2283      43465561 
 2283      72745374 
 2283      6F704269 
 2283      74735F31 
 2284              	.LASF41:
 2285 09df 656E4550 		.ascii	"enEPCFClkSrc_Max\000"
 2285      4346436C 
 2285      6B537263 
 2285      5F4D6178 
 2285      00
 2286              	.LASF17:
 2287 09f0 75696E74 		.ascii	"uint8_t\000"
 2287      385F7400 
 2288              	.LASF27:
 2289 09f8 656E4550 		.ascii	"enEPCFTimeUnit_us\000"
 2289      43465469 
 2289      6D65556E 
 2289      69745F75 
 2289      7300
 2290              	.LASF63:
 2291 0a0a 456E4550 		.ascii	"EnEPCFGpioPinMode_t\000"
 2291      43464770 
 2291      696F5069 
 2291      6E4D6F64 
 2291      655F7400 
 2292              	.LASF46:
 2293 0a1e 45504346 		.ascii	"EPCFSysClkCfg_t\000"
 2293      53797343 
 2293      6C6B4366 
 2293      675F7400 
 2294              	.LASF42:
 2295 0a2e 456E4550 		.ascii	"EnEPCFClkSrc_t\000"
 2295      4346436C 
 2295      6B537263 
 2295      5F7400
ARM GAS  /tmp/ccJSKCFq.s 			page 52


 2296              	.LASF99:
 2297 0a3d 656E4550 		.ascii	"enEPCFUartDatabits_Max\000"
 2297      43465561 
 2297      72744461 
 2297      74616269 
 2297      74735F4D 
 2298              	.LASF79:
 2299 0a54 6F70656E 		.ascii	"openDrain\000"
 2299      44726169 
 2299      6E00
 2300              	.LASF111:
 2301 0a5e 456E4550 		.ascii	"EnEPCFUartStopBits_t\000"
 2301      43465561 
 2301      72745374 
 2301      6F704269 
 2301      74735F74 
 2302              	.LASF101:
 2303 0a73 656E4550 		.ascii	"enEPCFUartParity_None\000"
 2303      43465561 
 2303      72745061 
 2303      72697479 
 2303      5F4E6F6E 
 2304              	.LASF129:
 2305 0a89 656E4550 		.ascii	"enEPCFI2cAddress_7bit\000"
 2305      43464932 
 2305      63416464 
 2305      72657373 
 2305      5F376269 
 2306              	.LASF26:
 2307 0a9f 656E4550 		.ascii	"enEPCFTimeUnit_ns\000"
 2307      43465469 
 2307      6D65556E 
 2307      69745F6E 
 2307      7300
 2308              	.LASF97:
 2309 0ab1 656E4550 		.ascii	"enEPCFUartDatabits_7\000"
 2309      43465561 
 2309      72744461 
 2309      74616269 
 2309      74735F37 
 2310              	.LASF98:
 2311 0ac6 656E4550 		.ascii	"enEPCFUartDatabits_8\000"
 2311      43465561 
 2311      72744461 
 2311      74616269 
 2311      74735F38 
 2312              		.ident	"GCC: (15:4.9.3+svn231177-1) 4.9.3 20150529 (prerelease)"
ARM GAS  /tmp/ccJSKCFq.s 			page 53


DEFINED SYMBOLS
                            *ABS*:0000000000000000 appConfig.c
                            *COM*:0000000000000004 myClock
                            *COM*:0000000000000004 myGpio
                            *COM*:0000000000000004 LED
                            *COM*:0000000000000004 myLED
                            *COM*:0000000000000004 Switch
                            *COM*:0000000000000004 myUART
                            *COM*:0000000000000004 i2cDevice
     /tmp/ccJSKCFq.s:60     .data:0000000000000000 myClockCfg
     /tmp/ccJSKCFq.s:57     .data:0000000000000000 $d
     /tmp/ccJSKCFq.s:72     .data:000000000000000c myGpioCfg
     /tmp/ccJSKCFq.s:89     .data:0000000000000018 LED_Config
     /tmp/ccJSKCFq.s:106    .data:0000000000000024 myLED_Config
     /tmp/ccJSKCFq.s:123    .data:0000000000000030 Switch_Config
     /tmp/ccJSKCFq.s:140    .data:000000000000003c uartHWCfg
     /tmp/ccJSKCFq.s:155    .data:0000000000000040 uart_Config
     /tmp/ccJSKCFq.s:179    .data:0000000000000054 i2cConfig
     /tmp/ccJSKCFq.s:212    .data:000000000000007c communicationTimeOuts
     /tmp/ccJSKCFq.s:219    .text:0000000000000000 $t
     /tmp/ccJSKCFq.s:224    .text:0000000000000000 delay
     /tmp/ccJSKCFq.s:262    .text:0000000000000020 $d
     /tmp/ccJSKCFq.s:266    .text:0000000000000024 $t
     /tmp/ccJSKCFq.s:271    .text:0000000000000024 serialBegin
     /tmp/ccJSKCFq.s:293    .text:0000000000000034 $d
     /tmp/ccJSKCFq.s:298    .text:000000000000003c $t
     /tmp/ccJSKCFq.s:303    .text:000000000000003c serialPrint
     /tmp/ccJSKCFq.s:338    .text:0000000000000060 $d
     /tmp/ccJSKCFq.s:343    .text:0000000000000068 $t
     /tmp/ccJSKCFq.s:348    .text:0000000000000068 appInit
     /tmp/ccJSKCFq.s:442    .text:00000000000000f4 $d
                     .debug_frame:0000000000000010 $d

UNDEFINED SYMBOLS
epcf_uart_createNative
epcf_uart_write
epcfCreateSysClk
epcf_gpio_createNative
epcf_i2c_CreateNative
