ARM GAS  /tmp/cc3uritk.s 			page 1


   1              		.syntax unified
   2              		.cpu cortex-m3
   3              		.fpu softvfp
   4              		.eabi_attribute 20, 1	@ Tag_ABI_FP_denormal
   5              		.eabi_attribute 21, 1	@ Tag_ABI_FP_exceptions
   6              		.eabi_attribute 23, 3	@ Tag_ABI_FP_number_model
   7              		.eabi_attribute 24, 1	@ Tag_ABI_align8_needed
   8              		.eabi_attribute 25, 1	@ Tag_ABI_align8_preserved
   9              		.eabi_attribute 26, 1	@ Tag_ABI_enum_size
  10              		.eabi_attribute 30, 6	@ Tag_ABI_optimization_goals
  11              		.eabi_attribute 34, 1	@ Tag_CPU_unaligned_access
  12              		.eabi_attribute 18, 4	@ Tag_ABI_PCS_wchar_t
  13              		.file	"epcf_fifo.c"
  14              	@ GNU C (15:4.9.3+svn231177-1) version 4.9.3 20150529 (prerelease) (arm-none-eabi)
  15              	@	compiled by GNU C version 5.2.1 20151129, GMP version 6.1.0, MPFR version 3.1.3, MPC version 1.0.
  16              	@ warning: MPFR header version 3.1.3 differs from library version 3.1.4.
  17              	@ GGC heuristics: --param ggc-min-expand=100 --param ggc-min-heapsize=131072
  18              	@ options passed:  -I . -I ./include -I ../pcf/include -imultilib armv7-m
  19              	@ -MD Build/Obj/Debug/epcf_fifo.d -MF Build/.dep/epcf_fifo.o.d -MP
  20              	@ -MQ Build/Obj/Debug/epcf_fifo.o -D__USES_INITFINI__
  21              	@ ../epcf/utils/source/epcf_fifo.c -mcpu=cortex-m3 -mthumb
  22              	@ -auxbase-strip Build/Obj/Debug/epcf_fifo.o -gdwarf-2 -O0 -Wall -Wno-cpp
  23              	@ -std=gnu99 -fomit-frame-pointer -fverbose-asm
  24              	@ options enabled:  -faggressive-loop-optimizations -fauto-inc-dec -fcommon
  25              	@ -fdelete-null-pointer-checks -fdwarf2-cfi-asm -fearly-inlining
  26              	@ -feliminate-unused-debug-types -ffunction-cse -fgcse-lm -fgnu-runtime
  27              	@ -fgnu-unique -fident -finline-atomics -fira-hoist-pressure
  28              	@ -fira-share-save-slots -fira-share-spill-slots -fivopts
  29              	@ -fkeep-static-consts -fleading-underscore -flifetime-dse -fmath-errno
  30              	@ -fmerge-debug-strings -fomit-frame-pointer -fpeephole
  31              	@ -fprefetch-loop-arrays -freg-struct-return
  32              	@ -fsched-critical-path-heuristic -fsched-dep-count-heuristic
  33              	@ -fsched-group-heuristic -fsched-interblock -fsched-last-insn-heuristic
  34              	@ -fsched-rank-heuristic -fsched-spec -fsched-spec-insn-heuristic
  35              	@ -fsched-stalled-insns-dep -fshow-column -fsigned-zeros
  36              	@ -fsplit-ivs-in-unroller -fstrict-volatile-bitfields -fsync-libcalls
  37              	@ -ftrapping-math -ftree-coalesce-vars -ftree-cselim -ftree-forwprop
  38              	@ -ftree-loop-if-convert -ftree-loop-im -ftree-loop-ivcanon
  39              	@ -ftree-loop-optimize -ftree-parallelize-loops= -ftree-phiprop
  40              	@ -ftree-reassoc -ftree-scev-cprop -funit-at-a-time -fverbose-asm
  41              	@ -fzero-initialized-in-bss -mfix-cortex-m3-ldrd -mlittle-endian -mlra
  42              	@ -mpic-data-is-text-relative -msched-prolog -mthumb -munaligned-access
  43              	@ -mvectorize-with-neon-quad
  44              	
  45              		.text
  46              	.Ltext0:
  47              		.cfi_sections	.debug_frame
  48              		.align	2
  49              		.global	pcfFifoInit
  50              		.thumb
  51              		.thumb_func
  52              		.type	pcfFifoInit, %function
  53              	pcfFifoInit:
  54              	.LFB40:
  55              		.file 1 "../epcf/utils/source/epcf_fifo.c"
   1:../epcf/utils/source/epcf_fifo.c **** #include "pcf.h"
   2:../epcf/utils/source/epcf_fifo.c **** 
ARM GAS  /tmp/cc3uritk.s 			page 2


   3:../epcf/utils/source/epcf_fifo.c **** #define __EPCF_UTILS_FIFO_INCLUDE PCF_CONDITIONAL_INCLUDE_FILE(EPCF_DIR_PATH/,utils/,include/,epcf_
   4:../epcf/utils/source/epcf_fifo.c **** #include __EPCF_UTILS_FIFO_INCLUDE
   5:../epcf/utils/source/epcf_fifo.c **** #undef __EPCF_UTILS_FIFO_INCLUDE
   6:../epcf/utils/source/epcf_fifo.c **** 
   7:../epcf/utils/source/epcf_fifo.c **** /** \brief FIFO descriptor */
   8:../epcf/utils/source/epcf_fifo.c **** typedef struct PCFFifoDesc
   9:../epcf/utils/source/epcf_fifo.c **** {
  10:../epcf/utils/source/epcf_fifo.c ****   uint8_t* pBegin;          /**< pointer to the beginning of storage buffer */
  11:../epcf/utils/source/epcf_fifo.c ****   uint8_t* volatile pHead;  /**< pointer to the first element               */
  12:../epcf/utils/source/epcf_fifo.c ****   uint8_t* volatile pTail;  /**< pointer to the last element                */
  13:../epcf/utils/source/epcf_fifo.c ****   uint8_t* pEnd;            /**< pointer to the end of storage buffer       */
  14:../epcf/utils/source/epcf_fifo.c ****   uint32_t size;            /**< fifo buffer size in bytes                  */
  15:../epcf/utils/source/epcf_fifo.c ****   uint32_t count;           /**< count of the elements in buffer            */
  16:../epcf/utils/source/epcf_fifo.c **** }PCFFifoDesc_t;
  17:../epcf/utils/source/epcf_fifo.c **** 
  18:../epcf/utils/source/epcf_fifo.c **** PCFFifoDesc_t* pcfFifoInit(uint8_t* pBuf, uint32_t uSize)
  19:../epcf/utils/source/epcf_fifo.c **** {
  56              		.loc 1 19 0
  57              		.cfi_startproc
  58              		@ args = 0, pretend = 0, frame = 16
  59              		@ frame_needed = 0, uses_anonymous_args = 0
  60 0000 00B5     		push	{lr}	@
  61              	.LCFI0:
  62              		.cfi_def_cfa_offset 4
  63              		.cfi_offset 14, -4
  64 0002 85B0     		sub	sp, sp, #20	@,,
  65              	.LCFI1:
  66              		.cfi_def_cfa_offset 24
  67 0004 0190     		str	r0, [sp, #4]	@ pBuf, pBuf
  68 0006 0091     		str	r1, [sp]	@ uSize, uSize
  20:../epcf/utils/source/epcf_fifo.c ****     PCFFifoDesc_t* pFifo;
  21:../epcf/utils/source/epcf_fifo.c ****     
  22:../epcf/utils/source/epcf_fifo.c **** #if (PF_UTILS_DEBUG == 1)
  23:../epcf/utils/source/epcf_fifo.c **** 	if(pBuf == 0)
  24:../epcf/utils/source/epcf_fifo.c **** 	{
  25:../epcf/utils/source/epcf_fifo.c **** 		return EPCF_STATUS_INVALID_ARGS;
  26:../epcf/utils/source/epcf_fifo.c **** 	}
  27:../epcf/utils/source/epcf_fifo.c **** #endif	//	#if (PF_UTILS_DEBUG == 1)
  28:../epcf/utils/source/epcf_fifo.c ****         
  29:../epcf/utils/source/epcf_fifo.c ****     pFifo = (PCFFifoDesc_t*)malloc(sizeof(PCFFifoDesc_t));
  69              		.loc 1 29 0
  70 0008 1820     		movs	r0, #24	@,
  71 000a FFF7FEFF 		bl	malloc	@
  72 000e 0346     		mov	r3, r0	@ tmp116,
  73 0010 0393     		str	r3, [sp, #12]	@ tmp116, pFifo
  30:../epcf/utils/source/epcf_fifo.c ****     if(pFifo == 0)
  74              		.loc 1 30 0
  75 0012 039B     		ldr	r3, [sp, #12]	@ tmp117, pFifo
  76 0014 002B     		cmp	r3, #0	@ tmp117,
  77 0016 01D1     		bne	.L2	@,
  31:../epcf/utils/source/epcf_fifo.c ****         return NULL;
  78              		.loc 1 31 0
  79 0018 0023     		movs	r3, #0	@ D.6337,
  80 001a 1DE0     		b	.L3	@
  81              	.L2:
  32:../epcf/utils/source/epcf_fifo.c ****     
  33:../epcf/utils/source/epcf_fifo.c **** 	pFifo->pHead = pBuf;
ARM GAS  /tmp/cc3uritk.s 			page 3


  82              		.loc 1 33 0
  83 001c 039B     		ldr	r3, [sp, #12]	@ tmp118, pFifo
  84 001e 019A     		ldr	r2, [sp, #4]	@ tmp119, pBuf
  85 0020 5A60     		str	r2, [r3, #4]	@ tmp119, pFifo_2->pHead
  34:../epcf/utils/source/epcf_fifo.c **** 	pFifo->pTail = pBuf;
  86              		.loc 1 34 0
  87 0022 039B     		ldr	r3, [sp, #12]	@ tmp120, pFifo
  88 0024 019A     		ldr	r2, [sp, #4]	@ tmp121, pBuf
  89 0026 9A60     		str	r2, [r3, #8]	@ tmp121, pFifo_2->pTail
  35:../epcf/utils/source/epcf_fifo.c **** 	pFifo->pBegin = pBuf;
  90              		.loc 1 35 0
  91 0028 039B     		ldr	r3, [sp, #12]	@ tmp122, pFifo
  92 002a 019A     		ldr	r2, [sp, #4]	@ tmp123, pBuf
  93 002c 1A60     		str	r2, [r3]	@ tmp123, pFifo_2->pBegin
  36:../epcf/utils/source/epcf_fifo.c **** 	pFifo->pEnd = pBuf + uSize - 1;
  94              		.loc 1 36 0
  95 002e 009B     		ldr	r3, [sp]	@ tmp124, uSize
  96 0030 013B     		subs	r3, r3, #1	@ D.6338, tmp124,
  97 0032 019A     		ldr	r2, [sp, #4]	@ tmp125, pBuf
  98 0034 1A44     		add	r2, r2, r3	@ D.6339, D.6338
  99 0036 039B     		ldr	r3, [sp, #12]	@ tmp126, pFifo
 100 0038 DA60     		str	r2, [r3, #12]	@ D.6339, pFifo_2->pEnd
  37:../epcf/utils/source/epcf_fifo.c **** 	pFifo->size = uSize;
 101              		.loc 1 37 0
 102 003a 039B     		ldr	r3, [sp, #12]	@ tmp127, pFifo
 103 003c 009A     		ldr	r2, [sp]	@ tmp128, uSize
 104 003e 1A61     		str	r2, [r3, #16]	@ tmp128, pFifo_2->size
  38:../epcf/utils/source/epcf_fifo.c **** 	pFifo->count = 0;
 105              		.loc 1 38 0
 106 0040 039B     		ldr	r3, [sp, #12]	@ tmp129, pFifo
 107 0042 0022     		movs	r2, #0	@ tmp130,
 108 0044 5A61     		str	r2, [r3, #20]	@ tmp130, pFifo_2->count
  39:../epcf/utils/source/epcf_fifo.c **** 	
  40:../epcf/utils/source/epcf_fifo.c **** 	if(pFifo->pBegin > pFifo->pEnd)
 109              		.loc 1 40 0
 110 0046 039B     		ldr	r3, [sp, #12]	@ tmp131, pFifo
 111 0048 1A68     		ldr	r2, [r3]	@ D.6339, pFifo_2->pBegin
 112 004a 039B     		ldr	r3, [sp, #12]	@ tmp132, pFifo
 113 004c DB68     		ldr	r3, [r3, #12]	@ D.6339, pFifo_2->pEnd
 114 004e 9A42     		cmp	r2, r3	@ D.6339, D.6339
 115 0050 01D9     		bls	.L4	@,
  41:../epcf/utils/source/epcf_fifo.c **** 	{
  42:../epcf/utils/source/epcf_fifo.c **** 		return NULL;
 116              		.loc 1 42 0
 117 0052 0023     		movs	r3, #0	@ D.6337,
 118 0054 00E0     		b	.L3	@
 119              	.L4:
  43:../epcf/utils/source/epcf_fifo.c **** 	}
  44:../epcf/utils/source/epcf_fifo.c **** 	return pFifo;
 120              		.loc 1 44 0
 121 0056 039B     		ldr	r3, [sp, #12]	@ D.6337, pFifo
 122              	.L3:
  45:../epcf/utils/source/epcf_fifo.c **** }
 123              		.loc 1 45 0
 124 0058 1846     		mov	r0, r3	@, <retval>
 125 005a 05B0     		add	sp, sp, #20	@,,
 126              	.LCFI2:
ARM GAS  /tmp/cc3uritk.s 			page 4


 127              		.cfi_def_cfa_offset 4
 128              		@ sp needed	@
 129 005c 5DF804FB 		ldr	pc, [sp], #4	@
 130              		.cfi_endproc
 131              	.LFE40:
 132              		.size	pcfFifoInit, .-pcfFifoInit
 133              		.align	2
 134              		.global	pcfFifoLength
 135              		.thumb
 136              		.thumb_func
 137              		.type	pcfFifoLength, %function
 138              	pcfFifoLength:
 139              	.LFB41:
  46:../epcf/utils/source/epcf_fifo.c **** 
  47:../epcf/utils/source/epcf_fifo.c **** uint32_t pcfFifoLength(PCFFifoDesc_t* pFifo)
  48:../epcf/utils/source/epcf_fifo.c **** {
 140              		.loc 1 48 0
 141              		.cfi_startproc
 142              		@ args = 0, pretend = 0, frame = 8
 143              		@ frame_needed = 0, uses_anonymous_args = 0
 144              		@ link register save eliminated.
 145 0060 82B0     		sub	sp, sp, #8	@,,
 146              	.LCFI3:
 147              		.cfi_def_cfa_offset 8
 148 0062 0190     		str	r0, [sp, #4]	@ pFifo, pFifo
  49:../epcf/utils/source/epcf_fifo.c **** 	return pFifo->size;
 149              		.loc 1 49 0
 150 0064 019B     		ldr	r3, [sp, #4]	@ tmp112, pFifo
 151 0066 1B69     		ldr	r3, [r3, #16]	@ D.6340, pFifo_1(D)->size
  50:../epcf/utils/source/epcf_fifo.c **** }
 152              		.loc 1 50 0
 153 0068 1846     		mov	r0, r3	@, <retval>
 154 006a 02B0     		add	sp, sp, #8	@,,
 155              	.LCFI4:
 156              		.cfi_def_cfa_offset 0
 157              		@ sp needed	@
 158 006c 7047     		bx	lr	@
 159              		.cfi_endproc
 160              	.LFE41:
 161              		.size	pcfFifoLength, .-pcfFifoLength
 162 006e 00BF     		.align	2
 163              		.global	pcfFifoCount
 164              		.thumb
 165              		.thumb_func
 166              		.type	pcfFifoCount, %function
 167              	pcfFifoCount:
 168              	.LFB42:
  51:../epcf/utils/source/epcf_fifo.c **** 
  52:../epcf/utils/source/epcf_fifo.c **** 
  53:../epcf/utils/source/epcf_fifo.c **** uint32_t pcfFifoCount(PCFFifoDesc_t* pFifo)
  54:../epcf/utils/source/epcf_fifo.c **** {
 169              		.loc 1 54 0
 170              		.cfi_startproc
 171              		@ args = 0, pretend = 0, frame = 8
 172              		@ frame_needed = 0, uses_anonymous_args = 0
 173              		@ link register save eliminated.
 174 0070 82B0     		sub	sp, sp, #8	@,,
ARM GAS  /tmp/cc3uritk.s 			page 5


 175              	.LCFI5:
 176              		.cfi_def_cfa_offset 8
 177 0072 0190     		str	r0, [sp, #4]	@ pFifo, pFifo
  55:../epcf/utils/source/epcf_fifo.c **** 	return pFifo->count;
 178              		.loc 1 55 0
 179 0074 019B     		ldr	r3, [sp, #4]	@ tmp112, pFifo
 180 0076 5B69     		ldr	r3, [r3, #20]	@ D.6341, pFifo_1(D)->count
  56:../epcf/utils/source/epcf_fifo.c **** }
 181              		.loc 1 56 0
 182 0078 1846     		mov	r0, r3	@, <retval>
 183 007a 02B0     		add	sp, sp, #8	@,,
 184              	.LCFI6:
 185              		.cfi_def_cfa_offset 0
 186              		@ sp needed	@
 187 007c 7047     		bx	lr	@
 188              		.cfi_endproc
 189              	.LFE42:
 190              		.size	pcfFifoCount, .-pcfFifoCount
 191 007e 00BF     		.align	2
 192              		.global	pcfFifoPush
 193              		.thumb
 194              		.thumb_func
 195              		.type	pcfFifoPush, %function
 196              	pcfFifoPush:
 197              	.LFB43:
  57:../epcf/utils/source/epcf_fifo.c **** 
  58:../epcf/utils/source/epcf_fifo.c **** 
  59:../epcf/utils/source/epcf_fifo.c **** EnEPCFBoolean_t pcfFifoPush(PCFFifoDesc_t* pFifo, uint8_t c)
  60:../epcf/utils/source/epcf_fifo.c **** {
 198              		.loc 1 60 0
 199              		.cfi_startproc
 200              		@ args = 0, pretend = 0, frame = 8
 201              		@ frame_needed = 0, uses_anonymous_args = 0
 202              		@ link register save eliminated.
 203 0080 82B0     		sub	sp, sp, #8	@,,
 204              	.LCFI7:
 205              		.cfi_def_cfa_offset 8
 206 0082 0190     		str	r0, [sp, #4]	@ pFifo, pFifo
 207 0084 0B46     		mov	r3, r1	@ tmp122, c
 208 0086 8DF80330 		strb	r3, [sp, #3]	@ tmp123, c
  61:../epcf/utils/source/epcf_fifo.c **** 	if(pFifo->count < pFifo->size)
 209              		.loc 1 61 0
 210 008a 019B     		ldr	r3, [sp, #4]	@ tmp124, pFifo
 211 008c 5A69     		ldr	r2, [r3, #20]	@ D.6343, pFifo_2(D)->count
 212 008e 019B     		ldr	r3, [sp, #4]	@ tmp125, pFifo
 213 0090 1B69     		ldr	r3, [r3, #16]	@ D.6343, pFifo_2(D)->size
 214 0092 9A42     		cmp	r2, r3	@ D.6343, D.6343
 215 0094 1AD2     		bcs	.L10	@,
  62:../epcf/utils/source/epcf_fifo.c **** 	{
  63:../epcf/utils/source/epcf_fifo.c **** 		*(pFifo->pTail) = c;
 216              		.loc 1 63 0
 217 0096 019B     		ldr	r3, [sp, #4]	@ tmp126, pFifo
 218 0098 9B68     		ldr	r3, [r3, #8]	@ D.6344, pFifo_2(D)->pTail
 219 009a 9DF80320 		ldrb	r2, [sp, #3]	@ tmp127, c
 220 009e 1A70     		strb	r2, [r3]	@ tmp127, *_6
  64:../epcf/utils/source/epcf_fifo.c **** 		pFifo->count++;
 221              		.loc 1 64 0
ARM GAS  /tmp/cc3uritk.s 			page 6


 222 00a0 019B     		ldr	r3, [sp, #4]	@ tmp128, pFifo
 223 00a2 5B69     		ldr	r3, [r3, #20]	@ D.6343, pFifo_2(D)->count
 224 00a4 5A1C     		adds	r2, r3, #1	@ D.6343, D.6343,
 225 00a6 019B     		ldr	r3, [sp, #4]	@ tmp129, pFifo
 226 00a8 5A61     		str	r2, [r3, #20]	@ D.6343, pFifo_2(D)->count
  65:../epcf/utils/source/epcf_fifo.c **** 		if (pFifo->pTail == pFifo->pEnd)
 227              		.loc 1 65 0
 228 00aa 019B     		ldr	r3, [sp, #4]	@ tmp130, pFifo
 229 00ac 9A68     		ldr	r2, [r3, #8]	@ D.6344, pFifo_2(D)->pTail
 230 00ae 019B     		ldr	r3, [sp, #4]	@ tmp131, pFifo
 231 00b0 DB68     		ldr	r3, [r3, #12]	@ D.6344, pFifo_2(D)->pEnd
 232 00b2 9A42     		cmp	r2, r3	@ D.6344, D.6344
 233 00b4 04D1     		bne	.L11	@,
  66:../epcf/utils/source/epcf_fifo.c **** 		{
  67:../epcf/utils/source/epcf_fifo.c **** 			pFifo->pTail = pFifo->pBegin;
 234              		.loc 1 67 0
 235 00b6 019B     		ldr	r3, [sp, #4]	@ tmp132, pFifo
 236 00b8 1A68     		ldr	r2, [r3]	@ D.6344, pFifo_2(D)->pBegin
 237 00ba 019B     		ldr	r3, [sp, #4]	@ tmp133, pFifo
 238 00bc 9A60     		str	r2, [r3, #8]	@ D.6344, pFifo_2(D)->pTail
 239 00be 07E0     		b	.L13	@
 240              	.L11:
  68:../epcf/utils/source/epcf_fifo.c **** 		}
  69:../epcf/utils/source/epcf_fifo.c **** 		else
  70:../epcf/utils/source/epcf_fifo.c **** 		{
  71:../epcf/utils/source/epcf_fifo.c **** 			pFifo->pTail++;
 241              		.loc 1 71 0
 242 00c0 019B     		ldr	r3, [sp, #4]	@ tmp134, pFifo
 243 00c2 9B68     		ldr	r3, [r3, #8]	@ D.6344, pFifo_2(D)->pTail
 244 00c4 5A1C     		adds	r2, r3, #1	@ D.6344, D.6344,
 245 00c6 019B     		ldr	r3, [sp, #4]	@ tmp135, pFifo
 246 00c8 9A60     		str	r2, [r3, #8]	@ D.6344, pFifo_2(D)->pTail
 247 00ca 01E0     		b	.L13	@
 248              	.L10:
  72:../epcf/utils/source/epcf_fifo.c **** 		}
  73:../epcf/utils/source/epcf_fifo.c **** 	}
  74:../epcf/utils/source/epcf_fifo.c **** 	else
  75:../epcf/utils/source/epcf_fifo.c **** 	{
  76:../epcf/utils/source/epcf_fifo.c **** 	#if(PF_FIFO_OVERWRITE_ENABLE == 0)
  77:../epcf/utils/source/epcf_fifo.c **** 		return enEPCFBoolean_False;
 249              		.loc 1 77 0
 250 00cc 0023     		movs	r3, #0	@ D.6342,
 251 00ce 00E0     		b	.L14	@
 252              	.L13:
  78:../epcf/utils/source/epcf_fifo.c **** 	#else
  79:../epcf/utils/source/epcf_fifo.c **** 		*(pFifo->pTail) = c;
  80:../epcf/utils/source/epcf_fifo.c **** 		if(pFifo->pTail == pFifo->pHead)
  81:../epcf/utils/source/epcf_fifo.c **** 		{
  82:../epcf/utils/source/epcf_fifo.c **** 			if (pFifo->pTail == pFifo->pEnd)
  83:../epcf/utils/source/epcf_fifo.c **** 			{
  84:../epcf/utils/source/epcf_fifo.c **** 				pFifo->pTail = pFifo->pBegin;
  85:../epcf/utils/source/epcf_fifo.c **** 				pFifo->pHead = pFifo->pBegin;
  86:../epcf/utils/source/epcf_fifo.c **** 			}
  87:../epcf/utils/source/epcf_fifo.c **** 			else
  88:../epcf/utils/source/epcf_fifo.c **** 			{
  89:../epcf/utils/source/epcf_fifo.c **** 				pFifo->pTail++;
  90:../epcf/utils/source/epcf_fifo.c **** 				pFifo->pHead++;
ARM GAS  /tmp/cc3uritk.s 			page 7


  91:../epcf/utils/source/epcf_fifo.c **** 			}
  92:../epcf/utils/source/epcf_fifo.c **** 		}
  93:../epcf/utils/source/epcf_fifo.c **** 	#endif
  94:../epcf/utils/source/epcf_fifo.c **** 	}
  95:../epcf/utils/source/epcf_fifo.c **** 	return enEPCFBoolean_True;
 253              		.loc 1 95 0
 254 00d0 0123     		movs	r3, #1	@ D.6342,
 255              	.L14:
  96:../epcf/utils/source/epcf_fifo.c **** }
 256              		.loc 1 96 0
 257 00d2 1846     		mov	r0, r3	@, <retval>
 258 00d4 02B0     		add	sp, sp, #8	@,,
 259              	.LCFI8:
 260              		.cfi_def_cfa_offset 0
 261              		@ sp needed	@
 262 00d6 7047     		bx	lr	@
 263              		.cfi_endproc
 264              	.LFE43:
 265              		.size	pcfFifoPush, .-pcfFifoPush
 266              		.align	2
 267              		.global	pcfFifoPop
 268              		.thumb
 269              		.thumb_func
 270              		.type	pcfFifoPop, %function
 271              	pcfFifoPop:
 272              	.LFB44:
  97:../epcf/utils/source/epcf_fifo.c **** 
  98:../epcf/utils/source/epcf_fifo.c **** uint8_t pcfFifoPop(PCFFifoDesc_t* pFifo)
  99:../epcf/utils/source/epcf_fifo.c **** {
 273              		.loc 1 99 0
 274              		.cfi_startproc
 275              		@ args = 0, pretend = 0, frame = 8
 276              		@ frame_needed = 0, uses_anonymous_args = 0
 277              		@ link register save eliminated.
 278 00d8 82B0     		sub	sp, sp, #8	@,,
 279              	.LCFI9:
 280              		.cfi_def_cfa_offset 8
 281 00da 0190     		str	r0, [sp, #4]	@ pFifo, pFifo
 100:../epcf/utils/source/epcf_fifo.c **** 	if(pFifo->count == 0)
 282              		.loc 1 100 0
 283 00dc 019B     		ldr	r3, [sp, #4]	@ tmp121, pFifo
 284 00de 5B69     		ldr	r3, [r3, #20]	@ D.6346, pFifo_2(D)->count
 285 00e0 002B     		cmp	r3, #0	@ D.6346,
 286 00e2 01D1     		bne	.L16	@,
 101:../epcf/utils/source/epcf_fifo.c **** 	{
 102:../epcf/utils/source/epcf_fifo.c **** 		return 0xFF;
 287              		.loc 1 102 0
 288 00e4 FF23     		movs	r3, #255	@ D.6345,
 289 00e6 18E0     		b	.L17	@
 290              	.L16:
 103:../epcf/utils/source/epcf_fifo.c **** 	}
 104:../epcf/utils/source/epcf_fifo.c **** 	pFifo->count--;
 291              		.loc 1 104 0
 292 00e8 019B     		ldr	r3, [sp, #4]	@ tmp122, pFifo
 293 00ea 5B69     		ldr	r3, [r3, #20]	@ D.6346, pFifo_2(D)->count
 294 00ec 5A1E     		subs	r2, r3, #1	@ D.6346, D.6346,
 295 00ee 019B     		ldr	r3, [sp, #4]	@ tmp123, pFifo
ARM GAS  /tmp/cc3uritk.s 			page 8


 296 00f0 5A61     		str	r2, [r3, #20]	@ D.6346, pFifo_2(D)->count
 105:../epcf/utils/source/epcf_fifo.c **** 	if (pFifo->pHead == pFifo->pEnd)
 297              		.loc 1 105 0
 298 00f2 019B     		ldr	r3, [sp, #4]	@ tmp124, pFifo
 299 00f4 5A68     		ldr	r2, [r3, #4]	@ D.6347, pFifo_2(D)->pHead
 300 00f6 019B     		ldr	r3, [sp, #4]	@ tmp125, pFifo
 301 00f8 DB68     		ldr	r3, [r3, #12]	@ D.6347, pFifo_2(D)->pEnd
 302 00fa 9A42     		cmp	r2, r3	@ D.6347, D.6347
 303 00fc 07D1     		bne	.L18	@,
 106:../epcf/utils/source/epcf_fifo.c **** 	{
 107:../epcf/utils/source/epcf_fifo.c **** 		pFifo->pHead = pFifo->pBegin;
 304              		.loc 1 107 0
 305 00fe 019B     		ldr	r3, [sp, #4]	@ tmp126, pFifo
 306 0100 1A68     		ldr	r2, [r3]	@ D.6347, pFifo_2(D)->pBegin
 307 0102 019B     		ldr	r3, [sp, #4]	@ tmp127, pFifo
 308 0104 5A60     		str	r2, [r3, #4]	@ D.6347, pFifo_2(D)->pHead
 108:../epcf/utils/source/epcf_fifo.c **** 		return *(pFifo->pEnd);
 309              		.loc 1 108 0
 310 0106 019B     		ldr	r3, [sp, #4]	@ tmp128, pFifo
 311 0108 DB68     		ldr	r3, [r3, #12]	@ D.6347, pFifo_2(D)->pEnd
 312 010a 1B78     		ldrb	r3, [r3]	@ zero_extendqisi2	@ D.6345, *_10
 313 010c 05E0     		b	.L17	@
 314              	.L18:
 109:../epcf/utils/source/epcf_fifo.c **** 	}
 110:../epcf/utils/source/epcf_fifo.c **** 	else
 111:../epcf/utils/source/epcf_fifo.c **** 	{
 112:../epcf/utils/source/epcf_fifo.c **** 		return *(pFifo->pHead++);
 315              		.loc 1 112 0
 316 010e 019B     		ldr	r3, [sp, #4]	@ tmp129, pFifo
 317 0110 5B68     		ldr	r3, [r3, #4]	@ D.6347, pFifo_2(D)->pHead
 318 0112 591C     		adds	r1, r3, #1	@ D.6347, D.6347,
 319 0114 019A     		ldr	r2, [sp, #4]	@ tmp130, pFifo
 320 0116 5160     		str	r1, [r2, #4]	@ D.6347, pFifo_2(D)->pHead
 321 0118 1B78     		ldrb	r3, [r3]	@ zero_extendqisi2	@ D.6345, *_13
 322              	.L17:
 113:../epcf/utils/source/epcf_fifo.c **** 	}
 114:../epcf/utils/source/epcf_fifo.c **** }
 323              		.loc 1 114 0
 324 011a 1846     		mov	r0, r3	@, <retval>
 325 011c 02B0     		add	sp, sp, #8	@,,
 326              	.LCFI10:
 327              		.cfi_def_cfa_offset 0
 328              		@ sp needed	@
 329 011e 7047     		bx	lr	@
 330              		.cfi_endproc
 331              	.LFE44:
 332              		.size	pcfFifoPop, .-pcfFifoPop
 333              		.align	2
 334              		.global	pcfFifoFlush
 335              		.thumb
 336              		.thumb_func
 337              		.type	pcfFifoFlush, %function
 338              	pcfFifoFlush:
 339              	.LFB45:
 115:../epcf/utils/source/epcf_fifo.c **** 
 116:../epcf/utils/source/epcf_fifo.c **** void pcfFifoFlush(PCFFifoDesc_t* pFifo)
 117:../epcf/utils/source/epcf_fifo.c **** {
ARM GAS  /tmp/cc3uritk.s 			page 9


 340              		.loc 1 117 0
 341              		.cfi_startproc
 342              		@ args = 0, pretend = 0, frame = 8
 343              		@ frame_needed = 0, uses_anonymous_args = 0
 344              		@ link register save eliminated.
 345 0120 82B0     		sub	sp, sp, #8	@,,
 346              	.LCFI11:
 347              		.cfi_def_cfa_offset 8
 348 0122 0190     		str	r0, [sp, #4]	@ pFifo, pFifo
 118:../epcf/utils/source/epcf_fifo.c **** 	pFifo->pHead = pFifo->pTail;
 349              		.loc 1 118 0
 350 0124 019B     		ldr	r3, [sp, #4]	@ tmp111, pFifo
 351 0126 9A68     		ldr	r2, [r3, #8]	@ D.6348, pFifo_1(D)->pTail
 352 0128 019B     		ldr	r3, [sp, #4]	@ tmp112, pFifo
 353 012a 5A60     		str	r2, [r3, #4]	@ D.6348, pFifo_1(D)->pHead
 119:../epcf/utils/source/epcf_fifo.c **** 	pFifo->count = 0;
 354              		.loc 1 119 0
 355 012c 019B     		ldr	r3, [sp, #4]	@ tmp113, pFifo
 356 012e 0022     		movs	r2, #0	@ tmp114,
 357 0130 5A61     		str	r2, [r3, #20]	@ tmp114, pFifo_1(D)->count
 120:../epcf/utils/source/epcf_fifo.c **** }
 358              		.loc 1 120 0
 359 0132 02B0     		add	sp, sp, #8	@,,
 360              	.LCFI12:
 361              		.cfi_def_cfa_offset 0
 362              		@ sp needed	@
 363 0134 7047     		bx	lr	@
 364              		.cfi_endproc
 365              	.LFE45:
 366              		.size	pcfFifoFlush, .-pcfFifoFlush
 367 0136 00BF     		.align	2
 368              		.global	pcfFifoIsEmpty
 369              		.thumb
 370              		.thumb_func
 371              		.type	pcfFifoIsEmpty, %function
 372              	pcfFifoIsEmpty:
 373              	.LFB46:
 121:../epcf/utils/source/epcf_fifo.c **** 
 122:../epcf/utils/source/epcf_fifo.c **** EnEPCFBoolean_t pcfFifoIsEmpty(const PCFFifoDesc_t* pFifo)
 123:../epcf/utils/source/epcf_fifo.c **** {
 374              		.loc 1 123 0
 375              		.cfi_startproc
 376              		@ args = 0, pretend = 0, frame = 8
 377              		@ frame_needed = 0, uses_anonymous_args = 0
 378              		@ link register save eliminated.
 379 0138 82B0     		sub	sp, sp, #8	@,,
 380              	.LCFI13:
 381              		.cfi_def_cfa_offset 8
 382 013a 0190     		str	r0, [sp, #4]	@ pFifo, pFifo
 124:../epcf/utils/source/epcf_fifo.c **** 	return ( (pFifo->count > 0) ? enEPCFBoolean_False : enEPCFBoolean_True);
 383              		.loc 1 124 0
 384 013c 019B     		ldr	r3, [sp, #4]	@ tmp114, pFifo
 385 013e 5B69     		ldr	r3, [r3, #20]	@ D.6349, pFifo_1(D)->count
 386 0140 002B     		cmp	r3, #0	@ D.6349,
 387 0142 0CBF     		ite	eq
 388 0144 0123     		moveq	r3, #1	@ tmp116,
 389 0146 0023     		movne	r3, #0	@ tmp116,
ARM GAS  /tmp/cc3uritk.s 			page 10


 390 0148 DBB2     		uxtb	r3, r3	@ D.6350, tmp115
 125:../epcf/utils/source/epcf_fifo.c **** }
 391              		.loc 1 125 0
 392 014a 1846     		mov	r0, r3	@, <retval>
 393 014c 02B0     		add	sp, sp, #8	@,,
 394              	.LCFI14:
 395              		.cfi_def_cfa_offset 0
 396              		@ sp needed	@
 397 014e 7047     		bx	lr	@
 398              		.cfi_endproc
 399              	.LFE46:
 400              		.size	pcfFifoIsEmpty, .-pcfFifoIsEmpty
 401              		.align	2
 402              		.global	pcfFifoIsFull
 403              		.thumb
 404              		.thumb_func
 405              		.type	pcfFifoIsFull, %function
 406              	pcfFifoIsFull:
 407              	.LFB47:
 126:../epcf/utils/source/epcf_fifo.c **** 
 127:../epcf/utils/source/epcf_fifo.c **** EnEPCFBoolean_t pcfFifoIsFull(const PCFFifoDesc_t* pFifo)
 128:../epcf/utils/source/epcf_fifo.c **** {
 408              		.loc 1 128 0
 409              		.cfi_startproc
 410              		@ args = 0, pretend = 0, frame = 8
 411              		@ frame_needed = 0, uses_anonymous_args = 0
 412              		@ link register save eliminated.
 413 0150 82B0     		sub	sp, sp, #8	@,,
 414              	.LCFI15:
 415              		.cfi_def_cfa_offset 8
 416 0152 0190     		str	r0, [sp, #4]	@ pFifo, pFifo
 129:../epcf/utils/source/epcf_fifo.c **** 	return ( (pFifo->count < pFifo->size) ? enEPCFBoolean_False : enEPCFBoolean_True);
 417              		.loc 1 129 0
 418 0154 019B     		ldr	r3, [sp, #4]	@ tmp115, pFifo
 419 0156 5A69     		ldr	r2, [r3, #20]	@ D.6352, pFifo_1(D)->count
 420 0158 019B     		ldr	r3, [sp, #4]	@ tmp116, pFifo
 421 015a 1B69     		ldr	r3, [r3, #16]	@ D.6352, pFifo_1(D)->size
 422 015c 9A42     		cmp	r2, r3	@ D.6352, D.6352
 423 015e 2CBF     		ite	cs
 424 0160 0123     		movcs	r3, #1	@ tmp118,
 425 0162 0023     		movcc	r3, #0	@ tmp118,
 426 0164 DBB2     		uxtb	r3, r3	@ D.6353, tmp117
 130:../epcf/utils/source/epcf_fifo.c **** }
 427              		.loc 1 130 0
 428 0166 1846     		mov	r0, r3	@, <retval>
 429 0168 02B0     		add	sp, sp, #8	@,,
 430              	.LCFI16:
 431              		.cfi_def_cfa_offset 0
 432              		@ sp needed	@
 433 016a 7047     		bx	lr	@
 434              		.cfi_endproc
 435              	.LFE47:
 436              		.size	pcfFifoIsFull, .-pcfFifoIsFull
 437              	.Letext0:
 438              		.file 2 "/usr/include/newlib/machine/_default_types.h"
 439              		.file 3 "/usr/include/newlib/sys/_stdint.h"
 440              		.file 4 "../pcf/include/../../epcf/./common/types.h"
ARM GAS  /tmp/cc3uritk.s 			page 11


 441              		.file 5 "../pcf/include/private/arch/arm/cm3/nxp/lpc1768/./../../../../arm/cm3/nxp/lpc1768/lpc1768