ARM GAS  /tmp/ccTmpiai.s 			page 1


   1              		.syntax unified
   2              		.cpu cortex-m3
   3              		.fpu softvfp
   4              		.eabi_attribute 20, 1	@ Tag_ABI_FP_denormal
   5              		.eabi_attribute 21, 1	@ Tag_ABI_FP_exceptions
   6              		.eabi_attribute 23, 3	@ Tag_ABI_FP_number_model
   7              		.eabi_attribute 24, 1	@ Tag_ABI_align8_needed
   8              		.eabi_attribute 25, 1	@ Tag_ABI_align8_preserved
   9              		.eabi_attribute 26, 1	@ Tag_ABI_enum_size
  10              		.eabi_attribute 30, 6	@ Tag_ABI_optimization_goals
  11              		.eabi_attribute 34, 1	@ Tag_CPU_unaligned_access
  12              		.eabi_attribute 18, 4	@ Tag_ABI_PCS_wchar_t
  13              		.file	"i2c.c"
  14              	@ GNU C (15:4.9.3+svn231177-1) version 4.9.3 20150529 (prerelease) (arm-none-eabi)
  15              	@	compiled by GNU C version 5.2.1 20151129, GMP version 6.1.0, MPFR version 3.1.3, MPC version 1.0.
  16              	@ warning: MPFR header version 3.1.3 differs from library version 3.1.4.
  17              	@ GGC heuristics: --param ggc-min-expand=100 --param ggc-min-heapsize=131072
  18              	@ options passed:  -I . -I ./include -I ../pcf/include -imultilib armv7-m
  19              	@ -MD Build/Obj/Debug/i2c.d -MF Build/.dep/i2c.o.d -MP
  20              	@ -MQ Build/Obj/Debug/i2c.o -D__USES_INITFINI__
  21              	@ ../epcf/peripheral/source/i2c/i2c.c -mcpu=cortex-m3 -mthumb
  22              	@ -auxbase-strip Build/Obj/Debug/i2c.o -gdwarf-2 -O0 -Wall -Wno-cpp
  23              	@ -std=gnu99 -fomit-frame-pointer -fverbose-asm
  24              	@ options enabled:  -faggressive-loop-optimizations -fauto-inc-dec -fcommon
  25              	@ -fdelete-null-pointer-checks -fdwarf2-cfi-asm -fearly-inlining
  26              	@ -feliminate-unused-debug-types -ffunction-cse -fgcse-lm -fgnu-runtime
  27              	@ -fgnu-unique -fident -finline-atomics -fira-hoist-pressure
  28              	@ -fira-share-save-slots -fira-share-spill-slots -fivopts
  29              	@ -fkeep-static-consts -fleading-underscore -flifetime-dse -fmath-errno
  30              	@ -fmerge-debug-strings -fomit-frame-pointer -fpeephole
  31              	@ -fprefetch-loop-arrays -freg-struct-return
  32              	@ -fsched-critical-path-heuristic -fsched-dep-count-heuristic
  33              	@ -fsched-group-heuristic -fsched-interblock -fsched-last-insn-heuristic
  34              	@ -fsched-rank-heuristic -fsched-spec -fsched-spec-insn-heuristic
  35              	@ -fsched-stalled-insns-dep -fshow-column -fsigned-zeros
  36              	@ -fsplit-ivs-in-unroller -fstrict-volatile-bitfields -fsync-libcalls
  37              	@ -ftrapping-math -ftree-coalesce-vars -ftree-cselim -ftree-forwprop
  38              	@ -ftree-loop-if-convert -ftree-loop-im -ftree-loop-ivcanon
  39              	@ -ftree-loop-optimize -ftree-parallelize-loops= -ftree-phiprop
  40              	@ -ftree-reassoc -ftree-scev-cprop -funit-at-a-time -fverbose-asm
  41              	@ -fzero-initialized-in-bss -mfix-cortex-m3-ldrd -mlittle-endian -mlra
  42              	@ -mpic-data-is-text-relative -msched-prolog -mthumb -munaligned-access
  43              	@ -mvectorize-with-neon-quad
  44              	
  45              		.text
  46              	.Ltext0:
  47              		.cfi_sections	.debug_frame
  48              		.align	2
  49              		.global	epcf_i2c_CreateNative
  50              		.thumb
  51              		.thumb_func
  52              		.type	epcf_i2c_CreateNative, %function
  53              	epcf_i2c_CreateNative:
  54              	.LFB40:
  55              		.file 1 "../epcf/peripheral/source/i2c/i2c.c"
   1:../epcf/peripheral/source/i2c/i2c.c **** /**
   2:../epcf/peripheral/source/i2c/i2c.c ****  * \file  i2c.c
ARM GAS  /tmp/ccTmpiai.s 			page 2


   3:../epcf/peripheral/source/i2c/i2c.c ****  * \brief This file is used to configure a I2C device
   4:../epcf/peripheral/source/i2c/i2c.c ****  */
   5:../epcf/peripheral/source/i2c/i2c.c **** 
   6:../epcf/peripheral/source/i2c/i2c.c **** #include "pcf.h"
   7:../epcf/peripheral/source/i2c/i2c.c **** 
   8:../epcf/peripheral/source/i2c/i2c.c **** #define __EPCF_PRIVATE_I2C_H_INCLUDE PCF_CONDITIONAL_INCLUDE_FILE(EPCF_DIR_PATH/,peripheral/source/
   9:../epcf/peripheral/source/i2c/i2c.c **** #include  __EPCF_PRIVATE_I2C_H_INCLUDE
  10:../epcf/peripheral/source/i2c/i2c.c **** #undef __EPCF_PRIVATE_I2C_H_INCLUDE
  11:../epcf/peripheral/source/i2c/i2c.c **** 
  12:../epcf/peripheral/source/i2c/i2c.c **** 
  13:../epcf/peripheral/source/i2c/i2c.c **** EPCFI2cDevice_t* epcf_i2c_CreateNative(EPCFI2cCfg_t* pI2cConfig)
  14:../epcf/peripheral/source/i2c/i2c.c **** {
  56              		.loc 1 14 0
  57              		.cfi_startproc
  58              		@ args = 0, pretend = 0, frame = 16
  59              		@ frame_needed = 0, uses_anonymous_args = 0
  60 0000 00B5     		push	{lr}	@
  61              	.LCFI0:
  62              		.cfi_def_cfa_offset 4
  63              		.cfi_offset 14, -4
  64 0002 85B0     		sub	sp, sp, #20	@,,
  65              	.LCFI1:
  66              		.cfi_def_cfa_offset 24
  67 0004 0190     		str	r0, [sp, #4]	@ pI2cConfig, pI2cConfig
  15:../epcf/peripheral/source/i2c/i2c.c ****     EPCFI2cDevice_t* pI2cDevice;
  16:../epcf/peripheral/source/i2c/i2c.c ****     int8_t status=0;
  68              		.loc 1 16 0
  69 0006 0023     		movs	r3, #0	@ tmp113,
  70 0008 8DF80F30 		strb	r3, [sp, #15]	@ tmp114, status
  17:../epcf/peripheral/source/i2c/i2c.c **** 
  18:../epcf/peripheral/source/i2c/i2c.c ****     if(epcf_i2c_nativeGetDeviceCount())
  71              		.loc 1 18 0
  72 000c FFF7FEFF 		bl	epcf_i2c_nativeGetDeviceCount	@
  73 0010 0346     		mov	r3, r0	@ tmp115,
  74 0012 002B     		cmp	r3, #0	@ D.6388,
  75 0014 18D0     		beq	.L2	@,
  19:../epcf/peripheral/source/i2c/i2c.c ****     {
  20:../epcf/peripheral/source/i2c/i2c.c ****         pI2cDevice = (EPCFI2cDevice_t *)malloc(sizeof(EPCFI2cDevice_t));
  76              		.loc 1 20 0
  77 0016 1C20     		movs	r0, #28	@,
  78 0018 FFF7FEFF 		bl	malloc	@
  79 001c 0346     		mov	r3, r0	@ tmp116,
  80 001e 0293     		str	r3, [sp, #8]	@ tmp116, pI2cDevice
  21:../epcf/peripheral/source/i2c/i2c.c ****         if (pI2cDevice == NULL)
  81              		.loc 1 21 0
  82 0020 029B     		ldr	r3, [sp, #8]	@ tmp117, pI2cDevice
  83 0022 002B     		cmp	r3, #0	@ tmp117,
  84 0024 01D1     		bne	.L3	@,
  22:../epcf/peripheral/source/i2c/i2c.c ****             return NULL;
  85              		.loc 1 22 0
  86 0026 0023     		movs	r3, #0	@ D.6387,
  87 0028 0FE0     		b	.L4	@
  88              	.L3:
  23:../epcf/peripheral/source/i2c/i2c.c **** 
  24:../epcf/peripheral/source/i2c/i2c.c ****         status = epcf_i2c_nativeInit(pI2cDevice, pI2cConfig);
  89              		.loc 1 24 0
  90 002a 0298     		ldr	r0, [sp, #8]	@, pI2cDevice
ARM GAS  /tmp/ccTmpiai.s 			page 3


  91 002c 0199     		ldr	r1, [sp, #4]	@, pI2cConfig
  92 002e FFF7FEFF 		bl	epcf_i2c_nativeInit	@
  93 0032 0346     		mov	r3, r0	@ tmp118,
  94 0034 8DF80F30 		strb	r3, [sp, #15]	@ tmp119, status
  25:../epcf/peripheral/source/i2c/i2c.c ****         if(status != 0)
  95              		.loc 1 25 0
  96 0038 9DF90F30 		ldrsb	r3, [sp, #15]	@ tmp120, status
  97 003c 002B     		cmp	r3, #0	@ tmp120,
  98 003e 01D0     		beq	.L5	@,
  26:../epcf/peripheral/source/i2c/i2c.c ****             return NULL;
  99              		.loc 1 26 0
 100 0040 0023     		movs	r3, #0	@ D.6387,
 101 0042 02E0     		b	.L4	@
 102              	.L5:
  27:../epcf/peripheral/source/i2c/i2c.c **** 
  28:../epcf/peripheral/source/i2c/i2c.c ****         return pI2cDevice;
 103              		.loc 1 28 0
 104 0044 029B     		ldr	r3, [sp, #8]	@ D.6387, pI2cDevice
 105 0046 00E0     		b	.L4	@
 106              	.L2:
  29:../epcf/peripheral/source/i2c/i2c.c ****     }
  30:../epcf/peripheral/source/i2c/i2c.c ****     else
  31:../epcf/peripheral/source/i2c/i2c.c ****         return NULL;
 107              		.loc 1 31 0
 108 0048 0023     		movs	r3, #0	@ D.6387,
 109              	.L4:
  32:../epcf/peripheral/source/i2c/i2c.c **** }
 110              		.loc 1 32 0
 111 004a 1846     		mov	r0, r3	@, <retval>
 112 004c 05B0     		add	sp, sp, #20	@,,
 113              	.LCFI2:
 114              		.cfi_def_cfa_offset 4
 115              		@ sp needed	@
 116 004e 5DF804FB 		ldr	pc, [sp], #4	@
 117              		.cfi_endproc
 118              	.LFE40:
 119              		.size	epcf_i2c_CreateNative, .-epcf_i2c_CreateNative
 120 0052 00BF     		.align	2
 121              		.global	epcf_i2c_write
 122              		.thumb
 123              		.thumb_func
 124              		.type	epcf_i2c_write, %function
 125              	epcf_i2c_write:
 126              	.LFB41:
  33:../epcf/peripheral/source/i2c/i2c.c **** 
  34:../epcf/peripheral/source/i2c/i2c.c **** #ifdef EPCF_SUPPORT_EXTENDED_I2C
  35:../epcf/peripheral/source/i2c/i2c.c **** EPCFI2cDevice_t* epcf_i2c_createExtended(EPCFI2cController_t* pI2cController, EPCFI2cCfg_t* pI2cCon
  36:../epcf/peripheral/source/i2c/i2c.c **** {
  37:../epcf/peripheral/source/i2c/i2c.c **** 	EPCFI2cDevice_t* pI2cDevice;
  38:../epcf/peripheral/source/i2c/i2c.c **** 	int8_t status = 0;
  39:../epcf/peripheral/source/i2c/i2c.c **** 
  40:../epcf/peripheral/source/i2c/i2c.c **** 	if(epcf_i2c_extGetDeviceCount(pI2cController))
  41:../epcf/peripheral/source/i2c/i2c.c **** 	{
  42:../epcf/peripheral/source/i2c/i2c.c **** 		pI2cDevice = (EPCFI2cDevice_t*)malloc(sizeof(EPCFI2cDevice_t));
  43:../epcf/peripheral/source/i2c/i2c.c **** 		if(pI2cDevice == NULL)
  44:../epcf/peripheral/source/i2c/i2c.c **** 			return NULL;
  45:../epcf/peripheral/source/i2c/i2c.c **** 
ARM GAS  /tmp/ccTmpiai.s 			page 4


  46:../epcf/peripheral/source/i2c/i2c.c **** 		pI2cDevice->controllerConfig = pI2cController;
  47:../epcf/peripheral/source/i2c/i2c.c **** 
  48:../epcf/peripheral/source/i2c/i2c.c **** 		status = pI2cController->i2cInit(pI2cDevice, pI2cConfig);
  49:../epcf/peripheral/source/i2c/i2c.c **** 		if(status != 0)
  50:../epcf/peripheral/source/i2c/i2c.c **** 			return NULL;
  51:../epcf/peripheral/source/i2c/i2c.c **** 
  52:../epcf/peripheral/source/i2c/i2c.c **** 		return pI2cDevice;
  53:../epcf/peripheral/source/i2c/i2c.c **** 	}
  54:../epcf/peripheral/source/i2c/i2c.c **** 	else
  55:../epcf/peripheral/source/i2c/i2c.c **** 		return NULL;
  56:../epcf/peripheral/source/i2c/i2c.c **** }
  57:../epcf/peripheral/source/i2c/i2c.c **** #endif
  58:../epcf/peripheral/source/i2c/i2c.c **** 
  59:../epcf/peripheral/source/i2c/i2c.c **** int32_t epcf_i2c_write(EPCFI2cDevice_t* pI2cDevice,EnEPCFBoolean_t masterEnable,uint8_t slaveAddres
  60:../epcf/peripheral/source/i2c/i2c.c **** {
 127              		.loc 1 60 0
 128              		.cfi_startproc
 129              		@ args = 16, pretend = 0, frame = 24
 130              		@ frame_needed = 0, uses_anonymous_args = 0
 131 0054 30B5     		push	{r4, r5, lr}	@
 132              	.LCFI3:
 133              		.cfi_def_cfa_offset 12
 134              		.cfi_offset 4, -12
 135              		.cfi_offset 5, -8
 136              		.cfi_offset 14, -4
 137 0056 8BB0     		sub	sp, sp, #44	@,,
 138              	.LCFI4:
 139              		.cfi_def_cfa_offset 56
 140 0058 0790     		str	r0, [sp, #28]	@ pI2cDevice, pI2cDevice
 141 005a 0593     		str	r3, [sp, #20]	@ data, data
 142 005c 0B46     		mov	r3, r1	@ tmp114, tmp113
 143 005e 8DF81B30 		strb	r3, [sp, #27]	@ tmp114, masterEnable
 144 0062 1346     		mov	r3, r2	@ tmp116, tmp115
 145 0064 8DF81A30 		strb	r3, [sp, #26]	@ tmp116, slaveAddress
  61:../epcf/peripheral/source/i2c/i2c.c **** 	int32_t status=0;
 146              		.loc 1 61 0
 147 0068 0023     		movs	r3, #0	@ tmp117,
 148 006a 0993     		str	r3, [sp, #36]	@ tmp117, status
  62:../epcf/peripheral/source/i2c/i2c.c **** 
  63:../epcf/peripheral/source/i2c/i2c.c **** 	if(pI2cDevice->controllerConfig == NULL)
 149              		.loc 1 63 0
 150 006c 079B     		ldr	r3, [sp, #28]	@ tmp118, pI2cDevice
 151 006e 1B68     		ldr	r3, [r3]	@ D.6389, pI2cDevice_3(D)->controllerConfig
 152 0070 002B     		cmp	r3, #0	@ D.6389,
 153 0072 15D1     		bne	.L7	@,
  64:../epcf/peripheral/source/i2c/i2c.c **** 	{
  65:../epcf/peripheral/source/i2c/i2c.c **** 		status = epcf_i2c_nativeWrite(pI2cDevice,masterEnable,slaveAddress,data,size,busRelease,timeout);
 154              		.loc 1 65 0
 155 0074 9DF81B50 		ldrb	r5, [sp, #27]	@ zero_extendqisi2	@ tmp119, masterEnable
 156 0078 9DF81A40 		ldrb	r4, [sp, #26]	@ zero_extendqisi2	@ tmp120, slaveAddress
 157 007c 0E9B     		ldr	r3, [sp, #56]	@ tmp121, size
 158 007e 0093     		str	r3, [sp]	@ tmp121,
 159 0080 9DF83C30 		ldrb	r3, [sp, #60]	@ zero_extendqisi2	@ tmp122, busRelease
 160 0084 0193     		str	r3, [sp, #4]	@ tmp122,
 161 0086 02AA     		add	r2, sp, #8	@ tmp123,,
 162 0088 10AB     		add	r3, sp, #64	@ tmp124,,
 163 008a 93E80300 		ldmia	r3, {r0, r1}	@ tmp124,,
ARM GAS  /tmp/ccTmpiai.s 			page 5


 164 008e 82E80300 		stmia	r2, {r0, r1}	@ tmp123,,
 165 0092 0798     		ldr	r0, [sp, #28]	@, pI2cDevice
 166 0094 2946     		mov	r1, r5	@, tmp119
 167 0096 2246     		mov	r2, r4	@, tmp120
 168 0098 059B     		ldr	r3, [sp, #20]	@, data
 169 009a FFF7FEFF 		bl	epcf_i2c_nativeWrite	@
 170 009e 0990     		str	r0, [sp, #36]	@, status
 171              	.L7:
  66:../epcf/peripheral/source/i2c/i2c.c **** 	}
  67:../epcf/peripheral/source/i2c/i2c.c **** 	else
  68:../epcf/peripheral/source/i2c/i2c.c **** 	{
  69:../epcf/peripheral/source/i2c/i2c.c **** //		TODO: controller structure is not defined
  70:../epcf/peripheral/source/i2c/i2c.c **** 	}
  71:../epcf/peripheral/source/i2c/i2c.c **** 	return status;
 172              		.loc 1 71 0
 173 00a0 099B     		ldr	r3, [sp, #36]	@ D.6390, status
  72:../epcf/peripheral/source/i2c/i2c.c **** }
 174              		.loc 1 72 0
 175 00a2 1846     		mov	r0, r3	@, <retval>
 176 00a4 0BB0     		add	sp, sp, #44	@,,
 177              	.LCFI5:
 178              		.cfi_def_cfa_offset 12
 179              		@ sp needed	@
 180 00a6 30BD     		pop	{r4, r5, pc}	@
 181              		.cfi_endproc
 182              	.LFE41:
 183              		.size	epcf_i2c_write, .-epcf_i2c_write
 184              		.align	2
 185              		.global	epcf_i2c_read
 186              		.thumb
 187              		.thumb_func
 188              		.type	epcf_i2c_read, %function
 189              	epcf_i2c_read:
 190              	.LFB42:
  73:../epcf/peripheral/source/i2c/i2c.c **** 
  74:../epcf/peripheral/source/i2c/i2c.c **** int32_t epcf_i2c_read(EPCFI2cDevice_t* pI2cDevice,EnEPCFBoolean_t masterEnable,uint8_t slaveAddress
  75:../epcf/peripheral/source/i2c/i2c.c **** {
 191              		.loc 1 75 0
 192              		.cfi_startproc
 193              		@ args = 16, pretend = 0, frame = 24
 194              		@ frame_needed = 0, uses_anonymous_args = 0
 195 00a8 30B5     		push	{r4, r5, lr}	@
 196              	.LCFI6:
 197              		.cfi_def_cfa_offset 12
 198              		.cfi_offset 4, -12
 199              		.cfi_offset 5, -8
 200              		.cfi_offset 14, -4
 201 00aa 8BB0     		sub	sp, sp, #44	@,,
 202              	.LCFI7:
 203              		.cfi_def_cfa_offset 56
 204 00ac 0790     		str	r0, [sp, #28]	@ pI2cDevice, pI2cDevice
 205 00ae 0593     		str	r3, [sp, #20]	@ data, data
 206 00b0 0B46     		mov	r3, r1	@ tmp114, tmp113
 207 00b2 8DF81B30 		strb	r3, [sp, #27]	@ tmp114, masterEnable
 208 00b6 1346     		mov	r3, r2	@ tmp116, tmp115
 209 00b8 8DF81A30 		strb	r3, [sp, #26]	@ tmp116, slaveAddress
  76:../epcf/peripheral/source/i2c/i2c.c **** 	int32_t status=0;
ARM GAS  /tmp/ccTmpiai.s 			page 6


 210              		.loc 1 76 0
 211 00bc 0023     		movs	r3, #0	@ tmp117,
 212 00be 0993     		str	r3, [sp, #36]	@ tmp117, status
  77:../epcf/peripheral/source/i2c/i2c.c **** 
  78:../epcf/peripheral/source/i2c/i2c.c **** 	if(pI2cDevice->controllerConfig == NULL)
 213              		.loc 1 78 0
 214 00c0 079B     		ldr	r3, [sp, #28]	@ tmp118, pI2cDevice
 215 00c2 1B68     		ldr	r3, [r3]	@ D.6392, pI2cDevice_3(D)->controllerConfig
 216 00c4 002B     		cmp	r3, #0	@ D.6392,
 217 00c6 15D1     		bne	.L10	@,
  79:../epcf/peripheral/source/i2c/i2c.c **** 	{
  80:../epcf/peripheral/source/i2c/i2c.c **** 		status = epcf_i2c_nativeRead(pI2cDevice,masterEnable,slaveAddress,data,size,busRelease,timeout);
 218              		.loc 1 80 0
 219 00c8 9DF81B50 		ldrb	r5, [sp, #27]	@ zero_extendqisi2	@ tmp119, masterEnable
 220 00cc 9DF81A40 		ldrb	r4, [sp, #26]	@ zero_extendqisi2	@ tmp120, slaveAddress
 221 00d0 0E9B     		ldr	r3, [sp, #56]	@ tmp121, size
 222 00d2 0093     		str	r3, [sp]	@ tmp121,
 223 00d4 9DF83C30 		ldrb	r3, [sp, #60]	@ zero_extendqisi2	@ tmp122, busRelease
 224 00d8 0193     		str	r3, [sp, #4]	@ tmp122,
 225 00da 02AA     		add	r2, sp, #8	@ tmp123,,
 226 00dc 10AB     		add	r3, sp, #64	@ tmp124,,
 227 00de 93E80300 		ldmia	r3, {r0, r1}	@ tmp124,,
 228 00e2 82E80300 		stmia	r2, {r0, r1}	@ tmp123,,
 229 00e6 0798     		ldr	r0, [sp, #28]	@, pI2cDevice
 230 00e8 2946     		mov	r1, r5	@, tmp119
 231 00ea 2246     		mov	r2, r4	@, tmp120
 232 00ec 059B     		ldr	r3, [sp, #20]	@, data
 233 00ee FFF7FEFF 		bl	epcf_i2c_nativeRead	@
 234 00f2 0990     		str	r0, [sp, #36]	@, status
 235              	.L10:
  81:../epcf/peripheral/source/i2c/i2c.c **** 	}
  82:../epcf/peripheral/source/i2c/i2c.c **** 	else
  83:../epcf/peripheral/source/i2c/i2c.c **** 	{
  84:../epcf/peripheral/source/i2c/i2c.c **** //		TODO: controller structure is not defined
  85:../epcf/peripheral/source/i2c/i2c.c **** 	}
  86:../epcf/peripheral/source/i2c/i2c.c **** 	return status;
 236              		.loc 1 86 0
 237 00f4 099B     		ldr	r3, [sp, #36]	@ D.6393, status
  87:../epcf/peripheral/source/i2c/i2c.c **** }
 238              		.loc 1 87 0
 239 00f6 1846     		mov	r0, r3	@, <retval>
 240 00f8 0BB0     		add	sp, sp, #44	@,,
 241              	.LCFI8:
 242              		.cfi_def_cfa_offset 12
 243              		@ sp needed	@
 244 00fa 30BD     		pop	{r4, r5, pc}	@
 245              		.cfi_endproc
 246              	.LFE42:
 247              		.size	epcf_i2c_read, .-epcf_i2c_read
 248              		.align	2
 249              		.global	epcf_i2c_intEnable
 250              		.thumb
 251              		.thumb_func
 252              		.type	epcf_i2c_intEnable, %function
 253              	epcf_i2c_intEnable:
 254              	.LFB43:
  88:../epcf/peripheral/source/i2c/i2c.c **** 
ARM GAS  /tmp/ccTmpiai.s 			page 7


  89:../epcf/peripheral/source/i2c/i2c.c **** int8_t epcf_i2c_intEnable(EPCFI2cDevice_t* pI2cDevice)
  90:../epcf/peripheral/source/i2c/i2c.c **** {
 255              		.loc 1 90 0
 256              		.cfi_startproc
 257              		@ args = 0, pretend = 0, frame = 16
 258              		@ frame_needed = 0, uses_anonymous_args = 0
 259 00fc 00B5     		push	{lr}	@
 260              	.LCFI9:
 261              		.cfi_def_cfa_offset 4
 262              		.cfi_offset 14, -4
 263 00fe 85B0     		sub	sp, sp, #20	@,,
 264              	.LCFI10:
 265              		.cfi_def_cfa_offset 24
 266 0100 0190     		str	r0, [sp, #4]	@ pI2cDevice, pI2cDevice
  91:../epcf/peripheral/source/i2c/i2c.c **** 	int8_t status=0;
 267              		.loc 1 91 0
 268 0102 0023     		movs	r3, #0	@ tmp113,
 269 0104 8DF80F30 		strb	r3, [sp, #15]	@ tmp114, status
  92:../epcf/peripheral/source/i2c/i2c.c **** 
  93:../epcf/peripheral/source/i2c/i2c.c **** 	if(pI2cDevice->controllerConfig == NULL)
 270              		.loc 1 93 0
 271 0108 019B     		ldr	r3, [sp, #4]	@ tmp115, pI2cDevice
 272 010a 1B68     		ldr	r3, [r3]	@ D.6394, pI2cDevice_3(D)->controllerConfig
 273 010c 002B     		cmp	r3, #0	@ D.6394,
 274 010e 05D1     		bne	.L13	@,
  94:../epcf/peripheral/source/i2c/i2c.c **** 	{
  95:../epcf/peripheral/source/i2c/i2c.c **** 		status = epcf_i2c_nativeIntEnable(pI2cDevice);
 275              		.loc 1 95 0
 276 0110 0198     		ldr	r0, [sp, #4]	@, pI2cDevice
 277 0112 FFF7FEFF 		bl	epcf_i2c_nativeIntEnable	@
 278 0116 0346     		mov	r3, r0	@ tmp116,
 279 0118 8DF80F30 		strb	r3, [sp, #15]	@ tmp117, status
 280              	.L13:
  96:../epcf/peripheral/source/i2c/i2c.c **** 	}
  97:../epcf/peripheral/source/i2c/i2c.c **** 	else
  98:../epcf/peripheral/source/i2c/i2c.c **** 	{
  99:../epcf/peripheral/source/i2c/i2c.c **** //		TODO: controller structure is not defined
 100:../epcf/peripheral/source/i2c/i2c.c **** 	}
 101:../epcf/peripheral/source/i2c/i2c.c **** 	return status;
 281              		.loc 1 101 0
 282 011c 9DF80F30 		ldrb	r3, [sp, #15]	@ zero_extendqisi2	@ D.6395, status
 283 0120 5BB2     		sxtb	r3, r3	@ tmp119, D.6395
 102:../epcf/peripheral/source/i2c/i2c.c **** }
 284              		.loc 1 102 0
 285 0122 1846     		mov	r0, r3	@, <retval>
 286 0124 05B0     		add	sp, sp, #20	@,,
 287              	.LCFI11:
 288              		.cfi_def_cfa_offset 4
 289              		@ sp needed	@
 290 0126 5DF804FB 		ldr	pc, [sp], #4	@
 291              		.cfi_endproc
 292              	.LFE43:
 293              		.size	epcf_i2c_intEnable, .-epcf_i2c_intEnable
 294 012a 00BF     		.align	2
 295              		.global	epcf_i2c_intDisable
 296              		.thumb
 297              		.thumb_func
ARM GAS  /tmp/ccTmpiai.s 			page 8


 298              		.type	epcf_i2c_intDisable, %function
 299              	epcf_i2c_intDisable:
 300              	.LFB44:
 103:../epcf/peripheral/source/i2c/i2c.c **** 
 104:../epcf/peripheral/source/i2c/i2c.c **** int8_t epcf_i2c_intDisable(EPCFI2cDevice_t* pI2cDevice)
 105:../epcf/peripheral/source/i2c/i2c.c **** {
 301              		.loc 1 105 0
 302              		.cfi_startproc
 303              		@ args = 0, pretend = 0, frame = 16
 304              		@ frame_needed = 0, uses_anonymous_args = 0
 305 012c 00B5     		push	{lr}	@
 306              	.LCFI12:
 307              		.cfi_def_cfa_offset 4
 308              		.cfi_offset 14, -4
 309 012e 85B0     		sub	sp, sp, #20	@,,
 310              	.LCFI13:
 311              		.cfi_def_cfa_offset 24
 312 0130 0190     		str	r0, [sp, #4]	@ pI2cDevice, pI2cDevice
 106:../epcf/peripheral/source/i2c/i2c.c **** 	int8_t status=0;
 313              		.loc 1 106 0
 314 0132 0023     		movs	r3, #0	@ tmp113,
 315 0134 8DF80F30 		strb	r3, [sp, #15]	@ tmp114, status
 107:../epcf/peripheral/source/i2c/i2c.c **** 
 108:../epcf/peripheral/source/i2c/i2c.c **** 	if(pI2cDevice->controllerConfig == NULL)
 316              		.loc 1 108 0
 317 0138 019B     		ldr	r3, [sp, #4]	@ tmp115, pI2cDevice
 318 013a 1B68     		ldr	r3, [r3]	@ D.6396, pI2cDevice_3(D)->controllerConfig
 319 013c 002B     		cmp	r3, #0	@ D.6396,
 320 013e 05D1     		bne	.L16	@,
 109:../epcf/peripheral/source/i2c/i2c.c **** 	{
 110:../epcf/peripheral/source/i2c/i2c.c **** 		status = epcf_i2c_nativeIntDisable(pI2cDevice);
 321              		.loc 1 110 0
 322 0140 0198     		ldr	r0, [sp, #4]	@, pI2cDevice
 323 0142 FFF7FEFF 		bl	epcf_i2c_nativeIntDisable	@
 324 0146 0346     		mov	r3, r0	@ tmp116,
 325 0148 8DF80F30 		strb	r3, [sp, #15]	@ tmp117, status
 326              	.L16:
 111:../epcf/peripheral/source/i2c/i2c.c **** 	}
 112:../epcf/peripheral/source/i2c/i2c.c **** 	else
 113:../epcf/peripheral/source/i2c/i2c.c **** 	{
 114:../epcf/peripheral/source/i2c/i2c.c **** //		TODO: controller structure is not defined
 115:../epcf/peripheral/source/i2c/i2c.c **** 	}
 116:../epcf/peripheral/source/i2c/i2c.c **** 	return status;
 327              		.loc 1 116 0
 328 014c 9DF80F30 		ldrb	r3, [sp, #15]	@ zero_extendqisi2	@ D.6397, status
 329 0150 5BB2     		sxtb	r3, r3	@ tmp119, D.6397
 117:../epcf/peripheral/source/i2c/i2c.c **** }
 330              		.loc 1 117 0
 331 0152 1846     		mov	r0, r3	@, <retval>
 332 0154 05B0     		add	sp, sp, #20	@,,
 333              	.LCFI14:
 334              		.cfi_def_cfa_offset 4
 335              		@ sp needed	@
 336 0156 5DF804FB 		ldr	pc, [sp], #4	@
 337              		.cfi_endproc
 338              	.LFE44:
 339              		.size	epcf_i2c_intDisable, .-epcf_i2c_intDisable
ARM GAS  /tmp/ccTmpiai.s 			page 9


 340 015a 00BF     		.align	2
 341              		.global	epcf_i2c_getRxBufferCount
 342              		.thumb
 343              		.thumb_func
 344              		.type	epcf_i2c_getRxBufferCount, %function
 345              	epcf_i2c_getRxBufferCount:
 346              	.LFB45:
 118:../epcf/peripheral/source/i2c/i2c.c **** 
 119:../epcf/peripheral/source/i2c/i2c.c **** int32_t epcf_i2c_getRxBufferCount(EPCFI2cDevice_t* pI2cDevice)
 120:../epcf/peripheral/source/i2c/i2c.c **** {
 347              		.loc 1 120 0
 348              		.cfi_startproc
 349              		@ args = 0, pretend = 0, frame = 16
 350              		@ frame_needed = 0, uses_anonymous_args = 0
 351 015c 00B5     		push	{lr}	@
 352              	.LCFI15:
 353              		.cfi_def_cfa_offset 4
 354              		.cfi_offset 14, -4
 355 015e 85B0     		sub	sp, sp, #20	@,,
 356              	.LCFI16:
 357              		.cfi_def_cfa_offset 24
 358 0160 0190     		str	r0, [sp, #4]	@ pI2cDevice, pI2cDevice
 121:../epcf/peripheral/source/i2c/i2c.c **** 	int32_t status=0;
 359              		.loc 1 121 0
 360 0162 0023     		movs	r3, #0	@ tmp113,
 361 0164 0393     		str	r3, [sp, #12]	@ tmp113, status
 122:../epcf/peripheral/source/i2c/i2c.c **** 
 123:../epcf/peripheral/source/i2c/i2c.c **** 	if(pI2cDevice->controllerConfig == NULL)
 362              		.loc 1 123 0
 363 0166 019B     		ldr	r3, [sp, #4]	@ tmp114, pI2cDevice
 364 0168 1B68     		ldr	r3, [r3]	@ D.6398, pI2cDevice_3(D)->controllerConfig
 365 016a 002B     		cmp	r3, #0	@ D.6398,
 366 016c 03D1     		bne	.L19	@,
 124:../epcf/peripheral/source/i2c/i2c.c **** 	{
 125:../epcf/peripheral/source/i2c/i2c.c **** 		status = epcf_i2c_nativeGetRxBufferCount(pI2cDevice);
 367              		.loc 1 125 0
 368 016e 0198     		ldr	r0, [sp, #4]	@, pI2cDevice
 369 0170 FFF7FEFF 		bl	epcf_i2c_nativeGetRxBufferCount	@
 370 0174 0390     		str	r0, [sp, #12]	@, status
 371              	.L19:
 126:../epcf/peripheral/source/i2c/i2c.c **** 	}
 127:../epcf/peripheral/source/i2c/i2c.c **** 	else
 128:../epcf/peripheral/source/i2c/i2c.c **** 	{
 129:../epcf/peripheral/source/i2c/i2c.c **** //		TODO: controller structure is not defined
 130:../epcf/peripheral/source/i2c/i2c.c **** 	}
 131:../epcf/peripheral/source/i2c/i2c.c **** 	return status;
 372              		.loc 1 131 0
 373 0176 039B     		ldr	r3, [sp, #12]	@ D.6399, status
 132:../epcf/peripheral/source/i2c/i2c.c **** }
 374              		.loc 1 132 0
 375 0178 1846     		mov	r0, r3	@, <retval>
 376 017a 05B0     		add	sp, sp, #20	@,,
 377              	.LCFI17:
 378              		.cfi_def_cfa_offset 4
 379              		@ sp needed	@
 380 017c 5DF804FB 		ldr	pc, [sp], #4	@
 381              		.cfi_endproc
ARM GAS  /tmp/ccTmpiai.s 			page 10


 382              	.LFE45:
 383              		.size	epcf_i2c_getRxBufferCount, .-epcf_i2c_getRxBufferCount
 384              		.align	2
 385              		.global	epcf_i2c_rxBufferFlush
 386              		.thumb
 387              		.thumb_func
 388              		.type	epcf_i2c_rxBufferFlush, %function
 389              	epcf_i2c_rxBufferFlush:
 390              	.LFB46:
 133:../epcf/peripheral/source/i2c/i2c.c **** 
 134:../epcf/peripheral/source/i2c/i2c.c **** int8_t epcf_i2c_rxBufferFlush(EPCFI2cDevice_t* pI2cDevice)
 135:../epcf/peripheral/source/i2c/i2c.c **** {
 391              		.loc 1 135 0
 392              		.cfi_startproc
 393              		@ args = 0, pretend = 0, frame = 16
 394              		@ frame_needed = 0, uses_anonymous_args = 0
 395 0180 00B5     		push	{lr}	@
 396              	.LCFI18:
 397              		.cfi_def_cfa_offset 4
 398              		.cfi_offset 14, -4
 399 0182 85B0     		sub	sp, sp, #20	@,,
 400              	.LCFI19:
 401              		.cfi_def_cfa_offset 24
 402 0184 0190     		str	r0, [sp, #4]	@ pI2cDevice, pI2cDevice
 136:../epcf/peripheral/source/i2c/i2c.c **** 	int8_t status=0;
 403              		.loc 1 136 0
 404 0186 0023     		movs	r3, #0	@ tmp113,
 405 0188 8DF80F30 		strb	r3, [sp, #15]	@ tmp114, status
 137:../epcf/peripheral/source/i2c/i2c.c **** 
 138:../epcf/peripheral/source/i2c/i2c.c **** 	if(pI2cDevice->controllerConfig == NULL)
 406              		.loc 1 138 0
 407 018c 019B     		ldr	r3, [sp, #4]	@ tmp115, pI2cDevice
 408 018e 1B68     		ldr	r3, [r3]	@ D.6400, pI2cDevice_3(D)->controllerConfig
 409 0190 002B     		cmp	r3, #0	@ D.6400,
 410 0192 05D1     		bne	.L22	@,
 139:../epcf/peripheral/source/i2c/i2c.c **** 	{
 140:../epcf/peripheral/source/i2c/i2c.c **** 		status = epcf_i2c_nativeRxBufferFlush(pI2cDevice);
 411              		.loc 1 140 0
 412 0194 0198     		ldr	r0, [sp, #4]	@, pI2cDevice
 413 0196 FFF7FEFF 		bl	epcf_i2c_nativeRxBufferFlush	@
 414 019a 0346     		mov	r3, r0	@ tmp116,
 415 019c 8DF80F30 		strb	r3, [sp, #15]	@ tmp117, status
 416              	.L22:
 141:../epcf/peripheral/source/i2c/i2c.c **** 	}
 142:../epcf/peripheral/source/i2c/i2c.c **** 	else
 143:../epcf/peripheral/source/i2c/i2c.c **** 	{
 144:../epcf/peripheral/source/i2c/i2c.c **** //		TODO: controller structure is not defined
 145:../epcf/peripheral/source/i2c/i2c.c **** 	}
 146:../epcf/peripheral/source/i2c/i2c.c **** 	return status;
 417              		.loc 1 146 0
 418 01a0 9DF80F30 		ldrb	r3, [sp, #15]	@ zero_extendqisi2	@ D.6401, status
 419 01a4 5BB2     		sxtb	r3, r3	@ tmp119, D.6401
 147:../epcf/peripheral/source/i2c/i2c.c **** }
 420              		.loc 1 147 0
 421 01a6 1846     		mov	r0, r3	@, <retval>
 422 01a8 05B0     		add	sp, sp, #20	@,,
 423              	.LCFI20:
ARM GAS  /tmp/ccTmpiai.s 			page 11


 424              		.cfi_def_cfa_offset 4
 425              		@ sp needed	@
 426 01aa 5DF804FB 		ldr	pc, [sp], #4	@
 427              		.cfi_endproc
 428              	.LFE46:
 429              		.size	epcf_i2c_rxBufferFlush, .-epcf_i2c_rxBufferFlush
 430 01ae 00BF     		.align	2
 431              		.global	epcf_i2c_getTxBufferCount
 432              		.thumb
 433              		.thumb_func
 434              		.type	epcf_i2c_getTxBufferCount, %function
 435              	epcf_i2c_getTxBufferCount:
 436              	.LFB47:
 148:../epcf/peripheral/source/i2c/i2c.c **** 
 149:../epcf/peripheral/source/i2c/i2c.c **** int32_t epcf_i2c_getTxBufferCount(EPCFI2cDevice_t* pI2cDevice)
 150:../epcf/peripheral/source/i2c/i2c.c **** {
 437              		.loc 1 150 0
 438              		.cfi_startproc
 439              		@ args = 0, pretend = 0, frame = 16
 440              		@ frame_needed = 0, uses_anonymous_args = 0
 441 01b0 00B5     		push	{lr}	@
 442              	.LCFI21:
 443              		.cfi_def_cfa_offset 4
 444              		.cfi_offset 14, -4
 445 01b2 85B0     		sub	sp, sp, #20	@,,
 446              	.LCFI22:
 447              		.cfi_def_cfa_offset 24
 448 01b4 0190     		str	r0, [sp, #4]	@ pI2cDevice, pI2cDevice
 151:../epcf/peripheral/source/i2c/i2c.c **** 	int32_t status=0;
 449              		.loc 1 151 0
 450 01b6 0023     		movs	r3, #0	@ tmp113,
 451 01b8 0393     		str	r3, [sp, #12]	@ tmp113, status
 152:../epcf/peripheral/source/i2c/i2c.c **** 
 153:../epcf/peripheral/source/i2c/i2c.c **** 	if(pI2cDevice->controllerConfig == NULL)
 452              		.loc 1 153 0
 453 01ba 019B     		ldr	r3, [sp, #4]	@ tmp114, pI2cDevice
 454 01bc 1B68     		ldr	r3, [r3]	@ D.6402, pI2cDevice_3(D)->controllerConfig
 455 01be 002B     		cmp	r3, #0	@ D.6402,
 456 01c0 03D1     		bne	.L25	@,
 154:../epcf/peripheral/source/i2c/i2c.c **** 	{
 155:../epcf/peripheral/source/i2c/i2c.c **** 		status = epcf_i2c_nativeGetTxBufferCount(pI2cDevice);
 457              		.loc 1 155 0
 458 01c2 0198     		ldr	r0, [sp, #4]	@, pI2cDevice
 459 01c4 FFF7FEFF 		bl	epcf_i2c_nativeGetTxBufferCount	@
 460 01c8 0390     		str	r0, [sp, #12]	@, status
 461              	.L25:
 156:../epcf/peripheral/source/i2c/i2c.c **** 	}
 157:../epcf/peripheral/source/i2c/i2c.c **** 	else
 158:../epcf/peripheral/source/i2c/i2c.c **** 	{
 159:../epcf/peripheral/source/i2c/i2c.c **** //		TODO: controller structure is not defined
 160:../epcf/peripheral/source/i2c/i2c.c **** 	}
 161:../epcf/peripheral/source/i2c/i2c.c **** 	return status;
 462              		.loc 1 161 0
 463 01ca 039B     		ldr	r3, [sp, #12]	@ D.6403, status
 162:../epcf/peripheral/source/i2c/i2c.c **** }
 464              		.loc 1 162 0
 465 01cc 1846     		mov	r0, r3	@, <retval>
ARM GAS  /tmp/ccTmpiai.s 			page 12


 466 01ce 05B0     		add	sp, sp, #20	@,,
 467              	.LCFI23:
 468              		.cfi_def_cfa_offset 4
 469              		@ sp needed	@
 470 01d0 5DF804FB 		ldr	pc, [sp], #4	@
 471              		.cfi_endproc
 472              	.LFE47:
 473              		.size	epcf_i2c_getTxBufferCount, .-epcf_i2c_getTxBufferCount
 474              		.align	2
 475              		.global	epcf_i2c_txBufferFlush
 476              		.thumb
 477              		.thumb_func
 478              		.type	epcf_i2c_txBufferFlush, %function
 479              	epcf_i2c_txBufferFlush:
 480              	.LFB48:
 163:../epcf/peripheral/source/i2c/i2c.c **** 
 164:../epcf/peripheral/source/i2c/i2c.c **** int8_t epcf_i2c_txBufferFlush(EPCFI2cDevice_t* pI2cDevice)
 165:../epcf/peripheral/source/i2c/i2c.c **** {
 481              		.loc 1 165 0
 482              		.cfi_startproc
 483              		@ args = 0, pretend = 0, frame = 16
 484              		@ frame_needed = 0, uses_anonymous_args = 0
 485 01d4 00B5     		push	{lr}	@
 486              	.LCFI24:
 487              		.cfi_def_cfa_offset 4
 488              		.cfi_offset 14, -4
 489 01d6 85B0     		sub	sp, sp, #20	@,,
 490              	.LCFI25:
 491              		.cfi_def_cfa_offset 24
 492 01d8 0190     		str	r0, [sp, #4]	@ pI2cDevice, pI2cDevice
 166:../epcf/peripheral/source/i2c/i2c.c **** 	int8_t status=0;
 493              		.loc 1 166 0
 494 01da 0023     		movs	r3, #0	@ tmp113,
 495 01dc 8DF80F30 		strb	r3, [sp, #15]	@ tmp114, status
 167:../epcf/peripheral/source/i2c/i2c.c **** 
 168:../epcf/peripheral/source/i2c/i2c.c **** 	if(pI2cDevice->controllerConfig == NULL)
 496              		.loc 1 168 0
 497 01e0 019B     		ldr	r3, [sp, #4]	@ tmp115, pI2cDevice
 498 01e2 1B68     		ldr	r3, [r3]	@ D.6404, pI2cDevice_3(D)->controllerConfig
 499 01e4 002B     		cmp	r3, #0	@ D.6404,
 500 01e6 05D1     		bne	.L28	@,
 169:../epcf/peripheral/source/i2c/i2c.c **** 	{
 170:../epcf/peripheral/source/i2c/i2c.c **** 		status = epcf_i2c_nativeTxBufferFlush(pI2cDevice);
 501              		.loc 1 170 0
 502 01e8 0198     		ldr	r0, [sp, #4]	@, pI2cDevice
 503 01ea FFF7FEFF 		bl	epcf_i2c_nativeTxBufferFlush	@
 504 01ee 0346     		mov	r3, r0	@ tmp116,
 505 01f0 8DF80F30 		strb	r3, [sp, #15]	@ tmp117, status
 506              	.L28:
 171:../epcf/peripheral/source/i2c/i2c.c **** 	}
 172:../epcf/peripheral/source/i2c/i2c.c **** 	else
 173:../epcf/peripheral/source/i2c/i2c.c **** 	{
 174:../epcf/peripheral/source/i2c/i2c.c **** //		TODO: controller structure is not defined
 175:../epcf/peripheral/source/i2c/i2c.c **** 	}
 176:../epcf/peripheral/source/i2c/i2c.c **** 	return status;
 507              		.loc 1 176 0
 508 01f4 9DF80F30 		ldrb	r3, [sp, #15]	@ zero_extendqisi2	@ D.6405, status
ARM GAS  /tmp/ccTmpiai.s 			page 13


 509 01f8 5BB2     		sxtb	r3, r3	@ tmp119, D.6405
 177:../epcf/peripheral/source/i2c/i2c.c **** }
 510              		.loc 1 177 0
 511 01fa 1846     		mov	r0, r3	@, <retval>
 512 01fc 05B0     		add	sp, sp, #20	@,,
 513              	.LCFI26:
 514              		.cfi_def_cfa_offset 4
 515              		@ sp needed	@
 516 01fe 5DF804FB 		ldr	pc, [sp], #4	@
 517              		.cfi_endproc
 518              	.LFE48:
 519              		.size	epcf_i2c_txBufferFlush, .-epcf_i2c_txBufferFlush
 520 0202 00BF     		.align	2
 521              		.global	epcf_i2c_close
 522              		.thumb
 523              		.thumb_func
 524              		.type	epcf_i2c_close, %function
 525              	epcf_i2c_close:
 526              	.LFB49:
 178:../epcf/peripheral/source/i2c/i2c.c **** 
 179:../epcf/peripheral/source/i2c/i2c.c **** int8_t epcf_i2c_close(EPCFI2cDevice_t* pI2cDevice)
 180:../epcf/peripheral/source/i2c/i2c.c **** {
 527              		.loc 1 180 0
 528              		.cfi_startproc
 529              		@ args = 0, pretend = 0, frame = 16
 530              		@ frame_needed = 0, uses_anonymous_args = 0
 531 0204 00B5     		push	{lr}	@
 532              	.LCFI27:
 533              		.cfi_def_cfa_offset 4
 534              		.cfi_offset 14, -4
 535 0206 85B0     		sub	sp, sp, #20	@,,
 536              	.LCFI28:
 537              		.cfi_def_cfa_offset 24
 538 0208 0190     		str	r0, [sp, #4]	@ pI2cDevice, pI2cDevice
 181:../epcf/peripheral/source/i2c/i2c.c **** 	int8_t status=0;
 539              		.loc 1 181 0
 540 020a 0023     		movs	r3, #0	@ tmp113,
 541 020c 8DF80F30 		strb	r3, [sp, #15]	@ tmp114, status
 182:../epcf/peripheral/source/i2c/i2c.c **** 
 183:../epcf/peripheral/source/i2c/i2c.c **** 	if(pI2cDevice->controllerConfig == NULL)
 542              		.loc 1 183 0
 543 0210 019B     		ldr	r3, [sp, #4]	@ tmp115, pI2cDevice
 544 0212 1B68     		ldr	r3, [r3]	@ D.6406, pI2cDevice_3(D)->controllerConfig
 545 0214 002B     		cmp	r3, #0	@ D.6406,
 546 0216 05D1     		bne	.L31	@,
 184:../epcf/peripheral/source/i2c/i2c.c **** 	{
 185:../epcf/peripheral/source/i2c/i2c.c **** 		status = epcf_i2c_nativeClose(pI2cDevice);
 547              		.loc 1 185 0
 548 0218 0198     		ldr	r0, [sp, #4]	@, pI2cDevice
 549 021a FFF7FEFF 		bl	epcf_i2c_nativeClose	@
 550 021e 0346     		mov	r3, r0	@ tmp116,
 551 0220 8DF80F30 		strb	r3, [sp, #15]	@ tmp117, status
 552              	.L31:
 186:../epcf/peripheral/source/i2c/i2c.c **** 	}
 187:../epcf/peripheral/source/i2c/i2c.c **** 	else
 188:../epcf/peripheral/source/i2c/i2c.c **** 	{
 189:../epcf/peripheral/source/i2c/i2c.c **** //		TODO: controller structure is not defined
ARM GAS  /tmp/ccTmpiai.s 			page 14


 190:../epcf/peripheral/source/i2c/i2c.c **** 	}
 191:../epcf/peripheral/source/i2c/i2c.c **** 	return status;
 553              		.loc 1 191 0
 554 0224 9DF80F30 		ldrb	r3, [sp, #15]	@ zero_extendqisi2	@ D.6407, status
 555 0228 5BB2     		sxtb	r3, r3	@ tmp119, D.6407
 192:../epcf/peripheral/source/i2c/i2c.c **** }
 556              		.loc 1 192 0
 557 022a 1846     		mov	r0, r3	@, <retval>
 558 022c 05B0     		add	sp, sp, #20	@,,
 559              	.LCFI29:
 560              		.cfi_def_cfa_offset 4
 561              		@ sp needed	@
 562 022e 5DF804FB 		ldr	pc, [sp], #4	@
 563              		.cfi_endproc
 564              	.LFE49:
 565              		.size	epcf_i2c_close, .-epcf_i2c_close
 566 0232 00BF     		.align	2
 567              		.global	epcf_i2c_getDeviceCount
 568              		.thumb
 569              		.thumb_func
 570              		.type	epcf_i2c_getDeviceCount, %function
 571              	epcf_i2c_getDeviceCount:
 572              	.LFB50:
 193:../epcf/peripheral/source/i2c/i2c.c **** 
 194:../epcf/peripheral/source/i2c/i2c.c **** uint8_t epcf_i2c_getDeviceCount()
 195:../epcf/peripheral/source/i2c/i2c.c **** {
 573              		.loc 1 195 0
 574              		.cfi_startproc
 575              		@ args = 0, pretend = 0, frame = 8
 576              		@ frame_needed = 0, uses_anonymous_args = 0
 577 0234 00B5     		push	{lr}	@
 578              	.LCFI30:
 579              		.cfi_def_cfa_offset 4
 580              		.cfi_offset 14, -4
 581 0236 83B0     		sub	sp, sp, #12	@,,
 582              	.LCFI31:
 583              		.cfi_def_cfa_offset 16
 196:../epcf/peripheral/source/i2c/i2c.c **** 	uint8_t status=0;
 584              		.loc 1 196 0
 585 0238 0023     		movs	r3, #0	@ tmp112,
 586 023a 8DF80730 		strb	r3, [sp, #7]	@ tmp113, status
 197:../epcf/peripheral/source/i2c/i2c.c **** 	status = epcf_i2c_nativeGetDeviceCount();
 587              		.loc 1 197 0
 588 023e FFF7FEFF 		bl	epcf_i2c_nativeGetDeviceCount	@
 589 0242 0346     		mov	r3, r0	@ tmp114,
 590 0244 8DF80730 		strb	r3, [sp, #7]	@ tmp115, status
 198:../epcf/peripheral/source/i2c/i2c.c **** 	return status;
 591              		.loc 1 198 0
 592 0248 9DF80730 		ldrb	r3, [sp, #7]	@ zero_extendqisi2	@ D.6408, status
 199:../epcf/peripheral/source/i2c/i2c.c **** }
 593              		.loc 1 199 0
 594 024c 1846     		mov	r0, r3	@, <retval>
 595 024e 03B0     		add	sp, sp, #12	@,,
 596              	.LCFI32:
 597              		.cfi_def_cfa_offset 4
 598              		@ sp needed	@
 599 0250 5DF804FB 		ldr	pc, [sp], #4	@
ARM GAS  /tmp/ccTmpiai.s 			page 15


 600              		.cfi_endproc
 601              	.LFE50:
 602              		.size	epcf_i2c_getDeviceCount, .-epcf_i2c_getDeviceCount
 603              		.align	2
 604              		.global	epcf_i2c_extGetDeviceCount
 605              		.thumb
 606              		.thumb_func
 607              		.type	epcf_i2c_extGetDeviceCount, %function
 608              	epcf_i2c_extGetDeviceCount:
 609              	.LFB51:
 200:../epcf/peripheral/source/i2c/i2c.c **** 
 201:../epcf/peripheral/source/i2c/i2c.c **** uint8_t epcf_i2c_extGetDeviceCount(EPCFI2cController_t* pI2cController)
 202:../epcf/peripheral/source/i2c/i2c.c **** {
 610              		.loc 1 202 0
 611              		.cfi_startproc
 612              		@ args = 0, pretend = 0, frame = 16
 613              		@ frame_needed = 0, uses_anonymous_args = 0
 614              		@ link register save eliminated.
 615 0254 84B0     		sub	sp, sp, #16	@,,
 616              	.LCFI33:
 617              		.cfi_def_cfa_offset 16
 618 0256 0190     		str	r0, [sp, #4]	@ pI2cController, pI2cController
 203:../epcf/peripheral/source/i2c/i2c.c **** 	uint8_t status=0;
 619              		.loc 1 203 0
 620 0258 0023     		movs	r3, #0	@ tmp112,
 621 025a 8DF80F30 		strb	r3, [sp, #15]	@ tmp113, status
 204:../epcf/peripheral/source/i2c/i2c.c **** //	TODO: controller structure is not defined
 205:../epcf/peripheral/source/i2c/i2c.c **** 	return status;
 622              		.loc 1 205 0
 623 025e 9DF80F30 		ldrb	r3, [sp, #15]	@ zero_extendqisi2	@ D.6409, status
 206:../epcf/peripheral/source/i2c/i2c.c **** }
 624              		.loc 1 206 0
 625 0262 1846     		mov	r0, r3	@, <retval>
 626 0264 04B0     		add	sp, sp, #16	@,,
 627              	.LCFI34:
 628              		.cfi_def_cfa_offset 0
 629              		@ sp needed	@
 630 0266 7047     		bx	lr	@
 631              		.cfi_endproc
 632              	.LFE51:
 633              		.size	epcf_i2c_extGetDeviceCount, .-epcf_i2c_extGetDeviceCount
 634              	.Letext0:
 635              		.file 2 "/usr/include/newlib/machine/_default_types.h"
 636              		.file 3 "/usr/include/newlib/sys/_stdint.h"
 637              		.file 4 "../pcf/include/../../epcf/./common/types.h"
 638              		.file 5 "./include/../../epcf/peripheral/source/i2c/i2c_hidden.h"
 639              		.file 6 "./include/../../epcf/peripheral/include/./i2c/i2c.h"
 640              		.file 7 "./include/../../epcf/utils/include/epcf_fifo.h"
 641              		.file 8 "../pcf/include/private/arch/arm/cm3/nxp/lpc1768/./../../../../arm/cm3/nxp/lpc1768/lpc1768