ARM GAS  /tmp/ccpnpUnM.s 			page 1


   1              		.syntax unified
   2              		.cpu cortex-m3
   3              		.fpu softvfp
   4              		.eabi_attribute 20, 1	@ Tag_ABI_FP_denormal
   5              		.eabi_attribute 21, 1	@ Tag_ABI_FP_exceptions
   6              		.eabi_attribute 23, 3	@ Tag_ABI_FP_number_model
   7              		.eabi_attribute 24, 1	@ Tag_ABI_align8_needed
   8              		.eabi_attribute 25, 1	@ Tag_ABI_align8_preserved
   9              		.eabi_attribute 26, 1	@ Tag_ABI_enum_size
  10              		.eabi_attribute 30, 6	@ Tag_ABI_optimization_goals
  11              		.eabi_attribute 34, 1	@ Tag_CPU_unaligned_access
  12              		.eabi_attribute 18, 4	@ Tag_ABI_PCS_wchar_t
  13              		.file	"sysClk_lpc1768.c"
  14              	@ GNU C (15:4.9.3+svn231177-1) version 4.9.3 20150529 (prerelease) (arm-none-eabi)
  15              	@	compiled by GNU C version 5.2.1 20151129, GMP version 6.1.0, MPFR version 3.1.3, MPC version 1.0.
  16              	@ warning: MPFR header version 3.1.3 differs from library version 3.1.4.
  17              	@ GGC heuristics: --param ggc-min-expand=100 --param ggc-min-heapsize=131072
  18              	@ options passed:  -I . -I ./include -I ../pcf/include -imultilib armv7-m
  19              	@ -MD Build/Obj/Debug/sysClk_lpc1768.d -MF Build/.dep/sysClk_lpc1768.o.d
  20              	@ -MP -MQ Build/Obj/Debug/sysClk_lpc1768.o -D__USES_INITFINI__
  21              	@ ../epcf/native/port/arm/cm3/nxp/lpc1768/source/sysClk/sysClk_lpc1768.c
  22              	@ -mcpu=cortex-m3 -mthumb -auxbase-strip Build/Obj/Debug/sysClk_lpc1768.o
  23              	@ -gdwarf-2 -O0 -Wall -Wno-cpp -std=gnu99 -fomit-frame-pointer
  24              	@ -fverbose-asm
  25              	@ options enabled:  -faggressive-loop-optimizations -fauto-inc-dec -fcommon
  26              	@ -fdelete-null-pointer-checks -fdwarf2-cfi-asm -fearly-inlining
  27              	@ -feliminate-unused-debug-types -ffunction-cse -fgcse-lm -fgnu-runtime
  28              	@ -fgnu-unique -fident -finline-atomics -fira-hoist-pressure
  29              	@ -fira-share-save-slots -fira-share-spill-slots -fivopts
  30              	@ -fkeep-static-consts -fleading-underscore -flifetime-dse -fmath-errno
  31              	@ -fmerge-debug-strings -fomit-frame-pointer -fpeephole
  32              	@ -fprefetch-loop-arrays -freg-struct-return
  33              	@ -fsched-critical-path-heuristic -fsched-dep-count-heuristic
  34              	@ -fsched-group-heuristic -fsched-interblock -fsched-last-insn-heuristic
  35              	@ -fsched-rank-heuristic -fsched-spec -fsched-spec-insn-heuristic
  36              	@ -fsched-stalled-insns-dep -fshow-column -fsigned-zeros
  37              	@ -fsplit-ivs-in-unroller -fstrict-volatile-bitfields -fsync-libcalls
  38              	@ -ftrapping-math -ftree-coalesce-vars -ftree-cselim -ftree-forwprop
  39              	@ -ftree-loop-if-convert -ftree-loop-im -ftree-loop-ivcanon
  40              	@ -ftree-loop-optimize -ftree-parallelize-loops= -ftree-phiprop
  41              	@ -ftree-reassoc -ftree-scev-cprop -funit-at-a-time -fverbose-asm
  42              	@ -fzero-initialized-in-bss -mfix-cortex-m3-ldrd -mlittle-endian -mlra
  43              	@ -mpic-data-is-text-relative -msched-prolog -mthumb -munaligned-access
  44              	@ -mvectorize-with-neon-quad
  45              	
  46              		.text
  47              	.Ltext0:
  48              		.cfi_sections	.debug_frame
  49              		.bss
  50              		.align	2
  51              	clkFrq:
  52 0000 00000000 		.space	4
  53              		.text
  54              		.align	2
  55              		.global	epcfNativeCreateSysClk
  56              		.thumb
  57              		.thumb_func
ARM GAS  /tmp/ccpnpUnM.s 			page 2


  58              		.type	epcfNativeCreateSysClk, %function
  59              	epcfNativeCreateSysClk:
  60              	.LFB40:
  61              		.file 1 "../epcf/native/port/arm/cm3/nxp/lpc1768/source/sysClk/sysClk_lpc1768.c"
   1:../epcf/native/port/arm/cm3/nxp/lpc1768/source/sysClk/sysClk_lpc1768.c **** #include <stdlib.h>
   2:../epcf/native/port/arm/cm3/nxp/lpc1768/source/sysClk/sysClk_lpc1768.c **** 
   3:../epcf/native/port/arm/cm3/nxp/lpc1768/source/sysClk/sysClk_lpc1768.c **** #include "pcf.h"
   4:../epcf/native/port/arm/cm3/nxp/lpc1768/source/sysClk/sysClk_lpc1768.c **** 
   5:../epcf/native/port/arm/cm3/nxp/lpc1768/source/sysClk/sysClk_lpc1768.c **** #define __EPCF_PRIVATE_SYSCLK_H_INCLUDE PCF_CONDITIONAL_INCLUDE_FILE(EPCF_DIR_PATH/,peripheral/sour
   6:../epcf/native/port/arm/cm3/nxp/lpc1768/source/sysClk/sysClk_lpc1768.c ****  #include  __EPCF_PRIVATE_SYSCLK_H_INCLUDE
   7:../epcf/native/port/arm/cm3/nxp/lpc1768/source/sysClk/sysClk_lpc1768.c ****  #undef __EPCF_PRIVATE_SYSCLK_H_INCLUDE
   8:../epcf/native/port/arm/cm3/nxp/lpc1768/source/sysClk/sysClk_lpc1768.c **** 
   9:../epcf/native/port/arm/cm3/nxp/lpc1768/source/sysClk/sysClk_lpc1768.c **** //#include "epcf_string.h"
  10:../epcf/native/port/arm/cm3/nxp/lpc1768/source/sysClk/sysClk_lpc1768.c **** 
  11:../epcf/native/port/arm/cm3/nxp/lpc1768/source/sysClk/sysClk_lpc1768.c **** /**
  12:../epcf/native/port/arm/cm3/nxp/lpc1768/source/sysClk/sysClk_lpc1768.c ****  * Function provides detailed configuration of PLL with given arguments. 
  13:../epcf/native/port/arm/cm3/nxp/lpc1768/source/sysClk/sysClk_lpc1768.c ****  * CPU Freq = ((SrcClkFreq / N) * 2M) / D
  14:../epcf/native/port/arm/cm3/nxp/lpc1768/source/sysClk/sysClk_lpc1768.c ****  *
  15:../epcf/native/port/arm/cm3/nxp/lpc1768/source/sysClk/sysClk_lpc1768.c ****  * \param pllPreDivider PLL0 Pre-Divider value "N". 
  16:../epcf/native/port/arm/cm3/nxp/lpc1768/source/sysClk/sysClk_lpc1768.c ****  * \param pllMultiplier PLL0 Multiplier value "M". 
  17:../epcf/native/port/arm/cm3/nxp/lpc1768/source/sysClk/sysClk_lpc1768.c ****  * \param cpuClkDivider PLL clock will be divided by this value to produce the CPU clock.
  18:../epcf/native/port/arm/cm3/nxp/lpc1768/source/sysClk/sysClk_lpc1768.c ****  * \param pllClksrc Selects the clock source for PLL0
  19:../epcf/native/port/arm/cm3/nxp/lpc1768/source/sysClk/sysClk_lpc1768.c ****  *  
  20:../epcf/native/port/arm/cm3/nxp/lpc1768/source/sysClk/sysClk_lpc1768.c ****  * \return PLL config Status.
  21:../epcf/native/port/arm/cm3/nxp/lpc1768/source/sysClk/sysClk_lpc1768.c ****  */
  22:../epcf/native/port/arm/cm3/nxp/lpc1768/source/sysClk/sysClk_lpc1768.c **** static int8_t _epcfPllConfig(uint32_t pllPreDivider,uint32_t pllMultiplier,uint32_t cpuClkDivider,u
  23:../epcf/native/port/arm/cm3/nxp/lpc1768/source/sysClk/sysClk_lpc1768.c **** 
  24:../epcf/native/port/arm/cm3/nxp/lpc1768/source/sysClk/sysClk_lpc1768.c **** /**
  25:../epcf/native/port/arm/cm3/nxp/lpc1768/source/sysClk/sysClk_lpc1768.c ****  * The function sets the CPU Clock(CCLK) frequency with given settings.
  26:../epcf/native/port/arm/cm3/nxp/lpc1768/source/sysClk/sysClk_lpc1768.c ****  * The function internally calculates PLL0 Multiplier value(M),PLL0 Pre-Divider value(N), CPU clock
  27:../epcf/native/port/arm/cm3/nxp/lpc1768/source/sysClk/sysClk_lpc1768.c ****  * It calls pfPllInit with calculated arguments for that.
  28:../epcf/native/port/arm/cm3/nxp/lpc1768/source/sysClk/sysClk_lpc1768.c ****  *
  29:../epcf/native/port/arm/cm3/nxp/lpc1768/source/sysClk/sysClk_lpc1768.c ****  * \param config Pointer to configuration structure which contains the settings for PLL and CPU clo
  30:../epcf/native/port/arm/cm3/nxp/lpc1768/source/sysClk/sysClk_lpc1768.c ****  *
  31:../epcf/native/port/arm/cm3/nxp/lpc1768/source/sysClk/sysClk_lpc1768.c ****  * \return CPU clock config Status.
  32:../epcf/native/port/arm/cm3/nxp/lpc1768/source/sysClk/sysClk_lpc1768.c ****  */
  33:../epcf/native/port/arm/cm3/nxp/lpc1768/source/sysClk/sysClk_lpc1768.c **** static int8_t _epcfSysSetCpuClock(EPCFSysClkCfg_t* pConfig);
  34:../epcf/native/port/arm/cm3/nxp/lpc1768/source/sysClk/sysClk_lpc1768.c **** 
  35:../epcf/native/port/arm/cm3/nxp/lpc1768/source/sysClk/sysClk_lpc1768.c **** static void _epcfPllFeedSequence(void);
  36:../epcf/native/port/arm/cm3/nxp/lpc1768/source/sysClk/sysClk_lpc1768.c **** 
  37:../epcf/native/port/arm/cm3/nxp/lpc1768/source/sysClk/sysClk_lpc1768.c **** static uint32_t clkFrq=0;
  38:../epcf/native/port/arm/cm3/nxp/lpc1768/source/sysClk/sysClk_lpc1768.c **** 
  39:../epcf/native/port/arm/cm3/nxp/lpc1768/source/sysClk/sysClk_lpc1768.c **** EPCFSysClkDevice_t* epcfNativeCreateSysClk(EPCFSysClkCfg_t* pSysClkConfig)
  40:../epcf/native/port/arm/cm3/nxp/lpc1768/source/sysClk/sysClk_lpc1768.c **** {
  62              		.loc 1 40 0
  63              		.cfi_startproc
  64              		@ args = 0, pretend = 0, frame = 16
  65              		@ frame_needed = 0, uses_anonymous_args = 0
  66 0000 00B5     		push	{lr}	@
  67              	.LCFI0:
  68              		.cfi_def_cfa_offset 4
  69              		.cfi_offset 14, -4
  70 0002 85B0     		sub	sp, sp, #20	@,,
  71              	.LCFI1:
  72              		.cfi_def_cfa_offset 24
  73 0004 0190     		str	r0, [sp, #4]	@ pSysClkConfig, pSysClkConfig
  41:../epcf/native/port/arm/cm3/nxp/lpc1768/source/sysClk/sysClk_lpc1768.c ****   EPCFSysClkDevice_t* pSysClkDevice;
ARM GAS  /tmp/ccpnpUnM.s 			page 3


  42:../epcf/native/port/arm/cm3/nxp/lpc1768/source/sysClk/sysClk_lpc1768.c ****   int8_t status = 0;
  74              		.loc 1 42 0
  75 0006 0023     		movs	r3, #0	@ tmp112,
  76 0008 8DF80F30 		strb	r3, [sp, #15]	@ tmp113, status
  43:../epcf/native/port/arm/cm3/nxp/lpc1768/source/sysClk/sysClk_lpc1768.c **** 
  44:../epcf/native/port/arm/cm3/nxp/lpc1768/source/sysClk/sysClk_lpc1768.c ****   pSysClkDevice = (EPCFSysClkDevice_t *)malloc(sizeof(EPCFSysClkDevice_t));
  77              		.loc 1 44 0
  78 000c 0020     		movs	r0, #0	@,
  79 000e FFF7FEFF 		bl	malloc	@
  80 0012 0346     		mov	r3, r0	@ tmp114,
  81 0014 0293     		str	r3, [sp, #8]	@ tmp114, pSysClkDevice
  45:../epcf/native/port/arm/cm3/nxp/lpc1768/source/sysClk/sysClk_lpc1768.c ****   if (pSysClkDevice == NULL)
  82              		.loc 1 45 0
  83 0016 029B     		ldr	r3, [sp, #8]	@ tmp115, pSysClkDevice
  84 0018 002B     		cmp	r3, #0	@ tmp115,
  85 001a 01D1     		bne	.L2	@,
  46:../epcf/native/port/arm/cm3/nxp/lpc1768/source/sysClk/sysClk_lpc1768.c ****     return NULL;
  86              		.loc 1 46 0
  87 001c 0023     		movs	r3, #0	@ D.6462,
  88 001e 0CE0     		b	.L3	@
  89              	.L2:
  47:../epcf/native/port/arm/cm3/nxp/lpc1768/source/sysClk/sysClk_lpc1768.c **** 
  48:../epcf/native/port/arm/cm3/nxp/lpc1768/source/sysClk/sysClk_lpc1768.c ****   status = _epcfSysSetCpuClock(pSysClkConfig);
  90              		.loc 1 48 0
  91 0020 0198     		ldr	r0, [sp, #4]	@, pSysClkConfig
  92 0022 00F059F9 		bl	_epcfSysSetCpuClock	@
  93 0026 0346     		mov	r3, r0	@ tmp116,
  94 0028 8DF80F30 		strb	r3, [sp, #15]	@ tmp117, status
  49:../epcf/native/port/arm/cm3/nxp/lpc1768/source/sysClk/sysClk_lpc1768.c ****   if(status != 0)
  95              		.loc 1 49 0
  96 002c 9DF90F30 		ldrsb	r3, [sp, #15]	@ tmp118, status
  97 0030 002B     		cmp	r3, #0	@ tmp118,
  98 0032 01D0     		beq	.L4	@,
  50:../epcf/native/port/arm/cm3/nxp/lpc1768/source/sysClk/sysClk_lpc1768.c ****     return NULL;
  99              		.loc 1 50 0
 100 0034 0023     		movs	r3, #0	@ D.6462,
 101 0036 00E0     		b	.L3	@
 102              	.L4:
  51:../epcf/native/port/arm/cm3/nxp/lpc1768/source/sysClk/sysClk_lpc1768.c **** 
  52:../epcf/native/port/arm/cm3/nxp/lpc1768/source/sysClk/sysClk_lpc1768.c ****   return pSysClkDevice;
 103              		.loc 1 52 0
 104 0038 029B     		ldr	r3, [sp, #8]	@ D.6462, pSysClkDevice
 105              	.L3:
  53:../epcf/native/port/arm/cm3/nxp/lpc1768/source/sysClk/sysClk_lpc1768.c **** }
 106              		.loc 1 53 0
 107 003a 1846     		mov	r0, r3	@, <retval>
 108 003c 05B0     		add	sp, sp, #20	@,,
 109              	.LCFI2:
 110              		.cfi_def_cfa_offset 4
 111              		@ sp needed	@
 112 003e 5DF804FB 		ldr	pc, [sp], #4	@
 113              		.cfi_endproc
 114              	.LFE40:
 115              		.size	epcfNativeCreateSysClk, .-epcfNativeCreateSysClk
 116 0042 00BF     		.align	2
 117              		.global	epcfNativeSysGetCpuClock
 118              		.thumb
ARM GAS  /tmp/ccpnpUnM.s 			page 4


 119              		.thumb_func
 120              		.type	epcfNativeSysGetCpuClock, %function
 121              	epcfNativeSysGetCpuClock:
 122              	.LFB41:
  54:../epcf/native/port/arm/cm3/nxp/lpc1768/source/sysClk/sysClk_lpc1768.c **** 
  55:../epcf/native/port/arm/cm3/nxp/lpc1768/source/sysClk/sysClk_lpc1768.c **** uint32_t epcfNativeSysGetCpuClock (EPCFSysClkDevice_t *pSysClkDevice)
  56:../epcf/native/port/arm/cm3/nxp/lpc1768/source/sysClk/sysClk_lpc1768.c **** {
 123              		.loc 1 56 0
 124              		.cfi_startproc
 125              		@ args = 0, pretend = 0, frame = 32
 126              		@ frame_needed = 0, uses_anonymous_args = 0
 127              		@ link register save eliminated.
 128 0044 88B0     		sub	sp, sp, #32	@,,
 129              	.LCFI3:
 130              		.cfi_def_cfa_offset 32
 131 0046 0190     		str	r0, [sp, #4]	@ pSysClkDevice, pSysClkDevice
  57:../epcf/native/port/arm/cm3/nxp/lpc1768/source/sysClk/sysClk_lpc1768.c ****   uint32_t pllPreDiv, pllMul, pllDiv, srcClkFreq, freq, clkSrc;
  58:../epcf/native/port/arm/cm3/nxp/lpc1768/source/sysClk/sysClk_lpc1768.c ****   
  59:../epcf/native/port/arm/cm3/nxp/lpc1768/source/sysClk/sysClk_lpc1768.c ****   pllMul = (PERIPH_SC->PLL0STAT & 0x7FFF) + 1;
 132              		.loc 1 59 0
 133 0048 234B     		ldr	r3, .L13	@ D.6463,
 134 004a D3F88830 		ldr	r3, [r3, #136]	@ D.6464, _3->PLL0STAT
 135 004e C3F30E03 		ubfx	r3, r3, #0, #15	@ D.6464, D.6464,,
 136 0052 0133     		adds	r3, r3, #1	@ tmp131, D.6464,
 137 0054 0593     		str	r3, [sp, #20]	@ tmp131, pllMul
  60:../epcf/native/port/arm/cm3/nxp/lpc1768/source/sysClk/sysClk_lpc1768.c ****   pllPreDiv = ((PERIPH_SC->PLL0STAT >> 16) & 0xFF) + 1;
 138              		.loc 1 60 0
 139 0056 204B     		ldr	r3, .L13	@ D.6463,
 140 0058 D3F88830 		ldr	r3, [r3, #136]	@ D.6464, _7->PLL0STAT
 141 005c 1B0C     		lsrs	r3, r3, #16	@ D.6464, D.6464,
 142 005e DBB2     		uxtb	r3, r3	@ D.6464, D.6464
 143 0060 0133     		adds	r3, r3, #1	@ tmp132, D.6464,
 144 0062 0493     		str	r3, [sp, #16]	@ tmp132, pllPreDiv
  61:../epcf/native/port/arm/cm3/nxp/lpc1768/source/sysClk/sysClk_lpc1768.c ****   pllDiv = (PERIPH_SC->CCLKCFG & 0xFF)+ 1;
 145              		.loc 1 61 0
 146 0064 1C4B     		ldr	r3, .L13	@ D.6463,
 147 0066 D3F80431 		ldr	r3, [r3, #260]	@ D.6464, _12->CCLKCFG
 148 006a DBB2     		uxtb	r3, r3	@ D.6464, D.6464
 149 006c 0133     		adds	r3, r3, #1	@ tmp133, D.6464,
 150 006e 0393     		str	r3, [sp, #12]	@ tmp133, pllDiv
  62:../epcf/native/port/arm/cm3/nxp/lpc1768/source/sysClk/sysClk_lpc1768.c ****   clkSrc = PERIPH_SC->CLKSRCSEL & 0x03;     
 151              		.loc 1 62 0
 152 0070 194B     		ldr	r3, .L13	@ D.6463,
 153 0072 D3F80C31 		ldr	r3, [r3, #268]	@ D.6464, _16->CLKSRCSEL
 154 0076 03F00303 		and	r3, r3, #3	@ tmp134, D.6464,
 155 007a 0293     		str	r3, [sp, #8]	@ tmp134, clkSrc
  63:../epcf/native/port/arm/cm3/nxp/lpc1768/source/sysClk/sysClk_lpc1768.c **** 
  64:../epcf/native/port/arm/cm3/nxp/lpc1768/source/sysClk/sysClk_lpc1768.c ****   switch (clkSrc)
 156              		.loc 1 64 0
 157 007c 029B     		ldr	r3, [sp, #8]	@ clkSrc, clkSrc
 158 007e 012B     		cmp	r3, #1	@ clkSrc,
 159 0080 04D0     		beq	.L7	@,
 160 0082 022B     		cmp	r3, #2	@ clkSrc,
 161 0084 06D0     		beq	.L8	@,
  65:../epcf/native/port/arm/cm3/nxp/lpc1768/source/sysClk/sysClk_lpc1768.c ****   {
  66:../epcf/native/port/arm/cm3/nxp/lpc1768/source/sysClk/sysClk_lpc1768.c ****     default:                            // Reserved
  67:../epcf/native/port/arm/cm3/nxp/lpc1768/source/sysClk/sysClk_lpc1768.c ****     case 0:                             // Internal RC oscillator
ARM GAS  /tmp/ccpnpUnM.s 			page 5


  68:../epcf/native/port/arm/cm3/nxp/lpc1768/source/sysClk/sysClk_lpc1768.c ****       srcClkFreq = 4000000;
 162              		.loc 1 68 0
 163 0086 154B     		ldr	r3, .L13+4	@ tmp136,
 164 0088 0793     		str	r3, [sp, #28]	@ tmp136, srcClkFreq
  69:../epcf/native/port/arm/cm3/nxp/lpc1768/source/sysClk/sysClk_lpc1768.c ****             break;
 165              		.loc 1 69 0
 166 008a 07E0     		b	.L9	@
 167              	.L7:
  70:../epcf/native/port/arm/cm3/nxp/lpc1768/source/sysClk/sysClk_lpc1768.c ****     
  71:../epcf/native/port/arm/cm3/nxp/lpc1768/source/sysClk/sysClk_lpc1768.c ****     case 1:                             // Main oscillator
  72:../epcf/native/port/arm/cm3/nxp/lpc1768/source/sysClk/sysClk_lpc1768.c ****       srcClkFreq = clkFrq;
 168              		.loc 1 72 0
 169 008c 144B     		ldr	r3, .L13+8	@ tmp137,
 170 008e 1B68     		ldr	r3, [r3]	@ tmp138, clkFrq
 171 0090 0793     		str	r3, [sp, #28]	@ tmp138, srcClkFreq
  73:../epcf/native/port/arm/cm3/nxp/lpc1768/source/sysClk/sysClk_lpc1768.c ****       break;
 172              		.loc 1 73 0
 173 0092 03E0     		b	.L9	@
 174              	.L8:
  74:../epcf/native/port/arm/cm3/nxp/lpc1768/source/sysClk/sysClk_lpc1768.c **** 
  75:../epcf/native/port/arm/cm3/nxp/lpc1768/source/sysClk/sysClk_lpc1768.c ****     case 2:                             // RTC oscillator
  76:../epcf/native/port/arm/cm3/nxp/lpc1768/source/sysClk/sysClk_lpc1768.c ****       srcClkFreq = 32768;
 175              		.loc 1 76 0
 176 0094 4FF40043 		mov	r3, #32768	@ tmp139,
 177 0098 0793     		str	r3, [sp, #28]	@ tmp139, srcClkFreq
  77:../epcf/native/port/arm/cm3/nxp/lpc1768/source/sysClk/sysClk_lpc1768.c ****       break;
 178              		.loc 1 77 0
 179 009a 00BF     		nop
 180              	.L9:
  78:../epcf/native/port/arm/cm3/nxp/lpc1768/source/sysClk/sysClk_lpc1768.c ****   }
  79:../epcf/native/port/arm/cm3/nxp/lpc1768/source/sysClk/sysClk_lpc1768.c **** 
  80:../epcf/native/port/arm/cm3/nxp/lpc1768/source/sysClk/sysClk_lpc1768.c ****   if ( ((PERIPH_SC->PLL0STAT >> 24) & 3) == 3 )   // PLL0 connected
 181              		.loc 1 80 0
 182 009c 0E4B     		ldr	r3, .L13	@ D.6463,
 183 009e D3F88830 		ldr	r3, [r3, #136]	@ D.6464, _22->PLL0STAT
 184 00a2 1B0E     		lsrs	r3, r3, #24	@ D.6464, D.6464,
 185 00a4 03F00303 		and	r3, r3, #3	@ D.6464, D.6464,
 186 00a8 032B     		cmp	r3, #3	@ D.6464,
 187 00aa 0CD1     		bne	.L10	@,
  81:../epcf/native/port/arm/cm3/nxp/lpc1768/source/sysClk/sysClk_lpc1768.c ****   {
  82:../epcf/native/port/arm/cm3/nxp/lpc1768/source/sysClk/sysClk_lpc1768.c ****     freq = ( (srcClkFreq / pllPreDiv) * (2 * pllMul) ) / pllDiv;
 188              		.loc 1 82 0
 189 00ac 079A     		ldr	r2, [sp, #28]	@ tmp140, srcClkFreq
 190 00ae 049B     		ldr	r3, [sp, #16]	@ tmp141, pllPreDiv
 191 00b0 B2FBF3F3 		udiv	r3, r2, r3	@ D.6464, tmp140, tmp141
 192 00b4 059A     		ldr	r2, [sp, #20]	@ tmp142, pllMul
 193 00b6 02FB03F3 		mul	r3, r2, r3	@ D.6464, tmp142, D.6464
 194 00ba 5A00     		lsls	r2, r3, #1	@ D.6464, D.6464,
 195 00bc 039B     		ldr	r3, [sp, #12]	@ tmp145, pllDiv
 196 00be B2FBF3F3 		udiv	r3, r2, r3	@ tmp144, D.6464, tmp145
 197 00c2 0693     		str	r3, [sp, #24]	@ tmp144, freq
 198 00c4 04E0     		b	.L11	@
 199              	.L10:
  83:../epcf/native/port/arm/cm3/nxp/lpc1768/source/sysClk/sysClk_lpc1768.c ****   }
  84:../epcf/native/port/arm/cm3/nxp/lpc1768/source/sysClk/sysClk_lpc1768.c ****   else
  85:../epcf/native/port/arm/cm3/nxp/lpc1768/source/sysClk/sysClk_lpc1768.c ****   {
  86:../epcf/native/port/arm/cm3/nxp/lpc1768/source/sysClk/sysClk_lpc1768.c ****     freq = (srcClkFreq / pllDiv);
ARM GAS  /tmp/ccpnpUnM.s 			page 6


 200              		.loc 1 86 0
 201 00c6 079A     		ldr	r2, [sp, #28]	@ tmp148, srcClkFreq
 202 00c8 039B     		ldr	r3, [sp, #12]	@ tmp149, pllDiv
 203 00ca B2FBF3F3 		udiv	r3, r2, r3	@ tmp147, tmp148, tmp149
 204 00ce 0693     		str	r3, [sp, #24]	@ tmp147, freq
 205              	.L11:
  87:../epcf/native/port/arm/cm3/nxp/lpc1768/source/sysClk/sysClk_lpc1768.c ****   }
  88:../epcf/native/port/arm/cm3/nxp/lpc1768/source/sysClk/sysClk_lpc1768.c ****   return freq;
 206              		.loc 1 88 0
 207 00d0 069B     		ldr	r3, [sp, #24]	@ D.6465, freq
  89:../epcf/native/port/arm/cm3/nxp/lpc1768/source/sysClk/sysClk_lpc1768.c **** }
 208              		.loc 1 89 0
 209 00d2 1846     		mov	r0, r3	@, <retval>
 210 00d4 08B0     		add	sp, sp, #32	@,,
 211              	.LCFI4:
 212              		.cfi_def_cfa_offset 0
 213              		@ sp needed	@
 214 00d6 7047     		bx	lr	@
 215              	.L14:
 216              		.align	2
 217              	.L13:
 218 00d8 00C00F40 		.word	1074774016
 219 00dc 00093D00 		.word	4000000
 220 00e0 00000000 		.word	clkFrq
 221              		.cfi_endproc
 222              	.LFE41:
 223              		.size	epcfNativeSysGetCpuClock, .-epcfNativeSysGetCpuClock
 224              		.align	2
 225              		.global	epcfNativeSysSetPclkDiv
 226              		.thumb
 227              		.thumb_func
 228              		.type	epcfNativeSysSetPclkDiv, %function
 229              	epcfNativeSysSetPclkDiv:
 230              	.LFB42:
  90:../epcf/native/port/arm/cm3/nxp/lpc1768/source/sysClk/sysClk_lpc1768.c **** 
  91:../epcf/native/port/arm/cm3/nxp/lpc1768/source/sysClk/sysClk_lpc1768.c **** void epcfNativeSysSetPclkDiv(EPCFSysClkDevice_t *pSysClkDevice, uint32_t peripheral, uint32_t clock
  92:../epcf/native/port/arm/cm3/nxp/lpc1768/source/sysClk/sysClk_lpc1768.c **** {
 231              		.loc 1 92 0
 232              		.cfi_startproc
 233              		@ args = 0, pretend = 0, frame = 16
 234              		@ frame_needed = 0, uses_anonymous_args = 0
 235              		@ link register save eliminated.
 236 00e4 84B0     		sub	sp, sp, #16	@,,
 237              	.LCFI5:
 238              		.cfi_def_cfa_offset 16
 239 00e6 0390     		str	r0, [sp, #12]	@ pSysClkDevice, pSysClkDevice
 240 00e8 0291     		str	r1, [sp, #8]	@ peripheral, peripheral
 241 00ea 0192     		str	r2, [sp, #4]	@ clock, clock
  93:../epcf/native/port/arm/cm3/nxp/lpc1768/source/sysClk/sysClk_lpc1768.c ****   if(peripheral > 30)
 242              		.loc 1 93 0
 243 00ec 029B     		ldr	r3, [sp, #8]	@ tmp140, peripheral
 244 00ee 1E2B     		cmp	r3, #30	@ tmp140,
 245 00f0 19D9     		bls	.L16	@,
  94:../epcf/native/port/arm/cm3/nxp/lpc1768/source/sysClk/sysClk_lpc1768.c ****   {
  95:../epcf/native/port/arm/cm3/nxp/lpc1768/source/sysClk/sysClk_lpc1768.c ****     PERIPH_SC->PCLKSEL1 &= ~(0x03 << (peripheral-32));
 246              		.loc 1 95 0
 247 00f2 1949     		ldr	r1, .L18	@ D.6466,
ARM GAS  /tmp/ccpnpUnM.s 			page 7


 248 00f4 184B     		ldr	r3, .L18	@ D.6466,
 249 00f6 D3F8AC31 		ldr	r3, [r3, #428]	@ D.6467, _3->PCLKSEL1
 250 00fa 029A     		ldr	r2, [sp, #8]	@ tmp141, peripheral
 251 00fc 203A     		subs	r2, r2, #32	@ D.6467, tmp141,
 252 00fe 1046     		mov	r0, r2	@ D.6468, D.6467
 253 0100 0322     		movs	r2, #3	@ tmp142,
 254 0102 8240     		lsls	r2, r2, r0	@ D.6468, tmp142, D.6468
 255 0104 D243     		mvns	r2, r2	@ D.6468, D.6468
 256 0106 1340     		ands	r3, r3, r2	@, D.6467, D.6467, D.6467
 257 0108 C1F8AC31 		str	r3, [r1, #428]	@ D.6467, _2->PCLKSEL1
  96:../epcf/native/port/arm/cm3/nxp/lpc1768/source/sysClk/sysClk_lpc1768.c ****     PERIPH_SC->PCLKSEL1 |= (clock << (peripheral-32));
 258              		.loc 1 96 0
 259 010c 1249     		ldr	r1, .L18	@ D.6466,
 260 010e 124B     		ldr	r3, .L18	@ D.6466,
 261 0110 D3F8AC21 		ldr	r2, [r3, #428]	@ D.6467, _12->PCLKSEL1
 262 0114 029B     		ldr	r3, [sp, #8]	@ tmp143, peripheral
 263 0116 203B     		subs	r3, r3, #32	@ D.6467, tmp143,
 264 0118 1846     		mov	r0, r3	@ D.6468, D.6467
 265 011a 019B     		ldr	r3, [sp, #4]	@ tmp144, clock
 266 011c 8340     		lsls	r3, r3, r0	@ D.6467, tmp144, D.6468
 267 011e 1343     		orrs	r3, r3, r2	@, D.6467, D.6467, D.6467
 268 0120 C1F8AC31 		str	r3, [r1, #428]	@ D.6467, _11->PCLKSEL1
 269 0124 16E0     		b	.L15	@
 270              	.L16:
  97:../epcf/native/port/arm/cm3/nxp/lpc1768/source/sysClk/sysClk_lpc1768.c ****   }
  98:../epcf/native/port/arm/cm3/nxp/lpc1768/source/sysClk/sysClk_lpc1768.c ****   else
  99:../epcf/native/port/arm/cm3/nxp/lpc1768/source/sysClk/sysClk_lpc1768.c ****   {
 100:../epcf/native/port/arm/cm3/nxp/lpc1768/source/sysClk/sysClk_lpc1768.c ****     PERIPH_SC->PCLKSEL0 &= ~(0x03 << peripheral);
 271              		.loc 1 100 0
 272 0126 0C49     		ldr	r1, .L18	@ D.6466,
 273 0128 0B4B     		ldr	r3, .L18	@ D.6466,
 274 012a D3F8A831 		ldr	r3, [r3, #424]	@ D.6467, _20->PCLKSEL0
 275 012e 029A     		ldr	r2, [sp, #8]	@ D.6468, peripheral
 276 0130 0320     		movs	r0, #3	@ tmp145,
 277 0132 00FA02F2 		lsl	r2, r0, r2	@ D.6468, tmp145, D.6468
 278 0136 D243     		mvns	r2, r2	@ D.6468, D.6468
 279 0138 1340     		ands	r3, r3, r2	@, D.6467, D.6467, D.6467
 280 013a C1F8A831 		str	r3, [r1, #424]	@ D.6467, _19->PCLKSEL0
 101:../epcf/native/port/arm/cm3/nxp/lpc1768/source/sysClk/sysClk_lpc1768.c ****     PERIPH_SC->PCLKSEL0 |= (clock << peripheral);
 281              		.loc 1 101 0
 282 013e 0648     		ldr	r0, .L18	@ D.6466,
 283 0140 054B     		ldr	r3, .L18	@ D.6466,
 284 0142 D3F8A821 		ldr	r2, [r3, #424]	@ D.6467, _28->PCLKSEL0
 285 0146 029B     		ldr	r3, [sp, #8]	@ D.6468, peripheral
 286 0148 0199     		ldr	r1, [sp, #4]	@ tmp146, clock
 287 014a 01FA03F3 		lsl	r3, r1, r3	@ D.6467, tmp146, D.6468
 288 014e 1343     		orrs	r3, r3, r2	@, D.6467, D.6467, D.6467
 289 0150 C0F8A831 		str	r3, [r0, #424]	@ D.6467, _27->PCLKSEL0
 290              	.L15:
 102:../epcf/native/port/arm/cm3/nxp/lpc1768/source/sysClk/sysClk_lpc1768.c ****   }
 103:../epcf/native/port/arm/cm3/nxp/lpc1768/source/sysClk/sysClk_lpc1768.c **** }
 291              		.loc 1 103 0
 292 0154 04B0     		add	sp, sp, #16	@,,
 293              	.LCFI6:
 294              		.cfi_def_cfa_offset 0
 295              		@ sp needed	@
 296 0156 7047     		bx	lr	@
ARM GAS  /tmp/ccpnpUnM.s 			page 8


 297              	.L19:
 298              		.align	2
 299              	.L18:
 300 0158 00C00F40 		.word	1074774016
 301              		.cfi_endproc
 302              	.LFE42:
 303              		.size	epcfNativeSysSetPclkDiv, .-epcfNativeSysSetPclkDiv
 304              		.section	.rodata
 305              		.align	2
 306              	.LC0:
 307 0000 04       		.byte	4
 308 0001 01       		.byte	1
 309 0002 02       		.byte	2
 310 0003 08       		.byte	8
 311              		.text
 312              		.align	2
 313              		.global	epcfNativeSysGetPclk
 314              		.thumb
 315              		.thumb_func
 316              		.type	epcfNativeSysGetPclk, %function
 317              	epcfNativeSysGetPclk:
 318              	.LFB43:
 104:../epcf/native/port/arm/cm3/nxp/lpc1768/source/sysClk/sysClk_lpc1768.c **** 
 105:../epcf/native/port/arm/cm3/nxp/lpc1768/source/sysClk/sysClk_lpc1768.c **** uint32_t epcfNativeSysGetPclk(EPCFSysClkDevice_t *pSysClkDevice, uint32_t peripheral)
 106:../epcf/native/port/arm/cm3/nxp/lpc1768/source/sysClk/sysClk_lpc1768.c **** {
 319              		.loc 1 106 0
 320              		.cfi_startproc
 321              		@ args = 0, pretend = 0, frame = 24
 322              		@ frame_needed = 0, uses_anonymous_args = 0
 323 015c 00B5     		push	{lr}	@
 324              	.LCFI7:
 325              		.cfi_def_cfa_offset 4
 326              		.cfi_offset 14, -4
 327 015e 87B0     		sub	sp, sp, #28	@,,
 328              	.LCFI8:
 329              		.cfi_def_cfa_offset 32
 330 0160 0190     		str	r0, [sp, #4]	@ pSysClkDevice, pSysClkDevice
 331 0162 0091     		str	r1, [sp]	@ peripheral, peripheral
 107:../epcf/native/port/arm/cm3/nxp/lpc1768/source/sysClk/sysClk_lpc1768.c ****   const uint8_t pclkDiv[] = {4, 1, 2, 8};
 332              		.loc 1 107 0
 333 0164 1B4A     		ldr	r2, .L24	@ tmp128,
 334 0166 03AB     		add	r3, sp, #12	@ tmp129,,
 335 0168 1068     		ldr	r0, [r2]	@ unaligned	@,
 336 016a 1860     		str	r0, [r3]	@ unaligned	@, pclkDiv
 108:../epcf/native/port/arm/cm3/nxp/lpc1768/source/sysClk/sysClk_lpc1768.c ****   uint32_t divIndex;
 109:../epcf/native/port/arm/cm3/nxp/lpc1768/source/sysClk/sysClk_lpc1768.c ****   uint32_t freq = epcfNativeSysGetCpuClock(pSysClkDevice);
 337              		.loc 1 109 0
 338 016c 0198     		ldr	r0, [sp, #4]	@, pSysClkDevice
 339 016e FFF7FEFF 		bl	epcfNativeSysGetCpuClock	@
 340 0172 0490     		str	r0, [sp, #16]	@, freq
 110:../epcf/native/port/arm/cm3/nxp/lpc1768/source/sysClk/sysClk_lpc1768.c **** 
 111:../epcf/native/port/arm/cm3/nxp/lpc1768/source/sysClk/sysClk_lpc1768.c ****   if(peripheral > 30)
 341              		.loc 1 111 0
 342 0174 009B     		ldr	r3, [sp]	@ tmp131, peripheral
 343 0176 1E2B     		cmp	r3, #30	@ tmp131,
 344 0178 10D9     		bls	.L21	@,
 112:../epcf/native/port/arm/cm3/nxp/lpc1768/source/sysClk/sysClk_lpc1768.c ****   {
ARM GAS  /tmp/ccpnpUnM.s 			page 9


 113:../epcf/native/port/arm/cm3/nxp/lpc1768/source/sysClk/sysClk_lpc1768.c ****     divIndex = PERIPH_SC->PCLKSEL1 & (0x03 << (peripheral-32));
 345              		.loc 1 113 0
 346 017a 174B     		ldr	r3, .L24+4	@ D.6469,
 347 017c D3F8AC31 		ldr	r3, [r3, #428]	@ D.6470, _5->PCLKSEL1
 348 0180 009A     		ldr	r2, [sp]	@ tmp132, peripheral
 349 0182 203A     		subs	r2, r2, #32	@ D.6470, tmp132,
 350 0184 1146     		mov	r1, r2	@ D.6471, D.6470
 351 0186 0322     		movs	r2, #3	@ tmp133,
 352 0188 8A40     		lsls	r2, r2, r1	@ D.6471, tmp133, D.6471
 353 018a 1340     		ands	r3, r3, r2	@, tmp134, D.6470, D.6470
 354 018c 0593     		str	r3, [sp, #20]	@ tmp134, divIndex
 114:../epcf/native/port/arm/cm3/nxp/lpc1768/source/sysClk/sysClk_lpc1768.c ****     divIndex = divIndex >> (peripheral-32);
 355              		.loc 1 114 0
 356 018e 009B     		ldr	r3, [sp]	@ tmp135, peripheral
 357 0190 203B     		subs	r3, r3, #32	@ D.6470, tmp135,
 358 0192 1A46     		mov	r2, r3	@ D.6471, D.6470
 359 0194 059B     		ldr	r3, [sp, #20]	@ tmp137, divIndex
 360 0196 D340     		lsrs	r3, r3, r2	@ tmp136, tmp137, D.6471
 361 0198 0593     		str	r3, [sp, #20]	@ tmp136, divIndex
 362 019a 0DE0     		b	.L22	@
 363              	.L21:
 115:../epcf/native/port/arm/cm3/nxp/lpc1768/source/sysClk/sysClk_lpc1768.c ****   }
 116:../epcf/native/port/arm/cm3/nxp/lpc1768/source/sysClk/sysClk_lpc1768.c ****   else
 117:../epcf/native/port/arm/cm3/nxp/lpc1768/source/sysClk/sysClk_lpc1768.c ****   {
 118:../epcf/native/port/arm/cm3/nxp/lpc1768/source/sysClk/sysClk_lpc1768.c ****     divIndex = PERIPH_SC->PCLKSEL0 & (0x03 << (peripheral));
 364              		.loc 1 118 0
 365 019c 0E4B     		ldr	r3, .L24+4	@ D.6469,
 366 019e D3F8A831 		ldr	r3, [r3, #424]	@ D.6470, _15->PCLKSEL0
 367 01a2 009A     		ldr	r2, [sp]	@ D.6471, peripheral
 368 01a4 0321     		movs	r1, #3	@ tmp138,
 369 01a6 01FA02F2 		lsl	r2, r1, r2	@ D.6471, tmp138, D.6471
 370 01aa 1340     		ands	r3, r3, r2	@, tmp139, D.6470, D.6470
 371 01ac 0593     		str	r3, [sp, #20]	@ tmp139, divIndex
 119:../epcf/native/port/arm/cm3/nxp/lpc1768/source/sysClk/sysClk_lpc1768.c ****     divIndex = divIndex >> (peripheral);
 372              		.loc 1 119 0
 373 01ae 009B     		ldr	r3, [sp]	@ D.6471, peripheral
 374 01b0 059A     		ldr	r2, [sp, #20]	@ tmp141, divIndex
 375 01b2 22FA03F3 		lsr	r3, r2, r3	@ tmp140, tmp141, D.6471
 376 01b6 0593     		str	r3, [sp, #20]	@ tmp140, divIndex
 377              	.L22:
 120:../epcf/native/port/arm/cm3/nxp/lpc1768/source/sysClk/sysClk_lpc1768.c ****   }
 121:../epcf/native/port/arm/cm3/nxp/lpc1768/source/sysClk/sysClk_lpc1768.c ****   
 122:../epcf/native/port/arm/cm3/nxp/lpc1768/source/sysClk/sysClk_lpc1768.c ****   freq = freq / pclkDiv[divIndex];
 378              		.loc 1 122 0
 379 01b8 03AA     		add	r2, sp, #12	@ tmp142,,
 380 01ba 059B     		ldr	r3, [sp, #20]	@ tmp144, divIndex
 381 01bc 1344     		add	r3, r3, r2	@ tmp143, tmp142
 382 01be 1B78     		ldrb	r3, [r3]	@ zero_extendqisi2	@ D.6472, pclkDiv
 383 01c0 1A46     		mov	r2, r3	@ D.6470, D.6472
 384 01c2 049B     		ldr	r3, [sp, #16]	@ tmp146, freq
 385 01c4 B3FBF2F3 		udiv	r3, r3, r2	@ tmp145, tmp146, D.6470
 386 01c8 0493     		str	r3, [sp, #16]	@ tmp145, freq
 123:../epcf/native/port/arm/cm3/nxp/lpc1768/source/sysClk/sysClk_lpc1768.c ****   return freq;
 387              		.loc 1 123 0
 388 01ca 049B     		ldr	r3, [sp, #16]	@ D.6473, freq
 124:../epcf/native/port/arm/cm3/nxp/lpc1768/source/sysClk/sysClk_lpc1768.c **** }
 389              		.loc 1 124 0
ARM GAS  /tmp/ccpnpUnM.s 			page 10


 390 01cc 1846     		mov	r0, r3	@, <retval>
 391 01ce 07B0     		add	sp, sp, #28	@,,
 392              	.LCFI9:
 393              		.cfi_def_cfa_offset 4
 394              		@ sp needed	@
 395 01d0 5DF804FB 		ldr	pc, [sp], #4	@
 396              	.L25:
 397              		.align	2
 398              	.L24:
 399 01d4 00000000 		.word	.LC0
 400 01d8 00C00F40 		.word	1074774016
 401              		.cfi_endproc
 402              	.LFE43:
 403              		.size	epcfNativeSysGetPclk, .-epcfNativeSysGetPclk
 404              		.align	2
 405              		.thumb
 406              		.thumb_func
 407              		.type	_epcfPllConfig, %function
 408              	_epcfPllConfig:
 409              	.LFB44:
 125:../epcf/native/port/arm/cm3/nxp/lpc1768/source/sysClk/sysClk_lpc1768.c **** 
 126:../epcf/native/port/arm/cm3/nxp/lpc1768/source/sysClk/sysClk_lpc1768.c **** //return values:
 127:../epcf/native/port/arm/cm3/nxp/lpc1768/source/sysClk/sysClk_lpc1768.c **** //0  : success
 128:../epcf/native/port/arm/cm3/nxp/lpc1768/source/sysClk/sysClk_lpc1768.c **** //-1 : invalid arguments
 129:../epcf/native/port/arm/cm3/nxp/lpc1768/source/sysClk/sysClk_lpc1768.c **** static int8_t _epcfPllConfig(uint32_t pllPreDivider,uint32_t pllMultiplier,uint32_t cpuClkDivider,u
 130:../epcf/native/port/arm/cm3/nxp/lpc1768/source/sysClk/sysClk_lpc1768.c **** {
 410              		.loc 1 130 0
 411              		.cfi_startproc
 412              		@ args = 0, pretend = 0, frame = 24
 413              		@ frame_needed = 0, uses_anonymous_args = 0
 414 01dc 00B5     		push	{lr}	@
 415              	.LCFI10:
 416              		.cfi_def_cfa_offset 4
 417              		.cfi_offset 14, -4
 418 01de 87B0     		sub	sp, sp, #28	@,,
 419              	.LCFI11:
 420              		.cfi_def_cfa_offset 32
 421 01e0 0390     		str	r0, [sp, #12]	@ pllPreDivider, pllPreDivider
 422 01e2 0291     		str	r1, [sp, #8]	@ pllMultiplier, pllMultiplier
 423 01e4 0192     		str	r2, [sp, #4]	@ cpuClkDivider, cpuClkDivider
 424 01e6 0093     		str	r3, [sp]	@ pllClkSrc, pllClkSrc
 131:../epcf/native/port/arm/cm3/nxp/lpc1768/source/sysClk/sysClk_lpc1768.c ****   uint32_t pllStatus;
 132:../epcf/native/port/arm/cm3/nxp/lpc1768/source/sysClk/sysClk_lpc1768.c **** #if (PCF_ENABLE_DEBUG == PCF_ENABLE)
 133:../epcf/native/port/arm/cm3/nxp/lpc1768/source/sysClk/sysClk_lpc1768.c ****   if(pllClkSrc > 2)
 134:../epcf/native/port/arm/cm3/nxp/lpc1768/source/sysClk/sysClk_lpc1768.c ****   {
 135:../epcf/native/port/arm/cm3/nxp/lpc1768/source/sysClk/sysClk_lpc1768.c ****     return -1;
 136:../epcf/native/port/arm/cm3/nxp/lpc1768/source/sysClk/sysClk_lpc1768.c ****   }
 137:../epcf/native/port/arm/cm3/nxp/lpc1768/source/sysClk/sysClk_lpc1768.c **** #endif  // #if (PF_SYSCLK_DEBUG == 1)
 138:../epcf/native/port/arm/cm3/nxp/lpc1768/source/sysClk/sysClk_lpc1768.c **** 
 139:../epcf/native/port/arm/cm3/nxp/lpc1768/source/sysClk/sysClk_lpc1768.c ****   pllStatus = PERIPH_SC->PLL0STAT;
 425              		.loc 1 139 0
 426 01e8 344B     		ldr	r3, .L32	@ D.6474,
 427 01ea D3F88830 		ldr	r3, [r3, #136]	@ tmp143, _1->PLL0STAT
 428 01ee 0593     		str	r3, [sp, #20]	@ tmp143, pllStatus
 140:../epcf/native/port/arm/cm3/nxp/lpc1768/source/sysClk/sysClk_lpc1768.c ****   PERIPH_SC->SCS = 0x20;              // Enable main oscillator
 429              		.loc 1 140 0
 430 01f0 324B     		ldr	r3, .L32	@ D.6474,
ARM GAS  /tmp/ccpnpUnM.s 			page 11


 431 01f2 2022     		movs	r2, #32	@ tmp144,
 432 01f4 C3F8A021 		str	r2, [r3, #416]	@ tmp144, _3->SCS
 141:../epcf/native/port/arm/cm3/nxp/lpc1768/source/sysClk/sysClk_lpc1768.c ****   while ((PERIPH_SC->SCS & SYSCLK_SC_OSCSTAT) == 0);      // Wait for Oscillator to be ready
 433              		.loc 1 141 0
 434 01f8 00BF     		nop
 435              	.L27:
 436              		.loc 1 141 0 is_stmt 0 discriminator 1
 437 01fa 304B     		ldr	r3, .L32	@ D.6474,
 438 01fc D3F8A031 		ldr	r3, [r3, #416]	@ D.6475, _4->SCS
 439 0200 03F04003 		and	r3, r3, #64	@ D.6475, D.6475,
 440 0204 002B     		cmp	r3, #0	@ D.6475,
 441 0206 F8D0     		beq	.L27	@,
 142:../epcf/native/port/arm/cm3/nxp/lpc1768/source/sysClk/sysClk_lpc1768.c ****   
 143:../epcf/native/port/arm/cm3/nxp/lpc1768/source/sysClk/sysClk_lpc1768.c ****   if(pllStatus & PLL_PLLC0_STAT)              // if PLL is connected, disconnect it
 442              		.loc 1 143 0 is_stmt 1
 443 0208 059B     		ldr	r3, [sp, #20]	@ tmp145, pllStatus
 444 020a 03F00073 		and	r3, r3, #33554432	@ D.6475, tmp145,
 445 020e 002B     		cmp	r3, #0	@ D.6475,
 446 0210 09D0     		beq	.L28	@,
 144:../epcf/native/port/arm/cm3/nxp/lpc1768/source/sysClk/sysClk_lpc1768.c ****   {
 145:../epcf/native/port/arm/cm3/nxp/lpc1768/source/sysClk/sysClk_lpc1768.c ****     //Disconnect PLL
 146:../epcf/native/port/arm/cm3/nxp/lpc1768/source/sysClk/sysClk_lpc1768.c ****     PERIPH_SC->PLL0CON &= ~0x01;          
 447              		.loc 1 146 0
 448 0212 2A4A     		ldr	r2, .L32	@ D.6474,
 449 0214 294B     		ldr	r3, .L32	@ D.6474,
 450 0216 D3F88030 		ldr	r3, [r3, #128]	@ D.6475, _9->PLL0CON
 451 021a 23F00103 		bic	r3, r3, #1	@ D.6475, D.6475,
 452 021e C2F88030 		str	r3, [r2, #128]	@ D.6475, _8->PLL0CON
 147:../epcf/native/port/arm/cm3/nxp/lpc1768/source/sysClk/sysClk_lpc1768.c ****     _epcfPllFeedSequence();
 453              		.loc 1 147 0
 454 0222 00F04DF8 		bl	_epcfPllFeedSequence	@
 455              	.L28:
 148:../epcf/native/port/arm/cm3/nxp/lpc1768/source/sysClk/sysClk_lpc1768.c ****   }
 149:../epcf/native/port/arm/cm3/nxp/lpc1768/source/sysClk/sysClk_lpc1768.c ****   if(pllStatus & PLL_PLLE0_STAT)              // if PLL is enabled, disable it
 456              		.loc 1 149 0
 457 0226 059B     		ldr	r3, [sp, #20]	@ tmp146, pllStatus
 458 0228 03F08073 		and	r3, r3, #16777216	@ D.6475, tmp146,
 459 022c 002B     		cmp	r3, #0	@ D.6475,
 460 022e 09D0     		beq	.L29	@,
 150:../epcf/native/port/arm/cm3/nxp/lpc1768/source/sysClk/sysClk_lpc1768.c ****   {
 151:../epcf/native/port/arm/cm3/nxp/lpc1768/source/sysClk/sysClk_lpc1768.c ****     //Disable PLL
 152:../epcf/native/port/arm/cm3/nxp/lpc1768/source/sysClk/sysClk_lpc1768.c ****     PERIPH_SC->PLL0CON &= ~0x02;
 461              		.loc 1 152 0
 462 0230 224A     		ldr	r2, .L32	@ D.6474,
 463 0232 224B     		ldr	r3, .L32	@ D.6474,
 464 0234 D3F88030 		ldr	r3, [r3, #128]	@ D.6475, _14->PLL0CON
 465 0238 23F00203 		bic	r3, r3, #2	@ D.6475, D.6475,
 466 023c C2F88030 		str	r3, [r2, #128]	@ D.6475, _13->PLL0CON
 153:../epcf/native/port/arm/cm3/nxp/lpc1768/source/sysClk/sysClk_lpc1768.c ****     _epcfPllFeedSequence();
 467              		.loc 1 153 0
 468 0240 00F03EF8 		bl	_epcfPllFeedSequence	@
 469              	.L29:
 154:../epcf/native/port/arm/cm3/nxp/lpc1768/source/sysClk/sysClk_lpc1768.c ****   }
 155:../epcf/native/port/arm/cm3/nxp/lpc1768/source/sysClk/sysClk_lpc1768.c ****   PERIPH_SC->CLKSRCSEL = pllClkSrc;       // Select main oscillator as clock source for PLL
 470              		.loc 1 155 0
 471 0244 1D4A     		ldr	r2, .L32	@ D.6474,
 472 0246 009B     		ldr	r3, [sp]	@ tmp147, pllClkSrc
ARM GAS  /tmp/ccpnpUnM.s 			page 12


 473 0248 C2F80C31 		str	r3, [r2, #268]	@ tmp147, _17->CLKSRCSEL
 156:../epcf/native/port/arm/cm3/nxp/lpc1768/source/sysClk/sysClk_lpc1768.c **** 
 157:../epcf/native/port/arm/cm3/nxp/lpc1768/source/sysClk/sysClk_lpc1768.c ****   PERIPH_SC->PLL0CFG = ((pllPreDivider-1) << 16) | (pllMultiplier-1); 
 474              		.loc 1 157 0
 475 024c 1B49     		ldr	r1, .L32	@ D.6474,
 476 024e 039B     		ldr	r3, [sp, #12]	@ tmp148, pllPreDivider
 477 0250 013B     		subs	r3, r3, #1	@ D.6475, tmp148,
 478 0252 1A04     		lsls	r2, r3, #16	@ D.6475, D.6475,
 479 0254 029B     		ldr	r3, [sp, #8]	@ tmp149, pllMultiplier
 480 0256 013B     		subs	r3, r3, #1	@ D.6475, tmp149,
 481 0258 1343     		orrs	r3, r3, r2	@, D.6475, D.6475, D.6475
 482 025a C1F88430 		str	r3, [r1, #132]	@ D.6475, _19->PLL0CFG
 158:../epcf/native/port/arm/cm3/nxp/lpc1768/source/sysClk/sysClk_lpc1768.c ****   _epcfPllFeedSequence();
 483              		.loc 1 158 0
 484 025e 00F02FF8 		bl	_epcfPllFeedSequence	@
 159:../epcf/native/port/arm/cm3/nxp/lpc1768/source/sysClk/sysClk_lpc1768.c **** 
 160:../epcf/native/port/arm/cm3/nxp/lpc1768/source/sysClk/sysClk_lpc1768.c ****   PERIPH_SC->PLL0CON = 0x01;            // Enable PLL
 485              		.loc 1 160 0
 486 0262 164B     		ldr	r3, .L32	@ D.6474,
 487 0264 0122     		movs	r2, #1	@ tmp150,
 488 0266 C3F88020 		str	r2, [r3, #128]	@ tmp150, _26->PLL0CON
 161:../epcf/native/port/arm/cm3/nxp/lpc1768/source/sysClk/sysClk_lpc1768.c ****   _epcfPllFeedSequence();
 489              		.loc 1 161 0
 490 026a 00F029F8 		bl	_epcfPllFeedSequence	@
 162:../epcf/native/port/arm/cm3/nxp/lpc1768/source/sysClk/sysClk_lpc1768.c **** 
 163:../epcf/native/port/arm/cm3/nxp/lpc1768/source/sysClk/sysClk_lpc1768.c ****   PERIPH_SC->CCLKCFG = cpuClkDivider-1;     // CPU clock divider
 491              		.loc 1 163 0
 492 026e 134A     		ldr	r2, .L32	@ D.6474,
 493 0270 019B     		ldr	r3, [sp, #4]	@ tmp151, cpuClkDivider
 494 0272 013B     		subs	r3, r3, #1	@ D.6475, tmp151,
 495 0274 C2F80431 		str	r3, [r2, #260]	@ D.6475, _27->CCLKCFG
 164:../epcf/native/port/arm/cm3/nxp/lpc1768/source/sysClk/sysClk_lpc1768.c ****   
 165:../epcf/native/port/arm/cm3/nxp/lpc1768/source/sysClk/sysClk_lpc1768.c ****   PERIPH_SC->PCLKSEL0 = 0x00;             // Peripheral Clock Selection CCLK / 4
 496              		.loc 1 165 0
 497 0278 104B     		ldr	r3, .L32	@ D.6474,
 498 027a 0022     		movs	r2, #0	@ tmp152,
 499 027c C3F8A821 		str	r2, [r3, #424]	@ tmp152, _30->PCLKSEL0
 166:../epcf/native/port/arm/cm3/nxp/lpc1768/source/sysClk/sysClk_lpc1768.c ****   PERIPH_SC->PCLKSEL1 = 0x00;
 500              		.loc 1 166 0
 501 0280 0E4B     		ldr	r3, .L32	@ D.6474,
 502 0282 0022     		movs	r2, #0	@ tmp153,
 503 0284 C3F8AC21 		str	r2, [r3, #428]	@ tmp153, _31->PCLKSEL1
 167:../epcf/native/port/arm/cm3/nxp/lpc1768/source/sysClk/sysClk_lpc1768.c **** 
 168:../epcf/native/port/arm/cm3/nxp/lpc1768/source/sysClk/sysClk_lpc1768.c ****   while( (PERIPH_SC->PLL0STAT & PLL_PLOCKO) == 0 ); // Wait for PLL to achieve lock
 504              		.loc 1 168 0
 505 0288 00BF     		nop
 506              	.L30:
 507              		.loc 1 168 0 is_stmt 0 discriminator 1
 508 028a 0C4B     		ldr	r3, .L32	@ D.6474,
 509 028c D3F88830 		ldr	r3, [r3, #136]	@ D.6475, _32->PLL0STAT
 510 0290 03F08063 		and	r3, r3, #67108864	@ D.6475, D.6475,
 511 0294 002B     		cmp	r3, #0	@ D.6475,
 512 0296 F8D0     		beq	.L30	@,
 169:../epcf/native/port/arm/cm3/nxp/lpc1768/source/sysClk/sysClk_lpc1768.c ****   
 170:../epcf/native/port/arm/cm3/nxp/lpc1768/source/sysClk/sysClk_lpc1768.c ****   PERIPH_SC->PLL0CON = 0x03;            // Connect PLL
 513              		.loc 1 170 0 is_stmt 1
 514 0298 084B     		ldr	r3, .L32	@ D.6474,
ARM GAS  /tmp/ccpnpUnM.s 			page 13


 515 029a 0322     		movs	r2, #3	@ tmp154,
 516 029c C3F88020 		str	r2, [r3, #128]	@ tmp154, _35->PLL0CON
 171:../epcf/native/port/arm/cm3/nxp/lpc1768/source/sysClk/sysClk_lpc1768.c ****   _epcfPllFeedSequence();
 517              		.loc 1 171 0
 518 02a0 00F00EF8 		bl	_epcfPllFeedSequence	@
 172:../epcf/native/port/arm/cm3/nxp/lpc1768/source/sysClk/sysClk_lpc1768.c **** 
 173:../epcf/native/port/arm/cm3/nxp/lpc1768/source/sysClk/sysClk_lpc1768.c ****   //LPC_SC->CLKOUTCFG =  0x00;
 174:../epcf/native/port/arm/cm3/nxp/lpc1768/source/sysClk/sysClk_lpc1768.c **** 
 175:../epcf/native/port/arm/cm3/nxp/lpc1768/source/sysClk/sysClk_lpc1768.c ****   pllStatus = PERIPH_SC->PLL0STAT;
 519              		.loc 1 175 0
 520 02a4 054B     		ldr	r3, .L32	@ D.6474,
 521 02a6 D3F88830 		ldr	r3, [r3, #136]	@ tmp155, _36->PLL0STAT
 522 02aa 0593     		str	r3, [sp, #20]	@ tmp155, pllStatus
 176:../epcf/native/port/arm/cm3/nxp/lpc1768/source/sysClk/sysClk_lpc1768.c ****   pllStatus = 0;
 523              		.loc 1 176 0
 524 02ac 0023     		movs	r3, #0	@ tmp156,
 525 02ae 0593     		str	r3, [sp, #20]	@ tmp156, pllStatus
 177:../epcf/native/port/arm/cm3/nxp/lpc1768/source/sysClk/sysClk_lpc1768.c ****   
 178:../epcf/native/port/arm/cm3/nxp/lpc1768/source/sysClk/sysClk_lpc1768.c ****   return 0;
 526              		.loc 1 178 0
 527 02b0 0023     		movs	r3, #0	@ D.6476,
 528 02b2 5BB2     		sxtb	r3, r3	@ tmp158, D.6476
 179:../epcf/native/port/arm/cm3/nxp/lpc1768/source/sysClk/sysClk_lpc1768.c **** }
 529              		.loc 1 179 0
 530 02b4 1846     		mov	r0, r3	@, <retval>
 531 02b6 07B0     		add	sp, sp, #28	@,,
 532              	.LCFI12:
 533              		.cfi_def_cfa_offset 4
 534              		@ sp needed	@
 535 02b8 5DF804FB 		ldr	pc, [sp], #4	@
 536              	.L33:
 537              		.align	2
 538              	.L32:
 539 02bc 00C00F40 		.word	1074774016
 540              		.cfi_endproc
 541              	.LFE44:
 542              		.size	_epcfPllConfig, .-_epcfPllConfig
 543              		.align	2
 544              		.thumb
 545              		.thumb_func
 546              		.type	_epcfPllFeedSequence, %function
 547              	_epcfPllFeedSequence:
 548              	.LFB45:
 180:../epcf/native/port/arm/cm3/nxp/lpc1768/source/sysClk/sysClk_lpc1768.c **** 
 181:../epcf/native/port/arm/cm3/nxp/lpc1768/source/sysClk/sysClk_lpc1768.c **** static void _epcfPllFeedSequence(void)
 182:../epcf/native/port/arm/cm3/nxp/lpc1768/source/sysClk/sysClk_lpc1768.c **** {
 549              		.loc 1 182 0
 550              		.cfi_startproc
 551              		@ args = 0, pretend = 0, frame = 0
 552              		@ frame_needed = 0, uses_anonymous_args = 0
 553              		@ link register save eliminated.
 183:../epcf/native/port/arm/cm3/nxp/lpc1768/source/sysClk/sysClk_lpc1768.c ****   PERIPH_SC->PLL0FEED = 0xAA;
 554              		.loc 1 183 0
 555 02c0 044B     		ldr	r3, .L35	@ D.6477,
 556 02c2 AA22     		movs	r2, #170	@ tmp112,
 557 02c4 C3F88C20 		str	r2, [r3, #140]	@ tmp112, _1->PLL0FEED
 184:../epcf/native/port/arm/cm3/nxp/lpc1768/source/sysClk/sysClk_lpc1768.c ****   PERIPH_SC->PLL0FEED = 0x55;
ARM GAS  /tmp/ccpnpUnM.s 			page 14


 558              		.loc 1 184 0
 559 02c8 024B     		ldr	r3, .L35	@ D.6477,
 560 02ca 5522     		movs	r2, #85	@ tmp113,
 561 02cc C3F88C20 		str	r2, [r3, #140]	@ tmp113, _2->PLL0FEED
 185:../epcf/native/port/arm/cm3/nxp/lpc1768/source/sysClk/sysClk_lpc1768.c **** }
 562              		.loc 1 185 0
 563 02d0 7047     		bx	lr	@
 564              	.L36:
 565 02d2 00BF     		.align	2
 566              	.L35:
 567 02d4 00C00F40 		.word	1074774016
 568              		.cfi_endproc
 569              	.LFE45:
 570              		.size	_epcfPllFeedSequence, .-_epcfPllFeedSequence
 571              		.align	2
 572              		.thumb
 573              		.thumb_func
 574              		.type	_epcfSysSetCpuClock, %function
 575              	_epcfSysSetCpuClock:
 576              	.LFB46:
 186:../epcf/native/port/arm/cm3/nxp/lpc1768/source/sysClk/sysClk_lpc1768.c **** 
 187:../epcf/native/port/arm/cm3/nxp/lpc1768/source/sysClk/sysClk_lpc1768.c **** //return values:
 188:../epcf/native/port/arm/cm3/nxp/lpc1768/source/sysClk/sysClk_lpc1768.c **** //0  : success
 189:../epcf/native/port/arm/cm3/nxp/lpc1768/source/sysClk/sysClk_lpc1768.c **** //-1 : invalid arguments
 190:../epcf/native/port/arm/cm3/nxp/lpc1768/source/sysClk/sysClk_lpc1768.c **** //-2 : error
 191:../epcf/native/port/arm/cm3/nxp/lpc1768/source/sysClk/sysClk_lpc1768.c **** static int8_t _epcfSysSetCpuClock(EPCFSysClkCfg_t* config)
 192:../epcf/native/port/arm/cm3/nxp/lpc1768/source/sysClk/sysClk_lpc1768.c **** {
 577              		.loc 1 192 0
 578              		.cfi_startproc
 579              		@ args = 0, pretend = 0, frame = 40
 580              		@ frame_needed = 0, uses_anonymous_args = 0
 581 02d8 00B5     		push	{lr}	@
 582              	.LCFI13:
 583              		.cfi_def_cfa_offset 4
 584              		.cfi_offset 14, -4
 585 02da 8BB0     		sub	sp, sp, #44	@,,
 586              	.LCFI14:
 587              		.cfi_def_cfa_offset 48
 588 02dc 0190     		str	r0, [sp, #4]	@ config, config
 193:../epcf/native/port/arm/cm3/nxp/lpc1768/source/sysClk/sysClk_lpc1768.c ****   uint32_t pllPreDiv, pllMul, pllDiv, temp, loop, preDivStatus = 0;
 589              		.loc 1 193 0
 590 02de 0023     		movs	r3, #0	@ tmp128,
 591 02e0 0793     		str	r3, [sp, #28]	@ tmp128, preDivStatus
 194:../epcf/native/port/arm/cm3/nxp/lpc1768/source/sysClk/sysClk_lpc1768.c ****   int8_t status=0;
 592              		.loc 1 194 0
 593 02e2 0023     		movs	r3, #0	@ tmp129,
 594 02e4 8DF81B30 		strb	r3, [sp, #27]	@ tmp130, status
 195:../epcf/native/port/arm/cm3/nxp/lpc1768/source/sysClk/sysClk_lpc1768.c **** 
 196:../epcf/native/port/arm/cm3/nxp/lpc1768/source/sysClk/sysClk_lpc1768.c **** #if (PCF_ENABLE_DEBUG == PCF_ENABLE)
 197:../epcf/native/port/arm/cm3/nxp/lpc1768/source/sysClk/sysClk_lpc1768.c ****  // CHECK_NULL_PTR(config);
 198:../epcf/native/port/arm/cm3/nxp/lpc1768/source/sysClk/sysClk_lpc1768.c ****   if(config->pllClkSrc > 2)
 199:../epcf/native/port/arm/cm3/nxp/lpc1768/source/sysClk/sysClk_lpc1768.c ****   {
 200:../epcf/native/port/arm/cm3/nxp/lpc1768/source/sysClk/sysClk_lpc1768.c ****     return -1;
 201:../epcf/native/port/arm/cm3/nxp/lpc1768/source/sysClk/sysClk_lpc1768.c ****   }
 202:../epcf/native/port/arm/cm3/nxp/lpc1768/source/sysClk/sysClk_lpc1768.c ****   if(config->cpuFreqHz > 100000000)
 203:../epcf/native/port/arm/cm3/nxp/lpc1768/source/sysClk/sysClk_lpc1768.c ****   {
 204:../epcf/native/port/arm/cm3/nxp/lpc1768/source/sysClk/sysClk_lpc1768.c ****     return -1;
ARM GAS  /tmp/ccpnpUnM.s 			page 15


 205:../epcf/native/port/arm/cm3/nxp/lpc1768/source/sysClk/sysClk_lpc1768.c ****   }
 206:../epcf/native/port/arm/cm3/nxp/lpc1768/source/sysClk/sysClk_lpc1768.c **** #endif  // #if (PF_SYSCLK_DEBUG == 1)
 207:../epcf/native/port/arm/cm3/nxp/lpc1768/source/sysClk/sysClk_lpc1768.c **** 
 208:../epcf/native/port/arm/cm3/nxp/lpc1768/source/sysClk/sysClk_lpc1768.c ****   clkFrq=config->oscFreq;
 595              		.loc 1 208 0
 596 02e8 019B     		ldr	r3, [sp, #4]	@ tmp131, config
 597 02ea 5B68     		ldr	r3, [r3, #4]	@ D.6479, config_7(D)->oscFreq
 598 02ec 2C4A     		ldr	r2, .L44	@ tmp132,
 599 02ee 1360     		str	r3, [r2]	@ D.6479, clkFrq
 209:../epcf/native/port/arm/cm3/nxp/lpc1768/source/sysClk/sysClk_lpc1768.c ****   pllDiv = (300*1000000) / config->cpuFreqHz;
 600              		.loc 1 209 0
 601 02f0 019B     		ldr	r3, [sp, #4]	@ tmp133, config
 602 02f2 1B68     		ldr	r3, [r3]	@ D.6479, config_7(D)->cpuFreqHz
 603 02f4 2B4A     		ldr	r2, .L44+4	@ tmp135,
 604 02f6 B2FBF3F3 		udiv	r3, r2, r3	@ tmp134, tmp135, D.6479
 605 02fa 0593     		str	r3, [sp, #20]	@ tmp134, pllDiv
 210:../epcf/native/port/arm/cm3/nxp/lpc1768/source/sysClk/sysClk_lpc1768.c ****   temp = ((config->cpuFreqHz * pllDiv) / (2 * config->oscFreq));
 606              		.loc 1 210 0
 607 02fc 019B     		ldr	r3, [sp, #4]	@ tmp136, config
 608 02fe 1B68     		ldr	r3, [r3]	@ D.6479, config_7(D)->cpuFreqHz
 609 0300 059A     		ldr	r2, [sp, #20]	@ tmp137, pllDiv
 610 0302 02FB03F2 		mul	r2, r2, r3	@ D.6479, tmp137, D.6479
 611 0306 019B     		ldr	r3, [sp, #4]	@ tmp138, config
 612 0308 5B68     		ldr	r3, [r3, #4]	@ D.6479, config_7(D)->oscFreq
 613 030a 5B00     		lsls	r3, r3, #1	@ D.6479, D.6479,
 614 030c B2FBF3F3 		udiv	r3, r2, r3	@ tmp139, D.6479, D.6479
 615 0310 0493     		str	r3, [sp, #16]	@ tmp139, temp
 211:../epcf/native/port/arm/cm3/nxp/lpc1768/source/sysClk/sysClk_lpc1768.c **** 
 212:../epcf/native/port/arm/cm3/nxp/lpc1768/source/sysClk/sysClk_lpc1768.c ****   for(loop = temp; loop <= (config->oscFreq/1000000); loop++)
 616              		.loc 1 212 0
 617 0312 049B     		ldr	r3, [sp, #16]	@ tmp140, temp
 618 0314 0893     		str	r3, [sp, #32]	@ tmp140, loop
 619 0316 16E0     		b	.L38	@
 620              	.L41:
 213:../epcf/native/port/arm/cm3/nxp/lpc1768/source/sysClk/sysClk_lpc1768.c ****   {
 214:../epcf/native/port/arm/cm3/nxp/lpc1768/source/sysClk/sysClk_lpc1768.c ****     if( ((config->oscFreq/1000000) % loop) == 0 )
 621              		.loc 1 214 0
 622 0318 019B     		ldr	r3, [sp, #4]	@ tmp141, config
 623 031a 5B68     		ldr	r3, [r3, #4]	@ D.6479, config_7(D)->oscFreq
 624 031c 224A     		ldr	r2, .L44+8	@ tmp143,
 625 031e A2FB0323 		umull	r2, r3, r2, r3	@ tmp170, tmp142, tmp143, D.6479
 626 0322 9B0C     		lsrs	r3, r3, #18	@ D.6479, tmp142,
 627 0324 089A     		ldr	r2, [sp, #32]	@ tmp147, loop
 628 0326 B3FBF2F2 		udiv	r2, r3, r2	@ tmp146, D.6479, tmp147
 629 032a 0899     		ldr	r1, [sp, #32]	@ tmp149, loop
 630 032c 01FB02F2 		mul	r2, r1, r2	@ tmp148, tmp149, tmp146
 631 0330 9B1A     		subs	r3, r3, r2	@ D.6479, D.6479, tmp148
 632 0332 002B     		cmp	r3, #0	@ D.6479,
 633 0334 04D1     		bne	.L39	@,
 215:../epcf/native/port/arm/cm3/nxp/lpc1768/source/sysClk/sysClk_lpc1768.c ****     {
 216:../epcf/native/port/arm/cm3/nxp/lpc1768/source/sysClk/sysClk_lpc1768.c ****       pllPreDiv = loop;
 634              		.loc 1 216 0
 635 0336 089B     		ldr	r3, [sp, #32]	@ tmp150, loop
 636 0338 0993     		str	r3, [sp, #36]	@ tmp150, pllPreDiv
 217:../epcf/native/port/arm/cm3/nxp/lpc1768/source/sysClk/sysClk_lpc1768.c ****       preDivStatus = 1;
 637              		.loc 1 217 0
 638 033a 0123     		movs	r3, #1	@ tmp151,
ARM GAS  /tmp/ccpnpUnM.s 			page 16


 639 033c 0793     		str	r3, [sp, #28]	@ tmp151, preDivStatus
 218:../epcf/native/port/arm/cm3/nxp/lpc1768/source/sysClk/sysClk_lpc1768.c ****       break;
 640              		.loc 1 218 0
 641 033e 0BE0     		b	.L40	@
 642              	.L39:
 212:../epcf/native/port/arm/cm3/nxp/lpc1768/source/sysClk/sysClk_lpc1768.c ****   {
 643              		.loc 1 212 0 discriminator 2
 644 0340 089B     		ldr	r3, [sp, #32]	@ tmp153, loop
 645 0342 0133     		adds	r3, r3, #1	@ tmp152, tmp153,
 646 0344 0893     		str	r3, [sp, #32]	@ tmp152, loop
 647              	.L38:
 212:../epcf/native/port/arm/cm3/nxp/lpc1768/source/sysClk/sysClk_lpc1768.c ****   {
 648              		.loc 1 212 0 is_stmt 0 discriminator 1
 649 0346 019B     		ldr	r3, [sp, #4]	@ tmp154, config
 650 0348 5B68     		ldr	r3, [r3, #4]	@ D.6479, config_7(D)->oscFreq
 651 034a 174A     		ldr	r2, .L44+8	@ tmp156,
 652 034c A2FB0323 		umull	r2, r3, r2, r3	@ tmp171, tmp155, tmp156, D.6479
 653 0350 9A0C     		lsrs	r2, r3, #18	@ D.6479, tmp155,
 654 0352 089B     		ldr	r3, [sp, #32]	@ tmp157, loop
 655 0354 9A42     		cmp	r2, r3	@ D.6479, tmp157
 656 0356 DFD2     		bcs	.L41	@,
 657              	.L40:
 219:../epcf/native/port/arm/cm3/nxp/lpc1768/source/sysClk/sysClk_lpc1768.c ****     }
 220:../epcf/native/port/arm/cm3/nxp/lpc1768/source/sysClk/sysClk_lpc1768.c ****   }
 221:../epcf/native/port/arm/cm3/nxp/lpc1768/source/sysClk/sysClk_lpc1768.c ****   if(!preDivStatus)
 658              		.loc 1 221 0 is_stmt 1
 659 0358 079B     		ldr	r3, [sp, #28]	@ tmp158, preDivStatus
 660 035a 002B     		cmp	r3, #0	@ tmp158,
 661 035c 01D1     		bne	.L42	@,
 222:../epcf/native/port/arm/cm3/nxp/lpc1768/source/sysClk/sysClk_lpc1768.c ****   {
 223:../epcf/native/port/arm/cm3/nxp/lpc1768/source/sysClk/sysClk_lpc1768.c ****     return -2;
 662              		.loc 1 223 0
 663 035e FE23     		movs	r3, #254	@ D.6478,
 664 0360 18E0     		b	.L43	@
 665              	.L42:
 224:../epcf/native/port/arm/cm3/nxp/lpc1768/source/sysClk/sysClk_lpc1768.c ****   }
 225:../epcf/native/port/arm/cm3/nxp/lpc1768/source/sysClk/sysClk_lpc1768.c **** 
 226:../epcf/native/port/arm/cm3/nxp/lpc1768/source/sysClk/sysClk_lpc1768.c ****   pllMul = ((config->cpuFreqHz * pllDiv * pllPreDiv) / 24) / 1000000;
 666              		.loc 1 226 0
 667 0362 019B     		ldr	r3, [sp, #4]	@ tmp159, config
 668 0364 1B68     		ldr	r3, [r3]	@ D.6479, config_7(D)->cpuFreqHz
 669 0366 059A     		ldr	r2, [sp, #20]	@ tmp160, pllDiv
 670 0368 02FB03F3 		mul	r3, r2, r3	@ D.6479, tmp160, D.6479
 671 036c 099A     		ldr	r2, [sp, #36]	@ tmp161, pllPreDiv
 672 036e 02FB03F3 		mul	r3, r2, r3	@ D.6479, tmp161, D.6479
 673 0372 0E4A     		ldr	r2, .L44+12	@ tmp163,
 674 0374 A2FB0323 		umull	r2, r3, r2, r3	@ tmp172, tmp162, tmp163, D.6479
 675 0378 5B0D     		lsrs	r3, r3, #21	@ tmp164, tmp162,
 676 037a 0393     		str	r3, [sp, #12]	@ tmp164, pllMul
 227:../epcf/native/port/arm/cm3/nxp/lpc1768/source/sysClk/sysClk_lpc1768.c **** 
 228:../epcf/native/port/arm/cm3/nxp/lpc1768/source/sysClk/sysClk_lpc1768.c ****   status = _epcfPllConfig(pllPreDiv ,pllMul ,pllDiv, config->pllClkSrc);
 677              		.loc 1 228 0
 678 037c 019B     		ldr	r3, [sp, #4]	@ tmp165, config
 679 037e 1B7A     		ldrb	r3, [r3, #8]	@ zero_extendqisi2	@ D.6480, config_7(D)->pllClkSrc
 680 0380 0998     		ldr	r0, [sp, #36]	@, pllPreDiv
 681 0382 0399     		ldr	r1, [sp, #12]	@, pllMul
 682 0384 059A     		ldr	r2, [sp, #20]	@, pllDiv
ARM GAS  /tmp/ccpnpUnM.s 			page 17


 683 0386 FFF729FF 		bl	_epcfPllConfig	@
 684 038a 0346     		mov	r3, r0	@ tmp166,
 685 038c 8DF81B30 		strb	r3, [sp, #27]	@ tmp167, status
 229:../epcf/native/port/arm/cm3/nxp/lpc1768/source/sysClk/sysClk_lpc1768.c ****   return status;
 686              		.loc 1 229 0
 687 0390 9DF81B30 		ldrb	r3, [sp, #27]	@ zero_extendqisi2	@ D.6478, status
 688              	.L43:
 689 0394 5BB2     		sxtb	r3, r3	@ tmp169, D.6478
 230:../epcf/native/port/arm/cm3/nxp/lpc1768/source/sysClk/sysClk_lpc1768.c **** }
 690              		.loc 1 230 0
 691 0396 1846     		mov	r0, r3	@, <retval>
 692 0398 0BB0     		add	sp, sp, #44	@,,
 693              	.LCFI15:
 694              		.cfi_def_cfa_offset 4
 695              		@ sp needed	@
 696 039a 5DF804FB 		ldr	pc, [sp], #4	@
 697              	.L45:
 698 039e 00BF     		.align	2
 699              	.L44:
 700 03a0 00000000 		.word	clkFrq
 701 03a4 00A3E111 		.word	300000000
 702 03a8 83DE1B43 		.word	1125899907
 703 03ac 819F5E16 		.word	375299969
 704              		.cfi_endproc
 705              	.LFE46:
 706              		.size	_epcfSysSetCpuClock, .-_epcfSysSetCpuClock
 707              	.Letext0:
 708              		.file 2 "/usr/include/newlib/machine/_default_types.h"
 709              		.file 3 "/usr/include/newlib/sys/_stdint.h"
 710              		.file 4 "../pcf/include/private/arch/arm/cm3/nxp/lpc1768/./lpc1768_regmap.h"
 711              		.file 5 "./include/../../epcf/peripheral/include/./sysClk/sysClk.h"
 712              		.file 6 "./include/../../epcf/peripheral/source/sysClk/sysClk_hidden.h"
 713              		.file 7 "../pcf/include/private/arch/arm/cm3/nxp/lpc1768/./../../../../arm/cm3/nxp/lpc1768/lpc1768