ARM GAS  /tmp/ccbIggjD.s 			page 1


   1              		.syntax unified
   2              		.cpu cortex-m3
   3              		.fpu softvfp
   4              		.eabi_attribute 20, 1	@ Tag_ABI_FP_denormal
   5              		.eabi_attribute 21, 1	@ Tag_ABI_FP_exceptions
   6              		.eabi_attribute 23, 3	@ Tag_ABI_FP_number_model
   7              		.eabi_attribute 24, 1	@ Tag_ABI_align8_needed
   8              		.eabi_attribute 25, 1	@ Tag_ABI_align8_preserved
   9              		.eabi_attribute 26, 1	@ Tag_ABI_enum_size
  10              		.eabi_attribute 30, 6	@ Tag_ABI_optimization_goals
  11              		.eabi_attribute 34, 1	@ Tag_CPU_unaligned_access
  12              		.eabi_attribute 18, 4	@ Tag_ABI_PCS_wchar_t
  13              		.file	"app.c"
  14              	@ GNU C (15:4.9.3+svn231177-1) version 4.9.3 20150529 (prerelease) (arm-none-eabi)
  15              	@	compiled by GNU C version 5.2.1 20151129, GMP version 6.1.0, MPFR version 3.1.3, MPC version 1.0.
  16              	@ warning: MPFR header version 3.1.3 differs from library version 3.1.4.
  17              	@ GGC heuristics: --param ggc-min-expand=100 --param ggc-min-heapsize=131072
  18              	@ options passed:  -I . -I ./include -I ../pcf/include -imultilib armv7-m
  19              	@ -MD Build/Obj/Debug/app.d -MF Build/.dep/app.o.d -MP
  20              	@ -MQ Build/Obj/Debug/app.o -D__USES_INITFINI__ ./source/app.c
  21              	@ -mcpu=cortex-m3 -mthumb -auxbase-strip Build/Obj/Debug/app.o -gdwarf-2
  22              	@ -O0 -Wall -Wno-cpp -std=gnu99 -fomit-frame-pointer -fverbose-asm
  23              	@ options enabled:  -faggressive-loop-optimizations -fauto-inc-dec -fcommon
  24              	@ -fdelete-null-pointer-checks -fdwarf2-cfi-asm -fearly-inlining
  25              	@ -feliminate-unused-debug-types -ffunction-cse -fgcse-lm -fgnu-runtime
  26              	@ -fgnu-unique -fident -finline-atomics -fira-hoist-pressure
  27              	@ -fira-share-save-slots -fira-share-spill-slots -fivopts
  28              	@ -fkeep-static-consts -fleading-underscore -flifetime-dse -fmath-errno
  29              	@ -fmerge-debug-strings -fomit-frame-pointer -fpeephole
  30              	@ -fprefetch-loop-arrays -freg-struct-return
  31              	@ -fsched-critical-path-heuristic -fsched-dep-count-heuristic
  32              	@ -fsched-group-heuristic -fsched-interblock -fsched-last-insn-heuristic
  33              	@ -fsched-rank-heuristic -fsched-spec -fsched-spec-insn-heuristic
  34              	@ -fsched-stalled-insns-dep -fshow-column -fsigned-zeros
  35              	@ -fsplit-ivs-in-unroller -fstrict-volatile-bitfields -fsync-libcalls
  36              	@ -ftrapping-math -ftree-coalesce-vars -ftree-cselim -ftree-forwprop
  37              	@ -ftree-loop-if-convert -ftree-loop-im -ftree-loop-ivcanon
  38              	@ -ftree-loop-optimize -ftree-parallelize-loops= -ftree-phiprop
  39              	@ -ftree-reassoc -ftree-scev-cprop -funit-at-a-time -fverbose-asm
  40              	@ -fzero-initialized-in-bss -mfix-cortex-m3-ldrd -mlittle-endian -mlra
  41              	@ -mpic-data-is-text-relative -msched-prolog -mthumb -munaligned-access
  42              	@ -mvectorize-with-neon-quad
  43              	
  44              		.text
  45              	.Ltext0:
  46              		.cfi_sections	.debug_frame
  47              		.align	2
  48              		.global	main
  49              		.thumb
  50              		.thumb_func
  51              		.type	main, %function
  52              	main:
  53              	.LFB40:
  54              		.file 1 "./source/app.c"
   1:./source/app.c **** //
   2:./source/app.c **** //  main.c
   3:./source/app.c **** //  LED_Blink
ARM GAS  /tmp/ccbIggjD.s 			page 2


   4:./source/app.c **** //
   5:./source/app.c **** //  Created by SuyashJ on 16/06/17.
   6:./source/app.c **** //  Copyright © 2017 The Wolfkeeper. All rights reserved.
   7:./source/app.c **** //
   8:./source/app.c **** 
   9:./source/app.c **** /**
  10:./source/app.c ****  *  \file       app.c
  11:./source/app.c ****  *  \brief      Source file for the application program
  12:./source/app.c ****  *
  13:./source/app.c ****  */
  14:./source/app.c **** 
  15:./source/app.c **** #include "pcf.h"
  16:./source/app.c **** #include "appConfig.h"
  17:./source/app.c **** #include "../pcf/include/private/arch/arm/cm3/nxp/lpc1768/lpc1768_regmap.h"
  18:./source/app.c **** 
  19:./source/app.c **** int main()
  20:./source/app.c **** {
  55              		.loc 1 20 0
  56              		.cfi_startproc
  57              		@ args = 0, pretend = 0, frame = 168
  58              		@ frame_needed = 0, uses_anonymous_args = 0
  59 0000 00B5     		push	{lr}	@
  60              	.LCFI0:
  61              		.cfi_def_cfa_offset 4
  62              		.cfi_offset 14, -4
  63 0002 ABB0     		sub	sp, sp, #172	@,,
  64              	.LCFI1:
  65              		.cfi_def_cfa_offset 176
  21:./source/app.c **** 	int8_t status=0;
  66              		.loc 1 21 0
  67 0004 0023     		movs	r3, #0	@ tmp120,
  68 0006 8DF8A730 		strb	r3, [sp, #167]	@ tmp121, status
  22:./source/app.c **** 	
  23:./source/app.c **** 	status = appInit();
  69              		.loc 1 23 0
  70 000a FFF7FEFF 		bl	appInit	@
  71 000e 0346     		mov	r3, r0	@ tmp122,
  72 0010 8DF8A730 		strb	r3, [sp, #167]	@ tmp123, status
  24:./source/app.c **** 	if(status != 0)
  73              		.loc 1 24 0
  74 0014 9DF9A730 		ldrsb	r3, [sp, #167]	@ tmp124, status
  75 0018 002B     		cmp	r3, #0	@ tmp124,
  76 001a 00D0     		beq	.L2	@,
  77              	.L3:
  25:./source/app.c **** 	{
  26:./source/app.c **** 		while(1);
  78              		.loc 1 26 0 discriminator 1
  79 001c FEE7     		b	.L3	@
  80              	.L2:
  27:./source/app.c **** 	}
  28:./source/app.c **** 	
  29:./source/app.c **** 	PINCON_TypeDef PINSELECT;
  30:./source/app.c **** 	GPIO_TypeDef LED;
  31:./source/app.c **** 	PINSELECT.PINSEL1=0x00000001;
  81              		.loc 1 31 0
  82 001e 0123     		movs	r3, #1	@ tmp125,
  83 0020 0A93     		str	r3, [sp, #40]	@ tmp125, PINSELECT.PINSEL1
ARM GAS  /tmp/ccbIggjD.s 			page 3


  32:./source/app.c **** 	PINSELECT.PINMODE1=0xfffffffe;
  84              		.loc 1 32 0
  85 0022 6FF00103 		mvn	r3, #1	@ tmp126,
  86 0026 1A93     		str	r3, [sp, #104]	@ tmp126, PINSELECT.PINMODE1
  33:./source/app.c **** 	LED.FIODIR=0xfffffffe;
  87              		.loc 1 33 0
  88 0028 6FF00103 		mvn	r3, #1	@ tmp127,
  89 002c 0193     		str	r3, [sp, #4]	@ tmp127, LED.D.5264.FIODIR
  34:./source/app.c **** 	LED.FIOSET=0xfffffffe;
  90              		.loc 1 34 0
  91 002e 6FF00103 		mvn	r3, #1	@ tmp128,
  92 0032 0793     		str	r3, [sp, #28]	@ tmp128, LED.D.5304.FIOSET
  35:./source/app.c **** 	PINSELECT.PINSEL1-=1;
  93              		.loc 1 35 0
  94 0034 0A9B     		ldr	r3, [sp, #40]	@ D.6037, PINSELECT.PINSEL1
  95 0036 013B     		subs	r3, r3, #1	@ D.6037, D.6037,
  96 0038 0A93     		str	r3, [sp, #40]	@ D.6037, PINSELECT.PINSEL1
  36:./source/app.c **** 	PINSELECT.PINMODE1+=1;
  97              		.loc 1 36 0
  98 003a 1A9B     		ldr	r3, [sp, #104]	@ D.6037, PINSELECT.PINMODE1
  99 003c 0133     		adds	r3, r3, #1	@ D.6037, D.6037,
 100 003e 1A93     		str	r3, [sp, #104]	@ D.6037, PINSELECT.PINMODE1
  37:./source/app.c **** 	LED.FIODIR+=1;
 101              		.loc 1 37 0
 102 0040 019B     		ldr	r3, [sp, #4]	@ D.6037, LED.D.5264.FIODIR
 103 0042 0133     		adds	r3, r3, #1	@ D.6037, D.6037,
 104 0044 0193     		str	r3, [sp, #4]	@ D.6037, LED.D.5264.FIODIR
  38:./source/app.c **** 	LED.FIOSET+=1;
 105              		.loc 1 38 0
 106 0046 079B     		ldr	r3, [sp, #28]	@ D.6037, LED.D.5304.FIOSET
 107 0048 0133     		adds	r3, r3, #1	@ D.6037, D.6037,
 108 004a 0793     		str	r3, [sp, #28]	@ D.6037, LED.D.5304.FIOSET
  39:./source/app.c **** 	
  40:./source/app.c **** 	
  41:./source/app.c **** 	return 0;
 109              		.loc 1 41 0
 110 004c 0023     		movs	r3, #0	@ D.6038,
  42:./source/app.c **** }
 111              		.loc 1 42 0
 112 004e 1846     		mov	r0, r3	@, <retval>
 113 0050 2BB0     		add	sp, sp, #172	@,,
 114              	.LCFI2:
 115              		.cfi_def_cfa_offset 4
 116              		@ sp needed	@
 117 0052 5DF804FB 		ldr	pc, [sp], #4	@
 118              		.cfi_endproc
 119              	.LFE40:
 120              		.size	main, .-main
 121              	.Letext0:
 122              		.file 2 "/usr/include/newlib/machine/_default_types.h"
 123              		.file 3 "/usr/include/newlib/sys/_stdint.h"
 124              		.file 4 "../pcf/include/private/arch/arm/cm3/nxp/lpc1768/./lpc1768_regmap.h"
 125              		.file 5 "../pcf/include/private/arch/arm/cm3/nxp/lpc1768/./../../../../arm/cm3/nxp/lpc1768/lpc1768
 126              		.section	.debug_info,"",%progbits
 127              	.Ldebug_info0:
 128 0000 44060000 		.4byte	0x644
 129 0004 0200     		.2byte	0x2
ARM GAS  /tmp/ccbIggjD.s 			page 4


 130 0006 00000000 		.4byte	.Ldebug_abbrev0
 131 000a 04       		.byte	0x4
 132 000b 01       		.uleb128 0x1
 133 000c 80000000 		.4byte	.LASF89
 134 0010 01       		.byte	0x1
 135 0011 F7030000 		.4byte	.LASF90
 136 0015 70030000 		.4byte	.LASF91
 137 0019 00000000 		.4byte	.Ltext0
 138 001d 56000000 		.4byte	.Letext0
 139 0021 00000000 		.4byte	.Ldebug_line0
 140 0025 02       		.uleb128 0x2
 141 0026 04       		.byte	0x4
 142 0027 07       		.byte	0x7
 143 0028 C6030000 		.4byte	.LASF0
 144 002c 03       		.uleb128 0x3
 145 002d 04       		.byte	0x4
 146 002e 05       		.byte	0x5
 147 002f 696E7400 		.ascii	"int\000"
 148 0033 04       		.uleb128 0x4
 149 0034 B9010000 		.4byte	.LASF2
 150 0038 02       		.byte	0x2
 151 0039 1B       		.byte	0x1b
 152 003a 3E000000 		.4byte	0x3e
 153 003e 02       		.uleb128 0x2
 154 003f 01       		.byte	0x1
 155 0040 06       		.byte	0x6
 156 0041 47020000 		.4byte	.LASF1
 157 0045 04       		.uleb128 0x4
 158 0046 73010000 		.4byte	.LASF3
 159 004a 02       		.byte	0x2
 160 004b 1D       		.byte	0x1d
 161 004c 50000000 		.4byte	0x50
 162 0050 02       		.uleb128 0x2
 163 0051 01       		.byte	0x1
 164 0052 08       		.byte	0x8
 165 0053 10020000 		.4byte	.LASF4
 166 0057 02       		.uleb128 0x2
 167 0058 02       		.byte	0x2
 168 0059 05       		.byte	0x5
 169 005a 30000000 		.4byte	.LASF5
 170 005e 04       		.uleb128 0x4
 171 005f 65000000 		.4byte	.LASF6
 172 0063 02       		.byte	0x2
 173 0064 2B       		.byte	0x2b
 174 0065 69000000 		.4byte	0x69
 175 0069 02       		.uleb128 0x2
 176 006a 02       		.byte	0x2
 177 006b 07       		.byte	0x7
 178 006c 9C020000 		.4byte	.LASF7
 179 0070 04       		.uleb128 0x4
 180 0071 56030000 		.4byte	.LASF8
 181 0075 02       		.byte	0x2
 182 0076 3F       		.byte	0x3f
 183 0077 7B000000 		.4byte	0x7b
 184 007b 02       		.uleb128 0x2
 185 007c 04       		.byte	0x4
 186 007d 05       		.byte	0x5
ARM GAS  /tmp/ccbIggjD.s 			page 5


 187 007e 6A010000 		.4byte	.LASF9
 188 0082 04       		.uleb128 0x4
 189 0083 5A000000 		.4byte	.LASF10
 190 0087 02       		.byte	0x2
 191 0088 41       		.byte	0x41
 192 0089 8D000000 		.4byte	0x8d
 193 008d 02       		.uleb128 0x2
 194 008e 04       		.byte	0x4
 195 008f 07       		.byte	0x7
 196 0090 F4020000 		.4byte	.LASF11
 197 0094 02       		.uleb128 0x2
 198 0095 08       		.byte	0x8
 199 0096 05       		.byte	0x5
 200 0097 22010000 		.4byte	.LASF12
 201 009b 02       		.uleb128 0x2
 202 009c 08       		.byte	0x8
 203 009d 07       		.byte	0x7
 204 009e 53020000 		.4byte	.LASF13
 205 00a2 02       		.uleb128 0x2
 206 00a3 04       		.byte	0x4
 207 00a4 07       		.byte	0x7
 208 00a5 43000000 		.4byte	.LASF14
 209 00a9 02       		.uleb128 0x2
 210 00aa 01       		.byte	0x1
 211 00ab 08       		.byte	0x8
 212 00ac B6020000 		.4byte	.LASF15
 213 00b0 04       		.uleb128 0x4
 214 00b1 21000000 		.4byte	.LASF16
 215 00b5 03       		.byte	0x3
 216 00b6 13       		.byte	0x13
 217 00b7 33000000 		.4byte	0x33
 218 00bb 04       		.uleb128 0x4
 219 00bc 78000000 		.4byte	.LASF17
 220 00c0 03       		.byte	0x3
 221 00c1 14       		.byte	0x14
 222 00c2 45000000 		.4byte	0x45
 223 00c6 04       		.uleb128 0x4
 224 00c7 7B020000 		.4byte	.LASF18
 225 00cb 03       		.byte	0x3
 226 00cc 1A       		.byte	0x1a
 227 00cd 5E000000 		.4byte	0x5e
 228 00d1 04       		.uleb128 0x4
 229 00d2 C8020000 		.4byte	.LASF19
 230 00d6 03       		.byte	0x3
 231 00d7 1F       		.byte	0x1f
 232 00d8 70000000 		.4byte	0x70
 233 00dc 04       		.uleb128 0x4
 234 00dd 6A020000 		.4byte	.LASF20
 235 00e1 03       		.byte	0x3
 236 00e2 20       		.byte	0x20
 237 00e3 82000000 		.4byte	0x82
 238 00e7 02       		.uleb128 0x2
 239 00e8 04       		.byte	0x4
 240 00e9 04       		.byte	0x4
 241 00ea 1C010000 		.4byte	.LASF21
 242 00ee 05       		.uleb128 0x5
 243 00ef DC000000 		.4byte	0xdc
ARM GAS  /tmp/ccbIggjD.s 			page 6


 244 00f3 06       		.uleb128 0x6
 245 00f4 DC000000 		.4byte	0xdc
 246 00f8 03010000 		.4byte	0x103
 247 00fc 07       		.uleb128 0x7
 248 00fd A2000000 		.4byte	0xa2
 249 0101 04       		.byte	0x4
 250 0102 00       		.byte	0
 251 0103 05       		.uleb128 0x5
 252 0104 BB000000 		.4byte	0xbb
 253 0108 05       		.uleb128 0x5
 254 0109 C6000000 		.4byte	0xc6
 255 010d 08       		.uleb128 0x8
 256 010e 80       		.byte	0x80
 257 010f 04       		.byte	0x4
 258 0110 0401     		.2byte	0x104
 259 0112 BB020000 		.4byte	0x2bb
 260 0116 09       		.uleb128 0x9
 261 0117 06030000 		.4byte	.LASF22
 262 011b 04       		.byte	0x4
 263 011c 0601     		.2byte	0x106
 264 011e EE000000 		.4byte	0xee
 265 0122 02       		.byte	0x2
 266 0123 23       		.byte	0x23
 267 0124 00       		.uleb128 0
 268 0125 09       		.uleb128 0x9
 269 0126 0E030000 		.4byte	.LASF23
 270 012a 04       		.byte	0x4
 271 012b 0701     		.2byte	0x107
 272 012d EE000000 		.4byte	0xee
 273 0131 02       		.byte	0x2
 274 0132 23       		.byte	0x23
 275 0133 04       		.uleb128 0x4
 276 0134 09       		.uleb128 0x9
 277 0135 16030000 		.4byte	.LASF24
 278 0139 04       		.byte	0x4
 279 013a 0801     		.2byte	0x108
 280 013c EE000000 		.4byte	0xee
 281 0140 02       		.byte	0x2
 282 0141 23       		.byte	0x23
 283 0142 08       		.uleb128 0x8
 284 0143 09       		.uleb128 0x9
 285 0144 1E030000 		.4byte	.LASF25
 286 0148 04       		.byte	0x4
 287 0149 0901     		.2byte	0x109
 288 014b EE000000 		.4byte	0xee
 289 014f 02       		.byte	0x2
 290 0150 23       		.byte	0x23
 291 0151 0C       		.uleb128 0xc
 292 0152 09       		.uleb128 0x9
 293 0153 26030000 		.4byte	.LASF26
 294 0157 04       		.byte	0x4
 295 0158 0A01     		.2byte	0x10a
 296 015a EE000000 		.4byte	0xee
 297 015e 02       		.byte	0x2
 298 015f 23       		.byte	0x23
 299 0160 10       		.uleb128 0x10
 300 0161 09       		.uleb128 0x9
ARM GAS  /tmp/ccbIggjD.s 			page 7


 301 0162 2E030000 		.4byte	.LASF27
 302 0166 04       		.byte	0x4
 303 0167 0B01     		.2byte	0x10b
 304 0169 EE000000 		.4byte	0xee
 305 016d 02       		.byte	0x2
 306 016e 23       		.byte	0x23
 307 016f 14       		.uleb128 0x14
 308 0170 09       		.uleb128 0x9
 309 0171 36030000 		.4byte	.LASF28
 310 0175 04       		.byte	0x4
 311 0176 0C01     		.2byte	0x10c
 312 0178 EE000000 		.4byte	0xee
 313 017c 02       		.byte	0x2
 314 017d 23       		.byte	0x23
 315 017e 18       		.uleb128 0x18
 316 017f 09       		.uleb128 0x9
 317 0180 3E030000 		.4byte	.LASF29
 318 0184 04       		.byte	0x4
 319 0185 0D01     		.2byte	0x10d
 320 0187 EE000000 		.4byte	0xee
 321 018b 02       		.byte	0x2
 322 018c 23       		.byte	0x23
 323 018d 1C       		.uleb128 0x1c
 324 018e 09       		.uleb128 0x9
 325 018f 46030000 		.4byte	.LASF30
 326 0193 04       		.byte	0x4
 327 0194 0E01     		.2byte	0x10e
 328 0196 EE000000 		.4byte	0xee
 329 019a 02       		.byte	0x2
 330 019b 23       		.byte	0x23
 331 019c 20       		.uleb128 0x20
 332 019d 09       		.uleb128 0x9
 333 019e 4E030000 		.4byte	.LASF31
 334 01a2 04       		.byte	0x4
 335 01a3 0F01     		.2byte	0x10f
 336 01a5 EE000000 		.4byte	0xee
 337 01a9 02       		.byte	0x2
 338 01aa 23       		.byte	0x23
 339 01ab 24       		.uleb128 0x24
 340 01ac 09       		.uleb128 0x9
 341 01ad D9020000 		.4byte	.LASF32
 342 01b1 04       		.byte	0x4
 343 01b2 1001     		.2byte	0x110
 344 01b4 EE000000 		.4byte	0xee
 345 01b8 02       		.byte	0x2
 346 01b9 23       		.byte	0x23
 347 01ba 28       		.uleb128 0x28
 348 01bb 09       		.uleb128 0x9
 349 01bc EA020000 		.4byte	.LASF33
 350 01c0 04       		.byte	0x4
 351 01c1 1101     		.2byte	0x111
 352 01c3 F3000000 		.4byte	0xf3
 353 01c7 02       		.byte	0x2
 354 01c8 23       		.byte	0x23
 355 01c9 2C       		.uleb128 0x2c
 356 01ca 09       		.uleb128 0x9
 357 01cb 0F000000 		.4byte	.LASF34
ARM GAS  /tmp/ccbIggjD.s 			page 8


 358 01cf 04       		.byte	0x4
 359 01d0 1201     		.2byte	0x112
 360 01d2 EE000000 		.4byte	0xee
 361 01d6 02       		.byte	0x2
 362 01d7 23       		.byte	0x23
 363 01d8 40       		.uleb128 0x40
 364 01d9 09       		.uleb128 0x9
 365 01da 18000000 		.4byte	.LASF35
 366 01de 04       		.byte	0x4
 367 01df 1301     		.2byte	0x113
 368 01e1 EE000000 		.4byte	0xee
 369 01e5 02       		.byte	0x2
 370 01e6 23       		.byte	0x23
 371 01e7 44       		.uleb128 0x44
 372 01e8 09       		.uleb128 0x9
 373 01e9 D0020000 		.4byte	.LASF36
 374 01ed 04       		.byte	0x4
 375 01ee 1401     		.2byte	0x114
 376 01f0 EE000000 		.4byte	0xee
 377 01f4 02       		.byte	0x2
 378 01f5 23       		.byte	0x23
 379 01f6 48       		.uleb128 0x48
 380 01f7 09       		.uleb128 0x9
 381 01f8 EC010000 		.4byte	.LASF37
 382 01fc 04       		.byte	0x4
 383 01fd 1501     		.2byte	0x115
 384 01ff EE000000 		.4byte	0xee
 385 0203 02       		.byte	0x2
 386 0204 23       		.byte	0x23
 387 0205 4C       		.uleb128 0x4c
 388 0206 09       		.uleb128 0x9
 389 0207 F5010000 		.4byte	.LASF38
 390 020b 04       		.byte	0x4
 391 020c 1601     		.2byte	0x116
 392 020e EE000000 		.4byte	0xee
 393 0212 02       		.byte	0x2
 394 0213 23       		.byte	0x23
 395 0214 50       		.uleb128 0x50
 396 0215 09       		.uleb128 0x9
 397 0216 FE010000 		.4byte	.LASF39
 398 021a 04       		.byte	0x4
 399 021b 1701     		.2byte	0x117
 400 021d EE000000 		.4byte	0xee
 401 0221 02       		.byte	0x2
 402 0222 23       		.byte	0x23
 403 0223 54       		.uleb128 0x54
 404 0224 09       		.uleb128 0x9
 405 0225 07020000 		.4byte	.LASF40
 406 0229 04       		.byte	0x4
 407 022a 1801     		.2byte	0x118
 408 022c EE000000 		.4byte	0xee
 409 0230 02       		.byte	0x2
 410 0231 23       		.byte	0x23
 411 0232 58       		.uleb128 0x58
 412 0233 09       		.uleb128 0x9
 413 0234 3A000000 		.4byte	.LASF41
 414 0238 04       		.byte	0x4
ARM GAS  /tmp/ccbIggjD.s 			page 9


 415 0239 1901     		.2byte	0x119
 416 023b EE000000 		.4byte	0xee
 417 023f 02       		.byte	0x2
 418 0240 23       		.byte	0x23
 419 0241 5C       		.uleb128 0x5c
 420 0242 09       		.uleb128 0x9
 421 0243 1E020000 		.4byte	.LASF42
 422 0247 04       		.byte	0x4
 423 0248 1A01     		.2byte	0x11a
 424 024a EE000000 		.4byte	0xee
 425 024e 02       		.byte	0x2
 426 024f 23       		.byte	0x23
 427 0250 60       		.uleb128 0x60
 428 0251 09       		.uleb128 0x9
 429 0252 4C000000 		.4byte	.LASF43
 430 0256 04       		.byte	0x4
 431 0257 1B01     		.2byte	0x11b
 432 0259 EE000000 		.4byte	0xee
 433 025d 02       		.byte	0x2
 434 025e 23       		.byte	0x23
 435 025f 64       		.uleb128 0x64
 436 0260 09       		.uleb128 0x9
 437 0261 7D010000 		.4byte	.LASF44
 438 0265 04       		.byte	0x4
 439 0266 1C01     		.2byte	0x11c
 440 0268 EE000000 		.4byte	0xee
 441 026c 02       		.byte	0x2
 442 026d 23       		.byte	0x23
 443 026e 68       		.uleb128 0x68
 444 026f 09       		.uleb128 0x9
 445 0270 89010000 		.4byte	.LASF45
 446 0274 04       		.byte	0x4
 447 0275 1D01     		.2byte	0x11d
 448 0277 EE000000 		.4byte	0xee
 449 027b 02       		.byte	0x2
 450 027c 23       		.byte	0x23
 451 027d 6C       		.uleb128 0x6c
 452 027e 09       		.uleb128 0x9
 453 027f 95010000 		.4byte	.LASF46
 454 0283 04       		.byte	0x4
 455 0284 1E01     		.2byte	0x11e
 456 0286 EE000000 		.4byte	0xee
 457 028a 02       		.byte	0x2
 458 028b 23       		.byte	0x23
 459 028c 70       		.uleb128 0x70
 460 028d 09       		.uleb128 0x9
 461 028e A1010000 		.4byte	.LASF47
 462 0292 04       		.byte	0x4
 463 0293 1F01     		.2byte	0x11f
 464 0295 EE000000 		.4byte	0xee
 465 0299 02       		.byte	0x2
 466 029a 23       		.byte	0x23
 467 029b 74       		.uleb128 0x74
 468 029c 09       		.uleb128 0x9
 469 029d AD010000 		.4byte	.LASF48
 470 02a1 04       		.byte	0x4
 471 02a2 2001     		.2byte	0x120
ARM GAS  /tmp/ccbIggjD.s 			page 10


 472 02a4 EE000000 		.4byte	0xee
 473 02a8 02       		.byte	0x2
 474 02a9 23       		.byte	0x23
 475 02aa 78       		.uleb128 0x78
 476 02ab 09       		.uleb128 0x9
 477 02ac 60010000 		.4byte	.LASF49
 478 02b0 04       		.byte	0x4
 479 02b1 2101     		.2byte	0x121
 480 02b3 EE000000 		.4byte	0xee
 481 02b7 02       		.byte	0x2
 482 02b8 23       		.byte	0x23
 483 02b9 7C       		.uleb128 0x7c
 484 02ba 00       		.byte	0
 485 02bb 0A       		.uleb128 0xa
 486 02bc 00000000 		.4byte	.LASF50
 487 02c0 04       		.byte	0x4
 488 02c1 2201     		.2byte	0x122
 489 02c3 0D010000 		.4byte	0x10d
 490 02c7 08       		.uleb128 0x8
 491 02c8 04       		.byte	0x4
 492 02c9 04       		.byte	0x4
 493 02ca 2A01     		.2byte	0x12a
 494 02cc EF020000 		.4byte	0x2ef
 495 02d0 09       		.uleb128 0x9
 496 02d1 84020000 		.4byte	.LASF51
 497 02d5 04       		.byte	0x4
 498 02d6 2B01     		.2byte	0x12b
 499 02d8 08010000 		.4byte	0x108
 500 02dc 02       		.byte	0x2
 501 02dd 23       		.byte	0x23
 502 02de 00       		.uleb128 0
 503 02df 09       		.uleb128 0x9
 504 02e0 73020000 		.4byte	.LASF52
 505 02e4 04       		.byte	0x4
 506 02e5 2C01     		.2byte	0x12c
 507 02e7 08010000 		.4byte	0x108
 508 02eb 02       		.byte	0x2
 509 02ec 23       		.byte	0x23
 510 02ed 02       		.uleb128 0x2
 511 02ee 00       		.byte	0
 512 02ef 08       		.uleb128 0x8
 513 02f0 04       		.byte	0x4
 514 02f1 04       		.byte	0x4
 515 02f2 2E01     		.2byte	0x12e
 516 02f4 35030000 		.4byte	0x335
 517 02f8 09       		.uleb128 0x9
 518 02f9 CA010000 		.4byte	.LASF53
 519 02fd 04       		.byte	0x4
 520 02fe 2F01     		.2byte	0x12f
 521 0300 03010000 		.4byte	0x103
 522 0304 02       		.byte	0x2
 523 0305 23       		.byte	0x23
 524 0306 00       		.uleb128 0
 525 0307 09       		.uleb128 0x9
 526 0308 70000000 		.4byte	.LASF54
 527 030c 04       		.byte	0x4
 528 030d 3001     		.2byte	0x130
ARM GAS  /tmp/ccbIggjD.s 			page 11


 529 030f 03010000 		.4byte	0x103
 530 0313 02       		.byte	0x2
 531 0314 23       		.byte	0x23
 532 0315 01       		.uleb128 0x1
 533 0316 09       		.uleb128 0x9
 534 0317 DC010000 		.4byte	.LASF55
 535 031b 04       		.byte	0x4
 536 031c 3101     		.2byte	0x131
 537 031e 03010000 		.4byte	0x103
 538 0322 02       		.byte	0x2
 539 0323 23       		.byte	0x23
 540 0324 02       		.uleb128 0x2
 541 0325 09       		.uleb128 0x9
 542 0326 E4010000 		.4byte	.LASF56
 543 032a 04       		.byte	0x4
 544 032b 3201     		.2byte	0x132
 545 032d 03010000 		.4byte	0x103
 546 0331 02       		.byte	0x2
 547 0332 23       		.byte	0x23
 548 0333 03       		.uleb128 0x3
 549 0334 00       		.byte	0
 550 0335 0B       		.uleb128 0xb
 551 0336 04       		.byte	0x4
 552 0337 04       		.byte	0x4
 553 0338 2801     		.2byte	0x128
 554 033a 55030000 		.4byte	0x355
 555 033e 0C       		.uleb128 0xc
 556 033f 59010000 		.4byte	.LASF63
 557 0343 04       		.byte	0x4
 558 0344 2901     		.2byte	0x129
 559 0346 EE000000 		.4byte	0xee
 560 034a 0D       		.uleb128 0xd
 561 034b C7020000 		.4byte	0x2c7
 562 034f 0D       		.uleb128 0xd
 563 0350 EF020000 		.4byte	0x2ef
 564 0354 00       		.byte	0
 565 0355 08       		.uleb128 0x8
 566 0356 04       		.byte	0x4
 567 0357 04       		.byte	0x4
 568 0358 3801     		.2byte	0x138
 569 035a 7D030000 		.4byte	0x37d
 570 035e 09       		.uleb128 0x9
 571 035f 13010000 		.4byte	.LASF57
 572 0363 04       		.byte	0x4
 573 0364 3901     		.2byte	0x139
 574 0366 08010000 		.4byte	0x108
 575 036a 02       		.byte	0x2
 576 036b 23       		.byte	0x23
 577 036c 00       		.uleb128 0
 578 036d 09       		.uleb128 0x9
 579 036e 50010000 		.4byte	.LASF58
 580 0372 04       		.byte	0x4
 581 0373 3A01     		.2byte	0x13a
 582 0375 08010000 		.4byte	0x108
 583 0379 02       		.byte	0x2
 584 037a 23       		.byte	0x23
 585 037b 02       		.uleb128 0x2
ARM GAS  /tmp/ccbIggjD.s 			page 12


 586 037c 00       		.byte	0
 587 037d 08       		.uleb128 0x8
 588 037e 04       		.byte	0x4
 589 037f 04       		.byte	0x4
 590 0380 3C01     		.2byte	0x13c
 591 0382 C3030000 		.4byte	0x3c3
 592 0386 09       		.uleb128 0x9
 593 0387 E8000000 		.4byte	.LASF59
 594 038b 04       		.byte	0x4
 595 038c 3D01     		.2byte	0x13d
 596 038e 03010000 		.4byte	0x103
 597 0392 02       		.byte	0x2
 598 0393 23       		.byte	0x23
 599 0394 00       		.uleb128 0
 600 0395 09       		.uleb128 0x9
 601 0396 F1000000 		.4byte	.LASF60
 602 039a 04       		.byte	0x4
 603 039b 3E01     		.2byte	0x13e
 604 039d 03010000 		.4byte	0x103
 605 03a1 02       		.byte	0x2
 606 03a2 23       		.byte	0x23
 607 03a3 01       		.uleb128 0x1
 608 03a4 09       		.uleb128 0x9
 609 03a5 FA000000 		.4byte	.LASF61
 610 03a9 04       		.byte	0x4
 611 03aa 3F01     		.2byte	0x13f
 612 03ac 03010000 		.4byte	0x103
 613 03b0 02       		.byte	0x2
 614 03b1 23       		.byte	0x23
 615 03b2 02       		.uleb128 0x2
 616 03b3 09       		.uleb128 0x9
 617 03b4 03010000 		.4byte	.LASF62
 618 03b8 04       		.byte	0x4
 619 03b9 4001     		.2byte	0x140
 620 03bb 03010000 		.4byte	0x103
 621 03bf 02       		.byte	0x2
 622 03c0 23       		.byte	0x23
 623 03c1 03       		.uleb128 0x3
 624 03c2 00       		.byte	0
 625 03c3 0B       		.uleb128 0xb
 626 03c4 04       		.byte	0x4
 627 03c5 04       		.byte	0x4
 628 03c6 3601     		.2byte	0x136
 629 03c8 E3030000 		.4byte	0x3e3
 630 03cc 0C       		.uleb128 0xc
 631 03cd 28000000 		.4byte	.LASF64
 632 03d1 04       		.byte	0x4
 633 03d2 3701     		.2byte	0x137
 634 03d4 EE000000 		.4byte	0xee
 635 03d8 0D       		.uleb128 0xd
 636 03d9 55030000 		.4byte	0x355
 637 03dd 0D       		.uleb128 0xd
 638 03de 7D030000 		.4byte	0x37d
 639 03e2 00       		.byte	0
 640 03e3 08       		.uleb128 0x8
 641 03e4 04       		.byte	0x4
 642 03e5 04       		.byte	0x4
ARM GAS  /tmp/ccbIggjD.s 			page 13


 643 03e6 4501     		.2byte	0x145
 644 03e8 0B040000 		.4byte	0x40b
 645 03ec 09       		.uleb128 0x9
 646 03ed 94020000 		.4byte	.LASF65
 647 03f1 04       		.byte	0x4
 648 03f2 4601     		.2byte	0x146
 649 03f4 08010000 		.4byte	0x108
 650 03f8 02       		.byte	0x2
 651 03f9 23       		.byte	0x23
 652 03fa 00       		.uleb128 0
 653 03fb 09       		.uleb128 0x9
 654 03fc 8C020000 		.4byte	.LASF66
 655 0400 04       		.byte	0x4
 656 0401 4701     		.2byte	0x147
 657 0403 08010000 		.4byte	0x108
 658 0407 02       		.byte	0x2
 659 0408 23       		.byte	0x23
 660 0409 02       		.uleb128 0x2
 661 040a 00       		.byte	0
 662 040b 08       		.uleb128 0x8
 663 040c 04       		.byte	0x4
 664 040d 04       		.byte	0x4
 665 040e 4901     		.2byte	0x149
 666 0410 51040000 		.4byte	0x451
 667 0414 09       		.uleb128 0x9
 668 0415 27020000 		.4byte	.LASF67
 669 0419 04       		.byte	0x4
 670 041a 4A01     		.2byte	0x14a
 671 041c 03010000 		.4byte	0x103
 672 0420 02       		.byte	0x2
 673 0421 23       		.byte	0x23
 674 0422 00       		.uleb128 0
 675 0423 09       		.uleb128 0x9
 676 0424 2F020000 		.4byte	.LASF68
 677 0428 04       		.byte	0x4
 678 0429 4B01     		.2byte	0x14b
 679 042b 03010000 		.4byte	0x103
 680 042f 02       		.byte	0x2
 681 0430 23       		.byte	0x23
 682 0431 01       		.uleb128 0x1
 683 0432 09       		.uleb128 0x9
 684 0433 37020000 		.4byte	.LASF69
 685 0437 04       		.byte	0x4
 686 0438 4C01     		.2byte	0x14c
 687 043a 03010000 		.4byte	0x103
 688 043e 02       		.byte	0x2
 689 043f 23       		.byte	0x23
 690 0440 02       		.uleb128 0x2
 691 0441 09       		.uleb128 0x9
 692 0442 3F020000 		.4byte	.LASF70
 693 0446 04       		.byte	0x4
 694 0447 4D01     		.2byte	0x14d
 695 0449 03010000 		.4byte	0x103
 696 044d 02       		.byte	0x2
 697 044e 23       		.byte	0x23
 698 044f 03       		.uleb128 0x3
 699 0450 00       		.byte	0
ARM GAS  /tmp/ccbIggjD.s 			page 14


 700 0451 0B       		.uleb128 0xb
 701 0452 04       		.byte	0x4
 702 0453 04       		.byte	0x4
 703 0454 4301     		.2byte	0x143
 704 0456 71040000 		.4byte	0x471
 705 045a 0C       		.uleb128 0xc
 706 045b DB030000 		.4byte	.LASF71
 707 045f 04       		.byte	0x4
 708 0460 4401     		.2byte	0x144
 709 0462 EE000000 		.4byte	0xee
 710 0466 0D       		.uleb128 0xd
 711 0467 E3030000 		.4byte	0x3e3
 712 046b 0D       		.uleb128 0xd
 713 046c 0B040000 		.4byte	0x40b
 714 0470 00       		.byte	0
 715 0471 08       		.uleb128 0x8
 716 0472 04       		.byte	0x4
 717 0473 04       		.byte	0x4
 718 0474 5201     		.2byte	0x152
 719 0476 99040000 		.4byte	0x499
 720 047a 09       		.uleb128 0x9
 721 047b C2010000 		.4byte	.LASF72
 722 047f 04       		.byte	0x4
 723 0480 5301     		.2byte	0x153
 724 0482 08010000 		.4byte	0x108
 725 0486 02       		.byte	0x2
 726 0487 23       		.byte	0x23
 727 0488 00       		.uleb128 0
 728 0489 09       		.uleb128 0x9
 729 048a BE030000 		.4byte	.LASF73
 730 048e 04       		.byte	0x4
 731 048f 5401     		.2byte	0x154
 732 0491 08010000 		.4byte	0x108
 733 0495 02       		.byte	0x2
 734 0496 23       		.byte	0x23
 735 0497 02       		.uleb128 0x2
 736 0498 00       		.byte	0
 737 0499 08       		.uleb128 0x8
 738 049a 04       		.byte	0x4
 739 049b 04       		.byte	0x4
 740 049c 5601     		.2byte	0x156
 741 049e DF040000 		.4byte	0x4df
 742 04a2 09       		.uleb128 0x9
 743 04a3 30010000 		.4byte	.LASF74
 744 04a7 04       		.byte	0x4
 745 04a8 5701     		.2byte	0x157
 746 04aa 03010000 		.4byte	0x103
 747 04ae 02       		.byte	0x2
 748 04af 23       		.byte	0x23
 749 04b0 00       		.uleb128 0
 750 04b1 09       		.uleb128 0x9
 751 04b2 38010000 		.4byte	.LASF75
 752 04b6 04       		.byte	0x4
 753 04b7 5801     		.2byte	0x158
 754 04b9 03010000 		.4byte	0x103
 755 04bd 02       		.byte	0x2
 756 04be 23       		.byte	0x23
ARM GAS  /tmp/ccbIggjD.s 			page 15


 757 04bf 01       		.uleb128 0x1
 758 04c0 09       		.uleb128 0x9
 759 04c1 40010000 		.4byte	.LASF76
 760 04c5 04       		.byte	0x4
 761 04c6 5901     		.2byte	0x159
 762 04c8 03010000 		.4byte	0x103
 763 04cc 02       		.byte	0x2
 764 04cd 23       		.byte	0x23
 765 04ce 02       		.uleb128 0x2
 766 04cf 09       		.uleb128 0x9
 767 04d0 48010000 		.4byte	.LASF77
 768 04d4 04       		.byte	0x4
 769 04d5 5A01     		.2byte	0x15a
 770 04d7 03010000 		.4byte	0x103
 771 04db 02       		.byte	0x2
 772 04dc 23       		.byte	0x23
 773 04dd 03       		.uleb128 0x3
 774 04de 00       		.byte	0
 775 04df 0B       		.uleb128 0xb
 776 04e0 04       		.byte	0x4
 777 04e1 04       		.byte	0x4
 778 04e2 5001     		.2byte	0x150
 779 04e4 FF040000 		.4byte	0x4ff
 780 04e8 0C       		.uleb128 0xc
 781 04e9 B7030000 		.4byte	.LASF78
 782 04ed 04       		.byte	0x4
 783 04ee 5101     		.2byte	0x151
 784 04f0 EE000000 		.4byte	0xee
 785 04f4 0D       		.uleb128 0xd
 786 04f5 71040000 		.4byte	0x471
 787 04f9 0D       		.uleb128 0xd
 788 04fa 99040000 		.4byte	0x499
 789 04fe 00       		.byte	0
 790 04ff 08       		.uleb128 0x8
 791 0500 04       		.byte	0x4
 792 0501 04       		.byte	0x4
 793 0502 5F01     		.2byte	0x15f
 794 0504 27050000 		.4byte	0x527
 795 0508 09       		.uleb128 0x9
 796 0509 E2030000 		.4byte	.LASF79
 797 050d 04       		.byte	0x4
 798 050e 6001     		.2byte	0x160
 799 0510 08010000 		.4byte	0x108
 800 0514 02       		.byte	0x2
 801 0515 23       		.byte	0x23
 802 0516 00       		.uleb128 0
 803 0517 09       		.uleb128 0x9
 804 0518 D3030000 		.4byte	.LASF80
 805 051c 04       		.byte	0x4
 806 051d 6101     		.2byte	0x161
 807 051f 08010000 		.4byte	0x108
 808 0523 02       		.byte	0x2
 809 0524 23       		.byte	0x23
 810 0525 02       		.uleb128 0x2
 811 0526 00       		.byte	0
 812 0527 08       		.uleb128 0x8
 813 0528 04       		.byte	0x4
ARM GAS  /tmp/ccbIggjD.s 			page 16


 814 0529 04       		.byte	0x4
 815 052a 6301     		.2byte	0x163
 816 052c 6D050000 		.4byte	0x56d
 817 0530 09       		.uleb128 0x9
 818 0531 60030000 		.4byte	.LASF81
 819 0535 04       		.byte	0x4
 820 0536 6401     		.2byte	0x164
 821 0538 03010000 		.4byte	0x103
 822 053c 02       		.byte	0x2
 823 053d 23       		.byte	0x23
 824 053e 00       		.uleb128 0
 825 053f 09       		.uleb128 0x9
 826 0540 68030000 		.4byte	.LASF82
 827 0544 04       		.byte	0x4
 828 0545 6501     		.2byte	0x165
 829 0547 03010000 		.4byte	0x103
 830 054b 02       		.byte	0x2
 831 054c 23       		.byte	0x23
 832 054d 01       		.uleb128 0x1
 833 054e 09       		.uleb128 0x9
 834 054f E2020000 		.4byte	.LASF83
 835 0553 04       		.byte	0x4
 836 0554 6601     		.2byte	0x166
 837 0556 03010000 		.4byte	0x103
 838 055a 02       		.byte	0x2
 839 055b 23       		.byte	0x23
 840 055c 02       		.uleb128 0x2
 841 055d 09       		.uleb128 0x9
 842 055e AF030000 		.4byte	.LASF84
 843 0562 04       		.byte	0x4
 844 0563 6701     		.2byte	0x167
 845 0565 03010000 		.4byte	0x103
 846 0569 02       		.byte	0x2
 847 056a 23       		.byte	0x23
 848 056b 03       		.uleb128 0x3
 849 056c 00       		.byte	0
 850 056d 0B       		.uleb128 0xb
 851 056e 04       		.byte	0x4
 852 056f 04       		.byte	0x4
 853 0570 5D01     		.2byte	0x15d
 854 0572 8D050000 		.4byte	0x58d
 855 0576 0C       		.uleb128 0xc
 856 0577 0C010000 		.4byte	.LASF85
 857 057b 04       		.byte	0x4
 858 057c 5E01     		.2byte	0x15e
 859 057e EE000000 		.4byte	0xee
 860 0582 0D       		.uleb128 0xd
 861 0583 FF040000 		.4byte	0x4ff
 862 0587 0D       		.uleb128 0xd
 863 0588 27050000 		.4byte	0x527
 864 058c 00       		.byte	0
 865 058d 08       		.uleb128 0x8
 866 058e 20       		.byte	0x20
 867 058f 04       		.byte	0x4
 868 0590 2601     		.2byte	0x126
 869 0592 CE050000 		.4byte	0x5ce
 870 0596 0E       		.uleb128 0xe
ARM GAS  /tmp/ccbIggjD.s 			page 17


 871 0597 35030000 		.4byte	0x335
 872 059b 02       		.byte	0x2
 873 059c 23       		.byte	0x23
 874 059d 00       		.uleb128 0
 875 059e 09       		.uleb128 0x9
 876 059f EA020000 		.4byte	.LASF33
 877 05a3 04       		.byte	0x4
 878 05a4 3501     		.2byte	0x135
 879 05a6 CE050000 		.4byte	0x5ce
 880 05aa 02       		.byte	0x2
 881 05ab 23       		.byte	0x23
 882 05ac 04       		.uleb128 0x4
 883 05ad 0E       		.uleb128 0xe
 884 05ae C3030000 		.4byte	0x3c3
 885 05b2 02       		.byte	0x2
 886 05b3 23       		.byte	0x23
 887 05b4 10       		.uleb128 0x10
 888 05b5 0E       		.uleb128 0xe
 889 05b6 51040000 		.4byte	0x451
 890 05ba 02       		.byte	0x2
 891 05bb 23       		.byte	0x23
 892 05bc 14       		.uleb128 0x14
 893 05bd 0E       		.uleb128 0xe
 894 05be DF040000 		.4byte	0x4df
 895 05c2 02       		.byte	0x2
 896 05c3 23       		.byte	0x23
 897 05c4 18       		.uleb128 0x18
 898 05c5 0E       		.uleb128 0xe
 899 05c6 6D050000 		.4byte	0x56d
 900 05ca 02       		.byte	0x2
 901 05cb 23       		.byte	0x23
 902 05cc 1C       		.uleb128 0x1c
 903 05cd 00       		.byte	0
 904 05ce 06       		.uleb128 0x6
 905 05cf DC000000 		.4byte	0xdc
 906 05d3 DE050000 		.4byte	0x5de
 907 05d7 07       		.uleb128 0x7
 908 05d8 A2000000 		.4byte	0xa2
 909 05dc 02       		.byte	0x2
 910 05dd 00       		.byte	0
 911 05de 0A       		.uleb128 0xa
 912 05df EA030000 		.4byte	.LASF86
 913 05e3 04       		.byte	0x4
 914 05e4 6A01     		.2byte	0x16a
 915 05e6 8D050000 		.4byte	0x58d
 916 05ea 0F       		.uleb128 0xf
 917 05eb 01       		.byte	0x1
 918 05ec 55000000 		.4byte	.LASF92
 919 05f0 01       		.byte	0x1
 920 05f1 13       		.byte	0x13
 921 05f2 2C000000 		.4byte	0x2c
 922 05f6 00000000 		.4byte	.LFB40
 923 05fa 56000000 		.4byte	.LFE40
 924 05fe 00000000 		.4byte	.LLST0
 925 0602 01       		.byte	0x1
 926 0603 34060000 		.4byte	0x634
 927 0607 10       		.uleb128 0x10
ARM GAS  /tmp/ccbIggjD.s 			page 18


 928 0608 AF020000 		.4byte	.LASF87
 929 060c 01       		.byte	0x1
 930 060d 15       		.byte	0x15
 931 060e B0000000 		.4byte	0xb0
 932 0612 02       		.byte	0x2
 933 0613 91       		.byte	0x91
 934 0614 77       		.sleb128 -9
 935 0615 10       		.uleb128 0x10
 936 0616 D2010000 		.4byte	.LASF88
 937 061a 01       		.byte	0x1
 938 061b 1D       		.byte	0x1d
 939 061c BB020000 		.4byte	0x2bb
 940 0620 03       		.byte	0x3
 941 0621 91       		.byte	0x91
 942 0622 F47E     		.sleb128 -140
 943 0624 11       		.uleb128 0x11
 944 0625 4C454400 		.ascii	"LED\000"
 945 0629 01       		.byte	0x1
 946 062a 1E       		.byte	0x1e
 947 062b DE050000 		.4byte	0x5de
 948 062f 03       		.byte	0x3
 949 0630 91       		.byte	0x91
 950 0631 D47E     		.sleb128 -172
 951 0633 00       		.byte	0
 952 0634 12       		.uleb128 0x12
 953 0635 BB020000 		.4byte	.LASF93
 954 0639 05       		.byte	0x5
 955 063a E602     		.2byte	0x2e6
 956 063c 42060000 		.4byte	0x642
 957 0640 01       		.byte	0x1
 958 0641 01       		.byte	0x1
 959 0642 05       		.uleb128 0x5
 960 0643 D1000000 		.4byte	0xd1
 961 0647 00       		.byte	0
 962              		.section	.debug_abbrev,"",%progbits
 963              	.Ldebug_abbrev0:
 964 0000 01       		.uleb128 0x1
 965 0001 11       		.uleb128 0x11
 966 0002 01       		.byte	0x1
 967 0003 25       		.uleb128 0x25
 968 0004 0E       		.uleb128 0xe
 969 0005 13       		.uleb128 0x13
 970 0006 0B       		.uleb128 0xb
 971 0007 03       		.uleb128 0x3
 972 0008 0E       		.uleb128 0xe
 973 0009 1B       		.uleb128 0x1b
 974 000a 0E       		.uleb128 0xe
 975 000b 11       		.uleb128 0x11
 976 000c 01       		.uleb128 0x1
 977 000d 12       		.uleb128 0x12
 978 000e 01       		.uleb128 0x1
 979 000f 10       		.uleb128 0x10
 980 0010 06       		.uleb128 0x6
 981 0011 00       		.byte	0
 982 0012 00       		.byte	0
 983 0013 02       		.uleb128 0x2
 984 0014 24       		.uleb128 0x24
ARM GAS  /tmp/ccbIggjD.s 			page 19


 985 0015 00       		.byte	0
 986 0016 0B       		.uleb128 0xb
 987 0017 0B       		.uleb128 0xb
 988 0018 3E       		.uleb128 0x3e
 989 0019 0B       		.uleb128 0xb
 990 001a 03       		.uleb128 0x3
 991 001b 0E       		.uleb128 0xe
 992 001c 00       		.byte	0
 993 001d 00       		.byte	0
 994 001e 03       		.uleb128 0x3
 995 001f 24       		.uleb128 0x24
 996 0020 00       		.byte	0
 997 0021 0B       		.uleb128 0xb
 998 0022 0B       		.uleb128 0xb
 999 0023 3E       		.uleb128 0x3e
 1000 0024 0B       		.uleb128 0xb
 1001 0025 03       		.uleb128 0x3
 1002 0026 08       		.uleb128 0x8
 1003 0027 00       		.byte	0
 1004 0028 00       		.byte	0
 1005 0029 04       		.uleb128 0x4
 1006 002a 16       		.uleb128 0x16
 1007 002b 00       		.byte	0
 1008 002c 03       		.uleb128 0x3
 1009 002d 0E       		.uleb128 0xe
 1010 002e 3A       		.uleb128 0x3a
 1011 002f 0B       		.uleb128 0xb
 1012 0030 3B       		.uleb128 0x3b
 1013 0031 0B       		.uleb128 0xb
 1014 0032 49       		.uleb128 0x49
 1015 0033 13       		.uleb128 0x13
 1016 0034 00       		.byte	0
 1017 0035 00       		.byte	0
 1018 0036 05       		.uleb128 0x5
 1019 0037 35       		.uleb128 0x35
 1020 0038 00       		.byte	0
 1021 0039 49       		.uleb128 0x49
 1022 003a 13       		.uleb128 0x13
 1023 003b 00       		.byte	0
 1024 003c 00       		.byte	0
 1025 003d 06       		.uleb128 0x6
 1026 003e 01       		.uleb128 0x1
 1027 003f 01       		.byte	0x1
 1028 0040 49       		.uleb128 0x49
 1029 0041 13       		.uleb128 0x13
 1030 0042 01       		.uleb128 0x1
 1031 0043 13       		.uleb128 0x13
 1032 0044 00       		.byte	0
 1033 0045 00       		.byte	0
 1034 0046 07       		.uleb128 0x7
 1035 0047 21       		.uleb128 0x21
 1036 0048 00       		.byte	0
 1037 0049 49       		.uleb128 0x49
 1038 004a 13       		.uleb128 0x13
 1039 004b 2F       		.uleb128 0x2f
 1040 004c 0B       		.uleb128 0xb
 1041 004d 00       		.byte	0
ARM GAS  /tmp/ccbIggjD.s 			page 20


 1042 004e 00       		.byte	0
 1043 004f 08       		.uleb128 0x8
 1044 0050 13       		.uleb128 0x13
 1045 0051 01       		.byte	0x1
 1046 0052 0B       		.uleb128 0xb
 1047 0053 0B       		.uleb128 0xb
 1048 0054 3A       		.uleb128 0x3a
 1049 0055 0B       		.uleb128 0xb
 1050 0056 3B       		.uleb128 0x3b
 1051 0057 05       		.uleb128 0x5
 1052 0058 01       		.uleb128 0x1
 1053 0059 13       		.uleb128 0x13
 1054 005a 00       		.byte	0
 1055 005b 00       		.byte	0
 1056 005c 09       		.uleb128 0x9
 1057 005d 0D       		.uleb128 0xd
 1058 005e 00       		.byte	0
 1059 005f 03       		.uleb128 0x3
 1060 0060 0E       		.uleb128 0xe
 1061 0061 3A       		.uleb128 0x3a
 1062 0062 0B       		.uleb128 0xb
 1063 0063 3B       		.uleb128 0x3b
 1064 0064 05       		.uleb128 0x5
 1065 0065 49       		.uleb128 0x49
 1066 0066 13       		.uleb128 0x13
 1067 0067 38       		.uleb128 0x38
 1068 0068 0A       		.uleb128 0xa
 1069 0069 00       		.byte	0
 1070 006a 00       		.byte	0
 1071 006b 0A       		.uleb128 0xa
 1072 006c 16       		.uleb128 0x16
 1073 006d 00       		.byte	0
 1074 006e 03       		.uleb128 0x3
 1075 006f 0E       		.uleb128 0xe
 1076 0070 3A       		.uleb128 0x3a
 1077 0071 0B       		.uleb128 0xb
 1078 0072 3B       		.uleb128 0x3b
 1079 0073 05       		.uleb128 0x5
 1080 0074 49       		.uleb128 0x49
 1081 0075 13       		.uleb128 0x13
 1082 0076 00       		.byte	0
 1083 0077 00       		.byte	0
 1084 0078 0B       		.uleb128 0xb
 1085 0079 17       		.uleb128 0x17
 1086 007a 01       		.byte	0x1
 1087 007b 0B       		.uleb128 0xb
 1088 007c 0B       		.uleb128 0xb
 1089 007d 3A       		.uleb128 0x3a
 1090 007e 0B       		.uleb128 0xb
 1091 007f 3B       		.uleb128 0x3b
 1092 0080 05       		.uleb128 0x5
 1093 0081 01       		.uleb128 0x1
 1094 0082 13       		.uleb128 0x13
 1095 0083 00       		.byte	0
 1096 0084 00       		.byte	0
 1097 0085 0C       		.uleb128 0xc
 1098 0086 0D       		.uleb128 0xd
ARM GAS  /tmp/ccbIggjD.s 			page 21


 1099 0087 00       		.byte	0
 1100 0088 03       		.uleb128 0x3
 1101 0089 0E       		.uleb128 0xe
 1102 008a 3A       		.uleb128 0x3a
 1103 008b 0B       		.uleb128 0xb
 1104 008c 3B       		.uleb128 0x3b
 1105 008d 05       		.uleb128 0x5
 1106 008e 49       		.uleb128 0x49
 1107 008f 13       		.uleb128 0x13
 1108 0090 00       		.byte	0
 1109 0091 00       		.byte	0
 1110 0092 0D       		.uleb128 0xd
 1111 0093 0D       		.uleb128 0xd
 1112 0094 00       		.byte	0
 1113 0095 49       		.uleb128 0x49
 1114 0096 13       		.uleb128 0x13
 1115 0097 00       		.byte	0
 1116 0098 00       		.byte	0
 1117 0099 0E       		.uleb128 0xe
 1118 009a 0D       		.uleb128 0xd
 1119 009b 00       		.byte	0
 1120 009c 49       		.uleb128 0x49
 1121 009d 13       		.uleb128 0x13
 1122 009e 38       		.uleb128 0x38
 1123 009f 0A       		.uleb128 0xa
 1124 00a0 00       		.byte	0
 1125 00a1 00       		.byte	0
 1126 00a2 0F       		.uleb128 0xf
 1127 00a3 2E       		.uleb128 0x2e
 1128 00a4 01       		.byte	0x1
 1129 00a5 3F       		.uleb128 0x3f
 1130 00a6 0C       		.uleb128 0xc
 1131 00a7 03       		.uleb128 0x3
 1132 00a8 0E       		.uleb128 0xe
 1133 00a9 3A       		.uleb128 0x3a
 1134 00aa 0B       		.uleb128 0xb
 1135 00ab 3B       		.uleb128 0x3b
 1136 00ac 0B       		.uleb128 0xb
 1137 00ad 49       		.uleb128 0x49
 1138 00ae 13       		.uleb128 0x13
 1139 00af 11       		.uleb128 0x11
 1140 00b0 01       		.uleb128 0x1
 1141 00b1 12       		.uleb128 0x12
 1142 00b2 01       		.uleb128 0x1
 1143 00b3 40       		.uleb128 0x40
 1144 00b4 06       		.uleb128 0x6
 1145 00b5 9642     		.uleb128 0x2116
 1146 00b7 0C       		.uleb128 0xc
 1147 00b8 01       		.uleb128 0x1
 1148 00b9 13       		.uleb128 0x13
 1149 00ba 00       		.byte	0
 1150 00bb 00       		.byte	0
 1151 00bc 10       		.uleb128 0x10
 1152 00bd 34       		.uleb128 0x34
 1153 00be 00       		.byte	0
 1154 00bf 03       		.uleb128 0x3
 1155 00c0 0E       		.uleb128 0xe
ARM GAS  /tmp/ccbIggjD.s 			page 22


 1156 00c1 3A       		.uleb128 0x3a
 1157 00c2 0B       		.uleb128 0xb
 1158 00c3 3B       		.uleb128 0x3b
 1159 00c4 0B       		.uleb128 0xb
 1160 00c5 49       		.uleb128 0x49
 1161 00c6 13       		.uleb128 0x13
 1162 00c7 02       		.uleb128 0x2
 1163 00c8 0A       		.uleb128 0xa
 1164 00c9 00       		.byte	0
 1165 00ca 00       		.byte	0
 1166 00cb 11       		.uleb128 0x11
 1167 00cc 34       		.uleb128 0x34
 1168 00cd 00       		.byte	0
 1169 00ce 03       		.uleb128 0x3
 1170 00cf 08       		.uleb128 0x8
 1171 00d0 3A       		.uleb128 0x3a
 1172 00d1 0B       		.uleb128 0xb
 1173 00d2 3B       		.uleb128 0x3b
 1174 00d3 0B       		.uleb128 0xb
 1175 00d4 49       		.uleb128 0x49
 1176 00d5 13       		.uleb128 0x13
 1177 00d6 02       		.uleb128 0x2
 1178 00d7 0A       		.uleb128 0xa
 1179 00d8 00       		.byte	0
 1180 00d9 00       		.byte	0
 1181 00da 12       		.uleb128 0x12
 1182 00db 34       		.uleb128 0x34
 1183 00dc 00       		.byte	0
 1184 00dd 03       		.uleb128 0x3
 1185 00de 0E       		.uleb128 0xe
 1186 00df 3A       		.uleb128 0x3a
 1187 00e0 0B       		.uleb128 0xb
 1188 00e1 3B       		.uleb128 0x3b
 1189 00e2 05       		.uleb128 0x5
 1190 00e3 49       		.uleb128 0x49
 1191 00e4 13       		.uleb128 0x13
 1192 00e5 3F       		.uleb128 0x3f
 1193 00e6 0C       		.uleb128 0xc
 1194 00e7 3C       		.uleb128 0x3c
 1195 00e8 0C       		.uleb128 0xc
 1196 00e9 00       		.byte	0
 1197 00ea 00       		.byte	0
 1198 00eb 00       		.byte	0
 1199              		.section	.debug_loc,"",%progbits
 1200              	.Ldebug_loc0:
 1201              	.LLST0:
 1202 0000 00000000 		.4byte	.LFB40-.Ltext0
 1203 0004 02000000 		.4byte	.LCFI0-.Ltext0
 1204 0008 0200     		.2byte	0x2
 1205 000a 7D       		.byte	0x7d
 1206 000b 00       		.sleb128 0
 1207 000c 02000000 		.4byte	.LCFI0-.Ltext0
 1208 0010 04000000 		.4byte	.LCFI1-.Ltext0
 1209 0014 0200     		.2byte	0x2
 1210 0016 7D       		.byte	0x7d
 1211 0017 04       		.sleb128 4
 1212 0018 04000000 		.4byte	.LCFI1-.Ltext0
ARM GAS  /tmp/ccbIggjD.s 			page 23


 1213 001c 52000000 		.4byte	.LCFI2-.Ltext0
 1214 0020 0300     		.2byte	0x3
 1215 0022 7D       		.byte	0x7d
 1216 0023 B001     		.sleb128 176
 1217 0025 52000000 		.4byte	.LCFI2-.Ltext0
 1218 0029 56000000 		.4byte	.LFE40-.Ltext0
 1219 002d 0200     		.2byte	0x2
 1220 002f 7D       		.byte	0x7d
 1221 0030 04       		.sleb128 4
 1222 0031 00000000 		.4byte	0
 1223 0035 00000000 		.4byte	0
 1224              		.section	.debug_aranges,"",%progbits
 1225 0000 1C000000 		.4byte	0x1c
 1226 0004 0200     		.2byte	0x2
 1227 0006 00000000 		.4byte	.Ldebug_info0
 1228 000a 04       		.byte	0x4
 1229 000b 00       		.byte	0
 1230 000c 0000     		.2byte	0
 1231 000e 0000     		.2byte	0
 1232 0010 00000000 		.4byte	.Ltext0
 1233 0014 56000000 		.4byte	.Letext0-.Ltext0
 1234 0018 00000000 		.4byte	0
 1235 001c 00000000 		.4byte	0
 1236              		.section	.debug_line,"",%progbits
 1237              	.Ldebug_line0:
 1238 0000 4A010000 		.section	.debug_str,"MS",%progbits,1
 1238      02002301 
 1238      00000201 
 1238      FB0E0D00 
 1238      01010101 
 1239              	.LASF50:
 1240 0000 50494E43 		.ascii	"PINCON_TypeDef\000"
 1240      4F4E5F54 
 1240      79706544 
 1240      656600
 1241              	.LASF34:
 1242 000f 50494E4D 		.ascii	"PINMODE0\000"
 1242      4F444530 
 1242      00
 1243              	.LASF35:
 1244 0018 50494E4D 		.ascii	"PINMODE1\000"
 1244      4F444531 
 1244      00
 1245              	.LASF16:
 1246 0021 696E7438 		.ascii	"int8_t\000"
 1246      5F7400
 1247              	.LASF64:
 1248 0028 46494F4D 		.ascii	"FIOMASK\000"
 1248      41534B00 
 1249              	.LASF5:
 1250 0030 73686F72 		.ascii	"short int\000"
 1250      7420696E 
 1250      7400
 1251              	.LASF41:
 1252 003a 50494E4D 		.ascii	"PINMODE7\000"
 1252      4F444537 
 1252      00
ARM GAS  /tmp/ccbIggjD.s 			page 24


 1253              	.LASF14:
 1254 0043 73697A65 		.ascii	"sizetype\000"
 1254      74797065 
 1254      00
 1255              	.LASF43:
 1256 004c 50494E4D 		.ascii	"PINMODE9\000"
 1256      4F444539 
 1256      00
 1257              	.LASF92:
 1258 0055 6D61696E 		.ascii	"main\000"
 1258      00
 1259              	.LASF10:
 1260 005a 5F5F7569 		.ascii	"__uint32_t\000"
 1260      6E743332 
 1260      5F7400
 1261              	.LASF6:
 1262 0065 5F5F7569 		.ascii	"__uint16_t\000"
 1262      6E743136 
 1262      5F7400
 1263              	.LASF54:
 1264 0070 46494F44 		.ascii	"FIODIR1\000"
 1264      49523100 
 1265              	.LASF17:
 1266 0078 75696E74 		.ascii	"uint8_t\000"
 1266      385F7400 
 1267              	.LASF89:
 1268 0080 474E5520 		.ascii	"GNU C 4.9.3 20150529 (prerelease) -mcpu=cortex-m3 -"
 1268      4320342E 
 1268      392E3320 
 1268      32303135 
 1268      30353239 
 1269 00b3 6D746875 		.ascii	"mthumb -gdwarf-2 -O0 -std=gnu99 -fomit-frame-pointe"
 1269      6D62202D 
 1269      67647761 
 1269      72662D32 
 1269      202D4F30 
 1270 00e6 7200     		.ascii	"r\000"
 1271              	.LASF59:
 1272 00e8 46494F4D 		.ascii	"FIOMASK0\000"
 1272      41534B30 
 1272      00
 1273              	.LASF60:
 1274 00f1 46494F4D 		.ascii	"FIOMASK1\000"
 1274      41534B31 
 1274      00
 1275              	.LASF61:
 1276 00fa 46494F4D 		.ascii	"FIOMASK2\000"
 1276      41534B32 
 1276      00
 1277              	.LASF62:
 1278 0103 46494F4D 		.ascii	"FIOMASK3\000"
 1278      41534B33 
 1278      00
 1279              	.LASF85:
 1280 010c 46494F43 		.ascii	"FIOCLR\000"
 1280      4C5200
 1281              	.LASF57:
ARM GAS  /tmp/ccbIggjD.s 			page 25


 1282 0113 46494F4D 		.ascii	"FIOMASKL\000"
 1282      41534B4C 
 1282      00
 1283              	.LASF21:
 1284 011c 666C6F61 		.ascii	"float\000"
 1284      7400
 1285              	.LASF12:
 1286 0122 6C6F6E67 		.ascii	"long long int\000"
 1286      206C6F6E 
 1286      6720696E 
 1286      7400
 1287              	.LASF74:
 1288 0130 46494F53 		.ascii	"FIOSET0\000"
 1288      45543000 
 1289              	.LASF75:
 1290 0138 46494F53 		.ascii	"FIOSET1\000"
 1290      45543100 
 1291              	.LASF76:
 1292 0140 46494F53 		.ascii	"FIOSET2\000"
 1292      45543200 
 1293              	.LASF77:
 1294 0148 46494F53 		.ascii	"FIOSET3\000"
 1294      45543300 
 1295              	.LASF58:
 1296 0150 46494F4D 		.ascii	"FIOMASKH\000"
 1296      41534B48 
 1296      00
 1297              	.LASF63:
 1298 0159 46494F44 		.ascii	"FIODIR\000"
 1298      495200
 1299              	.LASF49:
 1300 0160 49324350 		.ascii	"I2CPADCFG\000"
 1300      41444346 
 1300      4700
 1301              	.LASF9:
 1302 016a 6C6F6E67 		.ascii	"long int\000"
 1302      20696E74 
 1302      00
 1303              	.LASF3:
 1304 0173 5F5F7569 		.ascii	"__uint8_t\000"
 1304      6E74385F 
 1304      7400
 1305              	.LASF44:
 1306 017d 50494E4D 		.ascii	"PINMODE_OD0\000"
 1306      4F44455F 
 1306      4F443000 
 1307              	.LASF45:
 1308 0189 50494E4D 		.ascii	"PINMODE_OD1\000"
 1308      4F44455F 
 1308      4F443100 
 1309              	.LASF46:
 1310 0195 50494E4D 		.ascii	"PINMODE_OD2\000"
 1310      4F44455F 
 1310      4F443200 
 1311              	.LASF47:
 1312 01a1 50494E4D 		.ascii	"PINMODE_OD3\000"
 1312      4F44455F 
ARM GAS  /tmp/ccbIggjD.s 			page 26


 1312      4F443300 
 1313              	.LASF48:
 1314 01ad 50494E4D 		.ascii	"PINMODE_OD4\000"
 1314      4F44455F 
 1314      4F443400 
 1315              	.LASF2:
 1316 01b9 5F5F696E 		.ascii	"__int8_t\000"
 1316      74385F74 
 1316      00
 1317              	.LASF72:
 1318 01c2 46494F53 		.ascii	"FIOSETL\000"
 1318      45544C00 
 1319              	.LASF53:
 1320 01ca 46494F44 		.ascii	"FIODIR0\000"
 1320      49523000 
 1321              	.LASF88:
 1322 01d2 50494E53 		.ascii	"PINSELECT\000"
 1322      454C4543 
 1322      5400
 1323              	.LASF55:
 1324 01dc 46494F44 		.ascii	"FIODIR2\000"
 1324      49523200 
 1325              	.LASF56:
 1326 01e4 46494F44 		.ascii	"FIODIR3\000"
 1326      49523300 
 1327              	.LASF37:
 1328 01ec 50494E4D 		.ascii	"PINMODE3\000"
 1328      4F444533 
 1328      00
 1329              	.LASF38:
 1330 01f5 50494E4D 		.ascii	"PINMODE4\000"
 1330      4F444534 
 1330      00
 1331              	.LASF39:
 1332 01fe 50494E4D 		.ascii	"PINMODE5\000"
 1332      4F444535 
 1332      00
 1333              	.LASF40:
 1334 0207 50494E4D 		.ascii	"PINMODE6\000"
 1334      4F444536 
 1334      00
 1335              	.LASF4:
 1336 0210 756E7369 		.ascii	"unsigned char\000"
 1336      676E6564 
 1336      20636861 
 1336      7200
 1337              	.LASF42:
 1338 021e 50494E4D 		.ascii	"PINMODE8\000"
 1338      4F444538 
 1338      00
 1339              	.LASF67:
 1340 0227 46494F50 		.ascii	"FIOPIN0\000"
 1340      494E3000 
 1341              	.LASF68:
 1342 022f 46494F50 		.ascii	"FIOPIN1\000"
 1342      494E3100 
 1343              	.LASF69:
ARM GAS  /tmp/ccbIggjD.s 			page 27


 1344 0237 46494F50 		.ascii	"FIOPIN2\000"
 1344      494E3200 
 1345              	.LASF70:
 1346 023f 46494F50 		.ascii	"FIOPIN3\000"
 1346      494E3300 
 1347              	.LASF1:
 1348 0247 7369676E 		.ascii	"signed char\000"
 1348      65642063 
 1348      68617200 
 1349              	.LASF13:
 1350 0253 6C6F6E67 		.ascii	"long long unsigned int\000"
 1350      206C6F6E 
 1350      6720756E 
 1350      7369676E 
 1350      65642069 
 1351              	.LASF20:
 1352 026a 75696E74 		.ascii	"uint32_t\000"
 1352      33325F74 
 1352      00
 1353              	.LASF52:
 1354 0273 46494F44 		.ascii	"FIODIRH\000"
 1354      49524800 
 1355              	.LASF18:
 1356 027b 75696E74 		.ascii	"uint16_t\000"
 1356      31365F74 
 1356      00
 1357              	.LASF51:
 1358 0284 46494F44 		.ascii	"FIODIRL\000"
 1358      49524C00 
 1359              	.LASF66:
 1360 028c 46494F50 		.ascii	"FIOPINH\000"
 1360      494E4800 
 1361              	.LASF65:
 1362 0294 46494F50 		.ascii	"FIOPINL\000"
 1362      494E4C00 
 1363              	.LASF7:
 1364 029c 73686F72 		.ascii	"short unsigned int\000"
 1364      7420756E 
 1364      7369676E 
 1364      65642069 
 1364      6E7400
 1365              	.LASF87:
 1366 02af 73746174 		.ascii	"status\000"
 1366      757300
 1367              	.LASF15:
 1368 02b6 63686172 		.ascii	"char\000"
 1368      00
 1369              	.LASF93:
 1370 02bb 49544D5F 		.ascii	"ITM_RxBuffer\000"
 1370      52784275 
 1370      66666572 
 1370      00
 1371              	.LASF19:
 1372 02c8 696E7433 		.ascii	"int32_t\000"
 1372      325F7400 
 1373              	.LASF36:
 1374 02d0 50494E4D 		.ascii	"PINMODE2\000"
ARM GAS  /tmp/ccbIggjD.s 			page 28


 1374      4F444532 
 1374      00
 1375              	.LASF32:
 1376 02d9 50494E53 		.ascii	"PINSEL10\000"
 1376      454C3130 
 1376      00
 1377              	.LASF83:
 1378 02e2 46494F43 		.ascii	"FIOCLR2\000"
 1378      4C523200 
 1379              	.LASF33:
 1380 02ea 52455345 		.ascii	"RESERVED0\000"
 1380      52564544 
 1380      3000
 1381              	.LASF11:
 1382 02f4 6C6F6E67 		.ascii	"long unsigned int\000"
 1382      20756E73 
 1382      69676E65 
 1382      6420696E 
 1382      7400
 1383              	.LASF22:
 1384 0306 50494E53 		.ascii	"PINSEL0\000"
 1384      454C3000 
 1385              	.LASF23:
 1386 030e 50494E53 		.ascii	"PINSEL1\000"
 1386      454C3100 
 1387              	.LASF24:
 1388 0316 50494E53 		.ascii	"PINSEL2\000"
 1388      454C3200 
 1389              	.LASF25:
 1390 031e 50494E53 		.ascii	"PINSEL3\000"
 1390      454C3300 
 1391              	.LASF26:
 1392 0326 50494E53 		.ascii	"PINSEL4\000"
 1392      454C3400 
 1393              	.LASF27:
 1394 032e 50494E53 		.ascii	"PINSEL5\000"
 1394      454C3500 
 1395              	.LASF28:
 1396 0336 50494E53 		.ascii	"PINSEL6\000"
 1396      454C3600 
 1397              	.LASF29:
 1398 033e 50494E53 		.ascii	"PINSEL7\000"
 1398      454C3700 
 1399              	.LASF30:
 1400 0346 50494E53 		.ascii	"PINSEL8\000"
 1400      454C3800 
 1401              	.LASF31:
 1402 034e 50494E53 		.ascii	"PINSEL9\000"
 1402      454C3900 
 1403              	.LASF8:
 1404 0356 5F5F696E 		.ascii	"__int32_t\000"
 1404      7433325F 
 1404      7400
 1405              	.LASF81:
 1406 0360 46494F43 		.ascii	"FIOCLR0\000"
 1406      4C523000 
 1407              	.LASF82:
ARM GAS  /tmp/ccbIggjD.s 			page 29


 1408 0368 46494F43 		.ascii	"FIOCLR1\000"
 1408      4C523100 
 1409              	.LASF91:
 1410 0370 2F686F6D 		.ascii	"/home/majorviraj/Desktop/Self balancing/codes/epcf_"
 1410      652F6D61 
 1410      6A6F7276 
 1410      6972616A 
 1410      2F446573 
 1411 03a3 70726F6A 		.ascii	"project/app\000"
 1411      6563742F 
 1411      61707000 
 1412              	.LASF84:
 1413 03af 46494F43 		.ascii	"FIOCLR3\000"
 1413      4C523300 
 1414              	.LASF78:
 1415 03b7 46494F53 		.ascii	"FIOSET\000"
 1415      455400
 1416              	.LASF73:
 1417 03be 46494F53 		.ascii	"FIOSETH\000"
 1417      45544800 
 1418              	.LASF0:
 1419 03c6 756E7369 		.ascii	"unsigned int\000"
 1419      676E6564 
 1419      20696E74 
 1419      00
 1420              	.LASF80:
 1421 03d3 46494F43 		.ascii	"FIOCLRH\000"
 1421      4C524800 
 1422              	.LASF71:
 1423 03db 46494F50 		.ascii	"FIOPIN\000"
 1423      494E00
 1424              	.LASF79:
 1425 03e2 46494F43 		.ascii	"FIOCLRL\000"
 1425      4C524C00 
 1426              	.LASF86:
 1427 03ea 4750494F 		.ascii	"GPIO_TypeDef\000"
 1427      5F547970 
 1427      65446566 
 1427      00
 1428              	.LASF90:
 1429 03f7 2E2F736F 		.ascii	"./source/app.c\000"
 1429      75726365 
 1429      2F617070 
 1429      2E6300
 1430              		.ident	"GCC: (15:4.9.3+svn231177-1) 4.9.3 20150529 (prerelease)"
ARM GAS  /tmp/ccbIggjD.s 			page 30


DEFINED SYMBOLS
                            *ABS*:0000000000000000 app.c
     /tmp/ccbIggjD.s:47     .text:0000000000000000 $t
     /tmp/ccbIggjD.s:52     .text:0000000000000000 main
                     .debug_frame:0000000000000010 $d

UNDEFINED SYMBOLS
appInit
