ARM GAS  /tmp/ccADbD3X.s 			page 1


   1              		.syntax unified
   2              		.cpu cortex-m3
   3              		.fpu softvfp
   4              		.eabi_attribute 20, 1	@ Tag_ABI_FP_denormal
   5              		.eabi_attribute 21, 1	@ Tag_ABI_FP_exceptions
   6              		.eabi_attribute 23, 3	@ Tag_ABI_FP_number_model
   7              		.eabi_attribute 24, 1	@ Tag_ABI_align8_needed
   8              		.eabi_attribute 25, 1	@ Tag_ABI_align8_preserved
   9              		.eabi_attribute 26, 1	@ Tag_ABI_enum_size
  10              		.eabi_attribute 30, 6	@ Tag_ABI_optimization_goals
  11              		.eabi_attribute 34, 1	@ Tag_CPU_unaligned_access
  12              		.eabi_attribute 18, 4	@ Tag_ABI_PCS_wchar_t
  13              		.file	"vectors_lpc1768.c"
  14              	@ GNU C (15:4.9.3+svn231177-1) version 4.9.3 20150529 (prerelease) (arm-none-eabi)
  15              	@	compiled by GNU C version 5.2.1 20151129, GMP version 6.1.0, MPFR version 3.1.3, MPC version 1.0.
  16              	@ warning: MPFR header version 3.1.3 differs from library version 3.1.4.
  17              	@ GGC heuristics: --param ggc-min-expand=100 --param ggc-min-heapsize=131072
  18              	@ options passed:  -I . -I ./include -I ../pcf/include -imultilib armv7-m
  19              	@ -MD Build/Obj/Debug/vectors_lpc1768.d -MF Build/.dep/vectors_lpc1768.o.d
  20              	@ -MP -MQ Build/Obj/Debug/vectors_lpc1768.o -D__USES_INITFINI__
  21              	@ ../epcf/native/port/arm/cm3/nxp/lpc1768/source/vectors_lpc1768.c
  22              	@ -mcpu=cortex-m3 -mthumb -auxbase-strip Build/Obj/Debug/vectors_lpc1768.o
  23              	@ -gdwarf-2 -O0 -Wall -Wno-cpp -std=gnu99 -fomit-frame-pointer
  24              	@ -fverbose-asm
  25              	@ options enabled:  -faggressive-loop-optimizations -fauto-inc-dec -fcommon
  26              	@ -fdelete-null-pointer-checks -fdwarf2-cfi-asm -fearly-inlining
  27              	@ -feliminate-unused-debug-types -ffunction-cse -fgcse-lm -fgnu-runtime
  28              	@ -fgnu-unique -fident -finline-atomics -fira-hoist-pressure
  29              	@ -fira-share-save-slots -fira-share-spill-slots -fivopts
  30              	@ -fkeep-static-consts -fleading-underscore -flifetime-dse -fmath-errno
  31              	@ -fmerge-debug-strings -fomit-frame-pointer -fpeephole
  32              	@ -fprefetch-loop-arrays -freg-struct-return
  33              	@ -fsched-critical-path-heuristic -fsched-dep-count-heuristic
  34              	@ -fsched-group-heuristic -fsched-interblock -fsched-last-insn-heuristic
  35              	@ -fsched-rank-heuristic -fsched-spec -fsched-spec-insn-heuristic
  36              	@ -fsched-stalled-insns-dep -fshow-column -fsigned-zeros
  37              	@ -fsplit-ivs-in-unroller -fstrict-volatile-bitfields -fsync-libcalls
  38              	@ -ftrapping-math -ftree-coalesce-vars -ftree-cselim -ftree-forwprop
  39              	@ -ftree-loop-if-convert -ftree-loop-im -ftree-loop-ivcanon
  40              	@ -ftree-loop-optimize -ftree-parallelize-loops= -ftree-phiprop
  41              	@ -ftree-reassoc -ftree-scev-cprop -funit-at-a-time -fverbose-asm
  42              	@ -fzero-initialized-in-bss -mfix-cortex-m3-ldrd -mlittle-endian -mlra
  43              	@ -mpic-data-is-text-relative -msched-prolog -mthumb -munaligned-access
  44              	@ -mvectorize-with-neon-quad
  45              	
  46              		.text
  47              	.Ltext0:
  48              		.cfi_sections	.debug_frame
  49              		.global	gVectors
  50              		.section	.vectors,"a",%progbits
  51              		.align	2
  52              		.type	gVectors, %object
  53              		.size	gVectors, 192
  54              	gVectors:
  55 0000 00000000 		.word	_estack
  56 0004 00000000 		.word	ResetHandler
  57 0008 00000000 		.word	NMI_Handler
ARM GAS  /tmp/ccADbD3X.s 			page 2


  58 000c 00000000 		.word	HardFault_Handler
  59 0010 00000000 		.word	MemManage_Handler
  60 0014 00000000 		.word	BusFault_Handler
  61 0018 00000000 		.word	UsageFault_Handler
  62 001c 00000000 		.word	0
  63 0020 00000000 		.word	0
  64 0024 00000000 		.word	0
  65 0028 00000000 		.word	0
  66 002c 00000000 		.word	SVC_Handler
  67 0030 00000000 		.word	DebugMon_Handler
  68 0034 00000000 		.word	0
  69 0038 00000000 		.word	PendSV_Handler
  70 003c 00000000 		.word	SysTick_Handler
  71 0040 00000000 		.word	WDT_IRQHandler
  72 0044 00000000 		.word	TIMER0_IRQHandler
  73 0048 00000000 		.word	TIMER1_IRQHandler
  74 004c 00000000 		.word	TIMER2_IRQHandler
  75 0050 00000000 		.word	TIMER3_IRQHandler
  76 0054 00000000 		.word	UART0_IRQHandler
  77 0058 00000000 		.word	UART1_IRQHandler
  78 005c 00000000 		.word	UART2_IRQHandler
  79 0060 00000000 		.word	UART3_IRQHandler
  80 0064 00000000 		.word	PWM_IRQHandler
  81 0068 00000000 		.word	I2C0_IRQHandler
  82 006c 00000000 		.word	I2C1_IRQHandler
  83 0070 00000000 		.word	I2C2_IRQHandler
  84 0074 00000000 		.word	SPI_IRQHandler
  85 0078 00000000 		.word	SSP0_IRQHandler
  86 007c 00000000 		.word	SSP1_IRQHandler
  87 0080 00000000 		.word	PLL0_IRQHandler
  88 0084 00000000 		.word	RTC_IRQHandler
  89 0088 00000000 		.word	EINT0_IRQHandler
  90 008c 00000000 		.word	EINT1_IRQHandler
  91 0090 00000000 		.word	EINT2_IRQHandler
  92 0094 00000000 		.word	EINT3_IRQHandler
  93 0098 00000000 		.word	ADC_IRQHandler
  94 009c 00000000 		.word	BOD_IRQHandler
  95 00a0 00000000 		.word	USB_IRQHandler
  96 00a4 00000000 		.word	CAN_IRQHandler
  97 00a8 00000000 		.word	DMA_IRQHandler
  98 00ac 00000000 		.word	I2S_IRQHandler
  99 00b0 00000000 		.word	ENET_IRQHandler
 100 00b4 00000000 		.word	RIT_IRQHandler
 101 00b8 00000000 		.word	MCPWM_IRQHandler
 102 00bc 00000000 		.word	QEI_IRQHandler
 103              		.text
 104              		.align	2
 105              		.global	ResetHandler
 106              		.thumb
 107              		.thumb_func
 108              		.type	ResetHandler, %function
 109              	ResetHandler:
 110              	.LFB40:
 111              		.file 1 "../epcf/native/port/arm/cm3/nxp/lpc1768/source/vectors_lpc1768.c"
   1:../epcf/native/port/arm/cm3/nxp/lpc1768/source/vectors_lpc1768.c **** #include "pcf.h"
   2:../epcf/native/port/arm/cm3/nxp/lpc1768/source/vectors_lpc1768.c **** 
   3:../epcf/native/port/arm/cm3/nxp/lpc1768/source/vectors_lpc1768.c **** #define __EPCF_VECTOR_LPC1768_INCLUDE PCF_CONDITIONAL_INCLUDE_FILE(EPCF_DIR_NATIVE_PATH/	\
ARM GAS  /tmp/ccADbD3X.s 			page 3


   4:../epcf/native/port/arm/cm3/nxp/lpc1768/source/vectors_lpc1768.c **** 		,port/PCF_ARCH_NAME/PCF_ARCH_VARIANT/PCF_ARCH_DEVICE_VENDOR/,PCF_ARCH_DEVICE/include/,vectors_lpc
   5:../epcf/native/port/arm/cm3/nxp/lpc1768/source/vectors_lpc1768.c **** #include __EPCF_VECTOR_LPC1768_INCLUDE
   6:../epcf/native/port/arm/cm3/nxp/lpc1768/source/vectors_lpc1768.c **** #undef __EPCF_VECTOR_LPC1768_INCLUDE
   7:../epcf/native/port/arm/cm3/nxp/lpc1768/source/vectors_lpc1768.c **** 
   8:../epcf/native/port/arm/cm3/nxp/lpc1768/source/vectors_lpc1768.c **** /*
   9:../epcf/native/port/arm/cm3/nxp/lpc1768/source/vectors_lpc1768.c ****  * The next data are defined by the linker script.
  10:../epcf/native/port/arm/cm3/nxp/lpc1768/source/vectors_lpc1768.c ****  */
  11:../epcf/native/port/arm/cm3/nxp/lpc1768/source/vectors_lpc1768.c **** extern unsigned long _stext;		/* Label to indicate start of text section */
  12:../epcf/native/port/arm/cm3/nxp/lpc1768/source/vectors_lpc1768.c **** extern unsigned long _etext;		/* Label to indicate end of text section */
  13:../epcf/native/port/arm/cm3/nxp/lpc1768/source/vectors_lpc1768.c **** extern unsigned long _sdata;		/* Label to indicate start of data section */
  14:../epcf/native/port/arm/cm3/nxp/lpc1768/source/vectors_lpc1768.c **** extern unsigned long _edata;		/* Label to indicate end of data section */
  15:../epcf/native/port/arm/cm3/nxp/lpc1768/source/vectors_lpc1768.c **** extern unsigned long _sbss;			/* Label to indicate start of bss section */
  16:../epcf/native/port/arm/cm3/nxp/lpc1768/source/vectors_lpc1768.c **** extern unsigned long _ebss;			/* Label to indicate end of bss section */
  17:../epcf/native/port/arm/cm3/nxp/lpc1768/source/vectors_lpc1768.c **** extern unsigned long _estack;		/* Label to indicate start of stack section */
  18:../epcf/native/port/arm/cm3/nxp/lpc1768/source/vectors_lpc1768.c **** 
  19:../epcf/native/port/arm/cm3/nxp/lpc1768/source/vectors_lpc1768.c **** /* This is the main */
  20:../epcf/native/port/arm/cm3/nxp/lpc1768/source/vectors_lpc1768.c **** extern int main (void);
  21:../epcf/native/port/arm/cm3/nxp/lpc1768/source/vectors_lpc1768.c **** 
  22:../epcf/native/port/arm/cm3/nxp/lpc1768/source/vectors_lpc1768.c **** /* Reset Handler		*/
  23:../epcf/native/port/arm/cm3/nxp/lpc1768/source/vectors_lpc1768.c **** void ResetHandler(void);
  24:../epcf/native/port/arm/cm3/nxp/lpc1768/source/vectors_lpc1768.c **** 
  25:../epcf/native/port/arm/cm3/nxp/lpc1768/source/vectors_lpc1768.c **** /*
  26:../epcf/native/port/arm/cm3/nxp/lpc1768/source/vectors_lpc1768.c ****  * This is our vector table.
  27:../epcf/native/port/arm/cm3/nxp/lpc1768/source/vectors_lpc1768.c ****  */
  28:../epcf/native/port/arm/cm3/nxp/lpc1768/source/vectors_lpc1768.c **** extern void (* const gVectors[])(void);
  29:../epcf/native/port/arm/cm3/nxp/lpc1768/source/vectors_lpc1768.c **** __attribute__ ((section(".vectors"), used))
  30:../epcf/native/port/arm/cm3/nxp/lpc1768/source/vectors_lpc1768.c **** void (* const gVectors[])(void) =
  31:../epcf/native/port/arm/cm3/nxp/lpc1768/source/vectors_lpc1768.c **** {
  32:../epcf/native/port/arm/cm3/nxp/lpc1768/source/vectors_lpc1768.c ****    (void (*)(void))((unsigned long)&_estack),
  33:../epcf/native/port/arm/cm3/nxp/lpc1768/source/vectors_lpc1768.c ****    ResetHandler,
  34:../epcf/native/port/arm/cm3/nxp/lpc1768/source/vectors_lpc1768.c ****    NMI_Handler,
  35:../epcf/native/port/arm/cm3/nxp/lpc1768/source/vectors_lpc1768.c ****    HardFault_Handler,
  36:../epcf/native/port/arm/cm3/nxp/lpc1768/source/vectors_lpc1768.c ****    MemManage_Handler,
  37:../epcf/native/port/arm/cm3/nxp/lpc1768/source/vectors_lpc1768.c ****    BusFault_Handler,
  38:../epcf/native/port/arm/cm3/nxp/lpc1768/source/vectors_lpc1768.c ****    UsageFault_Handler,
  39:../epcf/native/port/arm/cm3/nxp/lpc1768/source/vectors_lpc1768.c ****    0, 0, 0, 0,
  40:../epcf/native/port/arm/cm3/nxp/lpc1768/source/vectors_lpc1768.c ****    SVC_Handler,
  41:../epcf/native/port/arm/cm3/nxp/lpc1768/source/vectors_lpc1768.c ****    DebugMon_Handler,
  42:../epcf/native/port/arm/cm3/nxp/lpc1768/source/vectors_lpc1768.c ****    0,
  43:../epcf/native/port/arm/cm3/nxp/lpc1768/source/vectors_lpc1768.c ****    PendSV_Handler,
  44:../epcf/native/port/arm/cm3/nxp/lpc1768/source/vectors_lpc1768.c ****    SysTick_Handler,
  45:../epcf/native/port/arm/cm3/nxp/lpc1768/source/vectors_lpc1768.c **** 
  46:../epcf/native/port/arm/cm3/nxp/lpc1768/source/vectors_lpc1768.c ****    WDT_IRQHandler,
  47:../epcf/native/port/arm/cm3/nxp/lpc1768/source/vectors_lpc1768.c ****    TIMER0_IRQHandler,
  48:../epcf/native/port/arm/cm3/nxp/lpc1768/source/vectors_lpc1768.c ****    TIMER1_IRQHandler,
  49:../epcf/native/port/arm/cm3/nxp/lpc1768/source/vectors_lpc1768.c ****    TIMER2_IRQHandler,
  50:../epcf/native/port/arm/cm3/nxp/lpc1768/source/vectors_lpc1768.c ****    TIMER3_IRQHandler,
  51:../epcf/native/port/arm/cm3/nxp/lpc1768/source/vectors_lpc1768.c ****    UART0_IRQHandler,
  52:../epcf/native/port/arm/cm3/nxp/lpc1768/source/vectors_lpc1768.c ****    UART1_IRQHandler,
  53:../epcf/native/port/arm/cm3/nxp/lpc1768/source/vectors_lpc1768.c ****    UART2_IRQHandler,
  54:../epcf/native/port/arm/cm3/nxp/lpc1768/source/vectors_lpc1768.c ****    UART3_IRQHandler,
  55:../epcf/native/port/arm/cm3/nxp/lpc1768/source/vectors_lpc1768.c ****    PWM_IRQHandler,
  56:../epcf/native/port/arm/cm3/nxp/lpc1768/source/vectors_lpc1768.c ****    I2C0_IRQHandler,
  57:../epcf/native/port/arm/cm3/nxp/lpc1768/source/vectors_lpc1768.c ****    I2C1_IRQHandler,
  58:../epcf/native/port/arm/cm3/nxp/lpc1768/source/vectors_lpc1768.c ****    I2C2_IRQHandler,
  59:../epcf/native/port/arm/cm3/nxp/lpc1768/source/vectors_lpc1768.c ****    SPI_IRQHandler,
  60:../epcf/native/port/arm/cm3/nxp/lpc1768/source/vectors_lpc1768.c ****    SSP0_IRQHandler,
ARM GAS  /tmp/ccADbD3X.s 			page 4


  61:../epcf/native/port/arm/cm3/nxp/lpc1768/source/vectors_lpc1768.c ****    SSP1_IRQHandler,
  62:../epcf/native/port/arm/cm3/nxp/lpc1768/source/vectors_lpc1768.c ****    PLL0_IRQHandler,
  63:../epcf/native/port/arm/cm3/nxp/lpc1768/source/vectors_lpc1768.c ****    RTC_IRQHandler,
  64:../epcf/native/port/arm/cm3/nxp/lpc1768/source/vectors_lpc1768.c ****    EINT0_IRQHandler,
  65:../epcf/native/port/arm/cm3/nxp/lpc1768/source/vectors_lpc1768.c ****    EINT1_IRQHandler,
  66:../epcf/native/port/arm/cm3/nxp/lpc1768/source/vectors_lpc1768.c ****    EINT2_IRQHandler,
  67:../epcf/native/port/arm/cm3/nxp/lpc1768/source/vectors_lpc1768.c ****    EINT3_IRQHandler,
  68:../epcf/native/port/arm/cm3/nxp/lpc1768/source/vectors_lpc1768.c ****    ADC_IRQHandler,
  69:../epcf/native/port/arm/cm3/nxp/lpc1768/source/vectors_lpc1768.c ****    BOD_IRQHandler,
  70:../epcf/native/port/arm/cm3/nxp/lpc1768/source/vectors_lpc1768.c ****    USB_IRQHandler,
  71:../epcf/native/port/arm/cm3/nxp/lpc1768/source/vectors_lpc1768.c ****    CAN_IRQHandler,
  72:../epcf/native/port/arm/cm3/nxp/lpc1768/source/vectors_lpc1768.c ****    DMA_IRQHandler,
  73:../epcf/native/port/arm/cm3/nxp/lpc1768/source/vectors_lpc1768.c ****    I2S_IRQHandler,
  74:../epcf/native/port/arm/cm3/nxp/lpc1768/source/vectors_lpc1768.c ****    ENET_IRQHandler,
  75:../epcf/native/port/arm/cm3/nxp/lpc1768/source/vectors_lpc1768.c ****    RIT_IRQHandler,
  76:../epcf/native/port/arm/cm3/nxp/lpc1768/source/vectors_lpc1768.c ****    MCPWM_IRQHandler,
  77:../epcf/native/port/arm/cm3/nxp/lpc1768/source/vectors_lpc1768.c ****    QEI_IRQHandler
  78:../epcf/native/port/arm/cm3/nxp/lpc1768/source/vectors_lpc1768.c **** }; /* gVectors */
  79:../epcf/native/port/arm/cm3/nxp/lpc1768/source/vectors_lpc1768.c **** 
  80:../epcf/native/port/arm/cm3/nxp/lpc1768/source/vectors_lpc1768.c **** 
  81:../epcf/native/port/arm/cm3/nxp/lpc1768/source/vectors_lpc1768.c **** /*  This function is used for the C runtime initialisation,                
  82:../epcf/native/port/arm/cm3/nxp/lpc1768/source/vectors_lpc1768.c ****  *  for handling the .data and .bss segments.
  83:../epcf/native/port/arm/cm3/nxp/lpc1768/source/vectors_lpc1768.c ****  *
  84:../epcf/native/port/arm/cm3/nxp/lpc1768/source/vectors_lpc1768.c ****  */
  85:../epcf/native/port/arm/cm3/nxp/lpc1768/source/vectors_lpc1768.c **** void __attribute__((noreturn)) ResetHandler (void)
  86:../epcf/native/port/arm/cm3/nxp/lpc1768/source/vectors_lpc1768.c **** {
 112              		.loc 1 86 0
 113              		.cfi_startproc
 114              		@ args = 0, pretend = 0, frame = 8
 115              		@ frame_needed = 0, uses_anonymous_args = 0
 116 0000 00B5     		push	{lr}	@
 117              	.LCFI0:
 118              		.cfi_def_cfa_offset 4
 119              		.cfi_offset 14, -4
 120 0002 83B0     		sub	sp, sp, #12	@,,
 121              	.LCFI1:
 122              		.cfi_def_cfa_offset 16
  87:../epcf/native/port/arm/cm3/nxp/lpc1768/source/vectors_lpc1768.c ****    uint32_t *pSrc;
  88:../epcf/native/port/arm/cm3/nxp/lpc1768/source/vectors_lpc1768.c ****    uint32_t *pDest;
  89:../epcf/native/port/arm/cm3/nxp/lpc1768/source/vectors_lpc1768.c **** 
  90:../epcf/native/port/arm/cm3/nxp/lpc1768/source/vectors_lpc1768.c ****    /*
  91:../epcf/native/port/arm/cm3/nxp/lpc1768/source/vectors_lpc1768.c ****     * Set the "Vector Table Offset Register". From the ARM
  92:../epcf/native/port/arm/cm3/nxp/lpc1768/source/vectors_lpc1768.c ****     * documentation, we got the following information:
  93:../epcf/native/port/arm/cm3/nxp/lpc1768/source/vectors_lpc1768.c ****     *
  94:../epcf/native/port/arm/cm3/nxp/lpc1768/source/vectors_lpc1768.c ****     * Use the Vector Table Offset Register to determine:
  95:../epcf/native/port/arm/cm3/nxp/lpc1768/source/vectors_lpc1768.c ****     *  - if the vector table is in RAM or code memory
  96:../epcf/native/port/arm/cm3/nxp/lpc1768/source/vectors_lpc1768.c ****     *  - the vector table offset.
  97:../epcf/native/port/arm/cm3/nxp/lpc1768/source/vectors_lpc1768.c ****     */
  98:../epcf/native/port/arm/cm3/nxp/lpc1768/source/vectors_lpc1768.c ****    *((uint32_t*)0xE000ED08) = (uint32_t)&_stext;
 123              		.loc 1 98 0
 124 0004 114B     		ldr	r3, .L7	@ D.6335,
 125 0006 124A     		ldr	r2, .L7+4	@ D.6336,
 126 0008 1A60     		str	r2, [r3]	@ D.6336, *_4
  99:../epcf/native/port/arm/cm3/nxp/lpc1768/source/vectors_lpc1768.c **** 
 100:../epcf/native/port/arm/cm3/nxp/lpc1768/source/vectors_lpc1768.c ****    /*
 101:../epcf/native/port/arm/cm3/nxp/lpc1768/source/vectors_lpc1768.c ****     * Copy the initialized data of the ".data" segment
 102:../epcf/native/port/arm/cm3/nxp/lpc1768/source/vectors_lpc1768.c ****     * from the flash to the are in the ram.
ARM GAS  /tmp/ccADbD3X.s 			page 5


 103:../epcf/native/port/arm/cm3/nxp/lpc1768/source/vectors_lpc1768.c ****     */
 104:../epcf/native/port/arm/cm3/nxp/lpc1768/source/vectors_lpc1768.c ****    pSrc  = &_etext;
 127              		.loc 1 104 0
 128 000a 124B     		ldr	r3, .L7+8	@ tmp116,
 129 000c 0193     		str	r3, [sp, #4]	@ tmp116, pSrc
 105:../epcf/native/port/arm/cm3/nxp/lpc1768/source/vectors_lpc1768.c ****    pDest = &_sdata;
 130              		.loc 1 105 0
 131 000e 124B     		ldr	r3, .L7+12	@ tmp117,
 132 0010 0093     		str	r3, [sp]	@ tmp117, pDest
 106:../epcf/native/port/arm/cm3/nxp/lpc1768/source/vectors_lpc1768.c ****    while(pDest < &_edata)
 133              		.loc 1 106 0
 134 0012 07E0     		b	.L2	@
 135              	.L3:
 107:../epcf/native/port/arm/cm3/nxp/lpc1768/source/vectors_lpc1768.c ****    {
 108:../epcf/native/port/arm/cm3/nxp/lpc1768/source/vectors_lpc1768.c ****       *pDest++ = *pSrc++;
 136              		.loc 1 108 0
 137 0014 009B     		ldr	r3, [sp]	@ D.6335, pDest
 138 0016 1A1D     		adds	r2, r3, #4	@ tmp118, D.6335,
 139 0018 0092     		str	r2, [sp]	@ tmp118, pDest
 140 001a 019A     		ldr	r2, [sp, #4]	@ D.6335, pSrc
 141 001c 111D     		adds	r1, r2, #4	@ tmp119, D.6335,
 142 001e 0191     		str	r1, [sp, #4]	@ tmp119, pSrc
 143 0020 1268     		ldr	r2, [r2]	@ D.6336, *_10
 144 0022 1A60     		str	r2, [r3]	@ D.6336, *_8
 145              	.L2:
 106:../epcf/native/port/arm/cm3/nxp/lpc1768/source/vectors_lpc1768.c ****    while(pDest < &_edata)
 146              		.loc 1 106 0
 147 0024 009B     		ldr	r3, [sp]	@ tmp120, pDest
 148 0026 0D4A     		ldr	r2, .L7+16	@ tmp121,
 149 0028 9342     		cmp	r3, r2	@ tmp120, tmp121
 150 002a F3D3     		bcc	.L3	@,
 109:../epcf/native/port/arm/cm3/nxp/lpc1768/source/vectors_lpc1768.c ****    }
 110:../epcf/native/port/arm/cm3/nxp/lpc1768/source/vectors_lpc1768.c **** 
 111:../epcf/native/port/arm/cm3/nxp/lpc1768/source/vectors_lpc1768.c ****    /*
 112:../epcf/native/port/arm/cm3/nxp/lpc1768/source/vectors_lpc1768.c ****     * Clear the ".bss" segment.
 113:../epcf/native/port/arm/cm3/nxp/lpc1768/source/vectors_lpc1768.c ****     */
 114:../epcf/native/port/arm/cm3/nxp/lpc1768/source/vectors_lpc1768.c ****    pDest = &_sbss;
 151              		.loc 1 114 0
 152 002c 0C4B     		ldr	r3, .L7+20	@ tmp122,
 153 002e 0093     		str	r3, [sp]	@ tmp122, pDest
 115:../epcf/native/port/arm/cm3/nxp/lpc1768/source/vectors_lpc1768.c ****    while(pDest < &_ebss)
 154              		.loc 1 115 0
 155 0030 04E0     		b	.L4	@
 156              	.L5:
 116:../epcf/native/port/arm/cm3/nxp/lpc1768/source/vectors_lpc1768.c ****    {
 117:../epcf/native/port/arm/cm3/nxp/lpc1768/source/vectors_lpc1768.c ****       *pDest++ = 0;
 157              		.loc 1 117 0
 158 0032 009B     		ldr	r3, [sp]	@ D.6335, pDest
 159 0034 1A1D     		adds	r2, r3, #4	@ tmp123, D.6335,
 160 0036 0092     		str	r2, [sp]	@ tmp123, pDest
 161 0038 0022     		movs	r2, #0	@ tmp124,
 162 003a 1A60     		str	r2, [r3]	@ tmp124, *_14
 163              	.L4:
 115:../epcf/native/port/arm/cm3/nxp/lpc1768/source/vectors_lpc1768.c ****    while(pDest < &_ebss)
 164              		.loc 1 115 0
 165 003c 009B     		ldr	r3, [sp]	@ tmp125, pDest
 166 003e 094A     		ldr	r2, .L7+24	@ tmp126,
ARM GAS  /tmp/ccADbD3X.s 			page 6


 167 0040 9342     		cmp	r3, r2	@ tmp125, tmp126
 168 0042 F6D3     		bcc	.L5	@,
 118:../epcf/native/port/arm/cm3/nxp/lpc1768/source/vectors_lpc1768.c ****    }
 119:../epcf/native/port/arm/cm3/nxp/lpc1768/source/vectors_lpc1768.c **** 
 120:../epcf/native/port/arm/cm3/nxp/lpc1768/source/vectors_lpc1768.c ****    /*
 121:../epcf/native/port/arm/cm3/nxp/lpc1768/source/vectors_lpc1768.c ****     * And now the main function can be called.
 122:../epcf/native/port/arm/cm3/nxp/lpc1768/source/vectors_lpc1768.c ****     * Scotty, energie...
 123:../epcf/native/port/arm/cm3/nxp/lpc1768/source/vectors_lpc1768.c ****     */
 124:../epcf/native/port/arm/cm3/nxp/lpc1768/source/vectors_lpc1768.c ****    main();
 169              		.loc 1 124 0
 170 0044 FFF7FEFF 		bl	main	@
 171              	.L6:
 125:../epcf/native/port/arm/cm3/nxp/lpc1768/source/vectors_lpc1768.c **** 
 126:../epcf/native/port/arm/cm3/nxp/lpc1768/source/vectors_lpc1768.c ****    /*
 127:../epcf/native/port/arm/cm3/nxp/lpc1768/source/vectors_lpc1768.c ****     * In case there are problems with the
 128:../epcf/native/port/arm/cm3/nxp/lpc1768/source/vectors_lpc1768.c ****     * "warp drive", stop here.
 129:../epcf/native/port/arm/cm3/nxp/lpc1768/source/vectors_lpc1768.c ****     */
 130:../epcf/native/port/arm/cm3/nxp/lpc1768/source/vectors_lpc1768.c ****    while(1) {};
 172              		.loc 1 130 0 discriminator 1
 173 0048 FEE7     		b	.L6	@
 174              	.L8:
 175 004a 00BF     		.align	2
 176              	.L7:
 177 004c 08ED00E0 		.word	-536810232
 178 0050 00000000 		.word	_stext
 179 0054 00000000 		.word	_etext
 180 0058 00000000 		.word	_sdata
 181 005c 00000000 		.word	_edata
 182 0060 00000000 		.word	_sbss
 183 0064 00000000 		.word	_ebss
 184              		.cfi_endproc
 185              	.LFE40:
 186              		.size	ResetHandler, .-ResetHandler
 187              		.align	2
 188              		.weak	NMI_Handler
 189              		.thumb
 190              		.thumb_func
 191              		.type	NMI_Handler, %function
 192              	NMI_Handler:
 193              	.LFB41:
 131:../epcf/native/port/arm/cm3/nxp/lpc1768/source/vectors_lpc1768.c **** 
 132:../epcf/native/port/arm/cm3/nxp/lpc1768/source/vectors_lpc1768.c **** } /* ResetHandler */
 133:../epcf/native/port/arm/cm3/nxp/lpc1768/source/vectors_lpc1768.c **** 
 134:../epcf/native/port/arm/cm3/nxp/lpc1768/source/vectors_lpc1768.c **** /*
 135:../epcf/native/port/arm/cm3/nxp/lpc1768/source/vectors_lpc1768.c ****  * And here are the weak interrupt handlers.
 136:../epcf/native/port/arm/cm3/nxp/lpc1768/source/vectors_lpc1768.c ****  *
 137:../epcf/native/port/arm/cm3/nxp/lpc1768/source/vectors_lpc1768.c ****  */
 138:../epcf/native/port/arm/cm3/nxp/lpc1768/source/vectors_lpc1768.c **** void __attribute__((weak, noreturn)) NMI_Handler (void) { while(1); }
 194              		.loc 1 138 0
 195              		.cfi_startproc
 196              		@ args = 0, pretend = 0, frame = 0
 197              		@ frame_needed = 0, uses_anonymous_args = 0
 198              		@ link register save eliminated.
 199              	.L10:
 200              		.loc 1 138 0 discriminator 1
 201 0068 FEE7     		b	.L10	@
 202              		.cfi_endproc
ARM GAS  /tmp/ccADbD3X.s 			page 7


 203              	.LFE41:
 204              		.size	NMI_Handler, .-NMI_Handler
 205 006a 00BF     		.align	2
 206              		.weak	HardFault_Handler
 207              		.thumb
 208              		.thumb_func
 209              		.type	HardFault_Handler, %function
 210              	HardFault_Handler:
 211              	.LFB42:
 139:../epcf/native/port/arm/cm3/nxp/lpc1768/source/vectors_lpc1768.c **** void __attribute__((weak, noreturn)) HardFault_Handler (void) { while(1); }
 212              		.loc 1 139 0
 213              		.cfi_startproc
 214              		@ args = 0, pretend = 0, frame = 0
 215              		@ frame_needed = 0, uses_anonymous_args = 0
 216              		@ link register save eliminated.
 217              	.L12:
 218              		.loc 1 139 0 discriminator 1
 219 006c FEE7     		b	.L12	@
 220              		.cfi_endproc
 221              	.LFE42:
 222              		.size	HardFault_Handler, .-HardFault_Handler
 223 006e 00BF     		.align	2
 224              		.weak	MemManage_Handler
 225              		.thumb
 226              		.thumb_func
 227              		.type	MemManage_Handler, %function
 228              	MemManage_Handler:
 229              	.LFB43:
 140:../epcf/native/port/arm/cm3/nxp/lpc1768/source/vectors_lpc1768.c **** void __attribute__((weak, noreturn)) MemManage_Handler (void) { while(1); }
 230              		.loc 1 140 0
 231              		.cfi_startproc
 232              		@ args = 0, pretend = 0, frame = 0
 233              		@ frame_needed = 0, uses_anonymous_args = 0
 234              		@ link register save eliminated.
 235              	.L14:
 236              		.loc 1 140 0 discriminator 1
 237 0070 FEE7     		b	.L14	@
 238              		.cfi_endproc
 239              	.LFE43:
 240              		.size	MemManage_Handler, .-MemManage_Handler
 241 0072 00BF     		.align	2
 242              		.weak	BusFault_Handler
 243              		.thumb
 244              		.thumb_func
 245              		.type	BusFault_Handler, %function
 246              	BusFault_Handler:
 247              	.LFB44:
 141:../epcf/native/port/arm/cm3/nxp/lpc1768/source/vectors_lpc1768.c **** void __attribute__((weak, noreturn)) BusFault_Handler (void) { while(1); }
 248              		.loc 1 141 0
 249              		.cfi_startproc
 250              		@ args = 0, pretend = 0, frame = 0
 251              		@ frame_needed = 0, uses_anonymous_args = 0
 252              		@ link register save eliminated.
 253              	.L16:
 254              		.loc 1 141 0 discriminator 1
 255 0074 FEE7     		b	.L16	@
 256              		.cfi_endproc
ARM GAS  /tmp/ccADbD3X.s 			page 8


 257              	.LFE44:
 258              		.size	BusFault_Handler, .-BusFault_Handler
 259 0076 00BF     		.align	2
 260              		.weak	UsageFault_Handler
 261              		.thumb
 262              		.thumb_func
 263              		.type	UsageFault_Handler, %function
 264              	UsageFault_Handler:
 265              	.LFB45:
 142:../epcf/native/port/arm/cm3/nxp/lpc1768/source/vectors_lpc1768.c **** void __attribute__((weak, noreturn)) UsageFault_Handler (void) { while(1); }
 266              		.loc 1 142 0
 267              		.cfi_startproc
 268              		@ args = 0, pretend = 0, frame = 0
 269              		@ frame_needed = 0, uses_anonymous_args = 0
 270              		@ link register save eliminated.
 271              	.L18:
 272              		.loc 1 142 0 discriminator 1
 273 0078 FEE7     		b	.L18	@
 274              		.cfi_endproc
 275              	.LFE45:
 276              		.size	UsageFault_Handler, .-UsageFault_Handler
 277 007a 00BF     		.align	2
 278              		.weak	SVC_Handler
 279              		.thumb
 280              		.thumb_func
 281              		.type	SVC_Handler, %function
 282              	SVC_Handler:
 283              	.LFB46:
 143:../epcf/native/port/arm/cm3/nxp/lpc1768/source/vectors_lpc1768.c **** void __attribute__((weak, noreturn)) SVC_Handler (void) { while(1); }
 284              		.loc 1 143 0
 285              		.cfi_startproc
 286              		@ args = 0, pretend = 0, frame = 0
 287              		@ frame_needed = 0, uses_anonymous_args = 0
 288              		@ link register save eliminated.
 289              	.L20:
 290              		.loc 1 143 0 discriminator 1
 291 007c FEE7     		b	.L20	@
 292              		.cfi_endproc
 293              	.LFE46:
 294              		.size	SVC_Handler, .-SVC_Handler
 295 007e 00BF     		.align	2
 296              		.weak	DebugMon_Handler
 297              		.thumb
 298              		.thumb_func
 299              		.type	DebugMon_Handler, %function
 300              	DebugMon_Handler:
 301              	.LFB47:
 144:../epcf/native/port/arm/cm3/nxp/lpc1768/source/vectors_lpc1768.c **** void __attribute__((weak, noreturn)) DebugMon_Handler (void) { while(1); }
 302              		.loc 1 144 0
 303              		.cfi_startproc
 304              		@ args = 0, pretend = 0, frame = 0
 305              		@ frame_needed = 0, uses_anonymous_args = 0
 306              		@ link register save eliminated.
 307              	.L22:
 308              		.loc 1 144 0 discriminator 1
 309 0080 FEE7     		b	.L22	@
 310              		.cfi_endproc
ARM GAS  /tmp/ccADbD3X.s 			page 9


 311              	.LFE47:
 312              		.size	DebugMon_Handler, .-DebugMon_Handler
 313 0082 00BF     		.align	2
 314              		.weak	PendSV_Handler
 315              		.thumb
 316              		.thumb_func
 317              		.type	PendSV_Handler, %function
 318              	PendSV_Handler:
 319              	.LFB48:
 145:../epcf/native/port/arm/cm3/nxp/lpc1768/source/vectors_lpc1768.c **** void __attribute__((weak, noreturn)) PendSV_Handler (void) { while(1); }
 320              		.loc 1 145 0
 321              		.cfi_startproc
 322              		@ args = 0, pretend = 0, frame = 0
 323              		@ frame_needed = 0, uses_anonymous_args = 0
 324              		@ link register save eliminated.
 325              	.L24:
 326              		.loc 1 145 0 discriminator 1
 327 0084 FEE7     		b	.L24	@
 328              		.cfi_endproc
 329              	.LFE48:
 330              		.size	PendSV_Handler, .-PendSV_Handler
 331 0086 00BF     		.align	2
 332              		.weak	SysTick_Handler
 333              		.thumb
 334              		.thumb_func
 335              		.type	SysTick_Handler, %function
 336              	SysTick_Handler:
 337              	.LFB49:
 146:../epcf/native/port/arm/cm3/nxp/lpc1768/source/vectors_lpc1768.c **** void __attribute__((weak, noreturn)) SysTick_Handler (void) { while(1); }
 338              		.loc 1 146 0
 339              		.cfi_startproc
 340              		@ args = 0, pretend = 0, frame = 0
 341              		@ frame_needed = 0, uses_anonymous_args = 0
 342              		@ link register save eliminated.
 343              	.L26:
 344              		.loc 1 146 0 discriminator 1
 345 0088 FEE7     		b	.L26	@
 346              		.cfi_endproc
 347              	.LFE49:
 348              		.size	SysTick_Handler, .-SysTick_Handler
 349 008a 00BF     		.align	2
 350              		.weak	WDT_IRQHandler
 351              		.thumb
 352              		.thumb_func
 353              		.type	WDT_IRQHandler, %function
 354              	WDT_IRQHandler:
 355              	.LFB50:
 147:../epcf/native/port/arm/cm3/nxp/lpc1768/source/vectors_lpc1768.c **** 
 148:../epcf/native/port/arm/cm3/nxp/lpc1768/source/vectors_lpc1768.c **** void __attribute__((weak, noreturn)) WDT_IRQHandler (void) { while(1); }
 356              		.loc 1 148 0
 357              		.cfi_startproc
 358              		@ args = 0, pretend = 0, frame = 0
 359              		@ frame_needed = 0, uses_anonymous_args = 0
 360              		@ link register save eliminated.
 361              	.L28:
 362              		.loc 1 148 0 discriminator 1
 363 008c FEE7     		b	.L28	@
ARM GAS  /tmp/ccADbD3X.s 			page 10


 364              		.cfi_endproc
 365              	.LFE50:
 366              		.size	WDT_IRQHandler, .-WDT_IRQHandler
 367 008e 00BF     		.align	2
 368              		.weak	TIMER0_IRQHandler
 369              		.thumb
 370              		.thumb_func
 371              		.type	TIMER0_IRQHandler, %function
 372              	TIMER0_IRQHandler:
 373              	.LFB51:
 149:../epcf/native/port/arm/cm3/nxp/lpc1768/source/vectors_lpc1768.c **** void __attribute__((weak, noreturn)) TIMER0_IRQHandler (void) { while(1); }
 374              		.loc 1 149 0
 375              		.cfi_startproc
 376              		@ args = 0, pretend = 0, frame = 0
 377              		@ frame_needed = 0, uses_anonymous_args = 0
 378              		@ link register save eliminated.
 379              	.L30:
 380              		.loc 1 149 0 discriminator 1
 381 0090 FEE7     		b	.L30	@
 382              		.cfi_endproc
 383              	.LFE51:
 384              		.size	TIMER0_IRQHandler, .-TIMER0_IRQHandler
 385 0092 00BF     		.align	2
 386              		.weak	TIMER1_IRQHandler
 387              		.thumb
 388              		.thumb_func
 389              		.type	TIMER1_IRQHandler, %function
 390              	TIMER1_IRQHandler:
 391              	.LFB52:
 150:../epcf/native/port/arm/cm3/nxp/lpc1768/source/vectors_lpc1768.c **** void __attribute__((weak, noreturn)) TIMER1_IRQHandler (void) { while(1); }
 392              		.loc 1 150 0
 393              		.cfi_startproc
 394              		@ args = 0, pretend = 0, frame = 0
 395              		@ frame_needed = 0, uses_anonymous_args = 0
 396              		@ link register save eliminated.
 397              	.L32:
 398              		.loc 1 150 0 discriminator 1
 399 0094 FEE7     		b	.L32	@
 400              		.cfi_endproc
 401              	.LFE52:
 402              		.size	TIMER1_IRQHandler, .-TIMER1_IRQHandler
 403 0096 00BF     		.align	2
 404              		.weak	TIMER2_IRQHandler
 405              		.thumb
 406              		.thumb_func
 407              		.type	TIMER2_IRQHandler, %function
 408              	TIMER2_IRQHandler:
 409              	.LFB53:
 151:../epcf/native/port/arm/cm3/nxp/lpc1768/source/vectors_lpc1768.c **** void __attribute__((weak, noreturn)) TIMER2_IRQHandler (void) { while(1); }
 410              		.loc 1 151 0
 411              		.cfi_startproc
 412              		@ args = 0, pretend = 0, frame = 0
 413              		@ frame_needed = 0, uses_anonymous_args = 0
 414              		@ link register save eliminated.
 415              	.L34:
 416              		.loc 1 151 0 discriminator 1
 417 0098 FEE7     		b	.L34	@
ARM GAS  /tmp/ccADbD3X.s 			page 11


 418              		.cfi_endproc
 419              	.LFE53:
 420              		.size	TIMER2_IRQHandler, .-TIMER2_IRQHandler
 421 009a 00BF     		.align	2
 422              		.weak	TIMER3_IRQHandler
 423              		.thumb
 424              		.thumb_func
 425              		.type	TIMER3_IRQHandler, %function
 426              	TIMER3_IRQHandler:
 427              	.LFB54:
 152:../epcf/native/port/arm/cm3/nxp/lpc1768/source/vectors_lpc1768.c **** void __attribute__((weak, noreturn)) TIMER3_IRQHandler (void) { while(1); }
 428              		.loc 1 152 0
 429              		.cfi_startproc
 430              		@ args = 0, pretend = 0, frame = 0
 431              		@ frame_needed = 0, uses_anonymous_args = 0
 432              		@ link register save eliminated.
 433              	.L36:
 434              		.loc 1 152 0 discriminator 1
 435 009c FEE7     		b	.L36	@
 436              		.cfi_endproc
 437              	.LFE54:
 438              		.size	TIMER3_IRQHandler, .-TIMER3_IRQHandler
 439 009e 00BF     		.align	2
 440              		.weak	UART0_IRQHandler
 441              		.thumb
 442              		.thumb_func
 443              		.type	UART0_IRQHandler, %function
 444              	UART0_IRQHandler:
 445              	.LFB55:
 153:../epcf/native/port/arm/cm3/nxp/lpc1768/source/vectors_lpc1768.c **** void __attribute__((weak, noreturn)) UART0_IRQHandler (void) { while(1); }
 446              		.loc 1 153 0
 447              		.cfi_startproc
 448              		@ args = 0, pretend = 0, frame = 0
 449              		@ frame_needed = 0, uses_anonymous_args = 0
 450              		@ link register save eliminated.
 451              	.L38:
 452              		.loc 1 153 0 discriminator 1
 453 00a0 FEE7     		b	.L38	@
 454              		.cfi_endproc
 455              	.LFE55:
 456              		.size	UART0_IRQHandler, .-UART0_IRQHandler
 457 00a2 00BF     		.align	2
 458              		.weak	UART1_IRQHandler
 459              		.thumb
 460              		.thumb_func
 461              		.type	UART1_IRQHandler, %function
 462              	UART1_IRQHandler:
 463              	.LFB56:
 154:../epcf/native/port/arm/cm3/nxp/lpc1768/source/vectors_lpc1768.c **** void __attribute__((weak, noreturn)) UART1_IRQHandler (void) { while(1); }
 464              		.loc 1 154 0
 465              		.cfi_startproc
 466              		@ args = 0, pretend = 0, frame = 0
 467              		@ frame_needed = 0, uses_anonymous_args = 0
 468              		@ link register save eliminated.
 469              	.L40:
 470              		.loc 1 154 0 discriminator 1
 471 00a4 FEE7     		b	.L40	@
ARM GAS  /tmp/ccADbD3X.s 			page 12


 472              		.cfi_endproc
 473              	.LFE56:
 474              		.size	UART1_IRQHandler, .-UART1_IRQHandler
 475 00a6 00BF     		.align	2
 476              		.weak	UART2_IRQHandler
 477              		.thumb
 478              		.thumb_func
 479              		.type	UART2_IRQHandler, %function
 480              	UART2_IRQHandler:
 481              	.LFB57:
 155:../epcf/native/port/arm/cm3/nxp/lpc1768/source/vectors_lpc1768.c **** void __attribute__((weak, noreturn)) UART2_IRQHandler (void) { while(1); }
 482              		.loc 1 155 0
 483              		.cfi_startproc
 484              		@ args = 0, pretend = 0, frame = 0
 485              		@ frame_needed = 0, uses_anonymous_args = 0
 486              		@ link register save eliminated.
 487              	.L42:
 488              		.loc 1 155 0 discriminator 1
 489 00a8 FEE7     		b	.L42	@
 490              		.cfi_endproc
 491              	.LFE57:
 492              		.size	UART2_IRQHandler, .-UART2_IRQHandler
 493 00aa 00BF     		.align	2
 494              		.weak	UART3_IRQHandler
 495              		.thumb
 496              		.thumb_func
 497              		.type	UART3_IRQHandler, %function
 498              	UART3_IRQHandler:
 499              	.LFB58:
 156:../epcf/native/port/arm/cm3/nxp/lpc1768/source/vectors_lpc1768.c **** void __attribute__((weak, noreturn)) UART3_IRQHandler (void) { while(1); }
 500              		.loc 1 156 0
 501              		.cfi_startproc
 502              		@ args = 0, pretend = 0, frame = 0
 503              		@ frame_needed = 0, uses_anonymous_args = 0
 504              		@ link register save eliminated.
 505              	.L44:
 506              		.loc 1 156 0 discriminator 1
 507 00ac FEE7     		b	.L44	@
 508              		.cfi_endproc
 509              	.LFE58:
 510              		.size	UART3_IRQHandler, .-UART3_IRQHandler
 511 00ae 00BF     		.align	2
 512              		.weak	PWM_IRQHandler
 513              		.thumb
 514              		.thumb_func
 515              		.type	PWM_IRQHandler, %function
 516              	PWM_IRQHandler:
 517              	.LFB59:
 157:../epcf/native/port/arm/cm3/nxp/lpc1768/source/vectors_lpc1768.c **** void __attribute__((weak, noreturn)) PWM_IRQHandler (void) { while(1); }
 518              		.loc 1 157 0
 519              		.cfi_startproc
 520              		@ args = 0, pretend = 0, frame = 0
 521              		@ frame_needed = 0, uses_anonymous_args = 0
 522              		@ link register save eliminated.
 523              	.L46:
 524              		.loc 1 157 0 discriminator 1
 525 00b0 FEE7     		b	.L46	@
ARM GAS  /tmp/ccADbD3X.s 			page 13


 526              		.cfi_endproc
 527              	.LFE59:
 528              		.size	PWM_IRQHandler, .-PWM_IRQHandler
 529 00b2 00BF     		.align	2
 530              		.weak	I2C0_IRQHandler
 531              		.thumb
 532              		.thumb_func
 533              		.type	I2C0_IRQHandler, %function
 534              	I2C0_IRQHandler:
 535              	.LFB60:
 158:../epcf/native/port/arm/cm3/nxp/lpc1768/source/vectors_lpc1768.c **** void __attribute__((weak, noreturn)) I2C0_IRQHandler (void) { while(1); }
 536              		.loc 1 158 0
 537              		.cfi_startproc
 538              		@ args = 0, pretend = 0, frame = 0
 539              		@ frame_needed = 0, uses_anonymous_args = 0
 540              		@ link register save eliminated.
 541              	.L48:
 542              		.loc 1 158 0 discriminator 1
 543 00b4 FEE7     		b	.L48	@
 544              		.cfi_endproc
 545              	.LFE60:
 546              		.size	I2C0_IRQHandler, .-I2C0_IRQHandler
 547 00b6 00BF     		.align	2
 548              		.weak	I2C1_IRQHandler
 549              		.thumb
 550              		.thumb_func
 551              		.type	I2C1_IRQHandler, %function
 552              	I2C1_IRQHandler:
 553              	.LFB61:
 159:../epcf/native/port/arm/cm3/nxp/lpc1768/source/vectors_lpc1768.c **** void __attribute__((weak, noreturn)) I2C1_IRQHandler (void) { while(1); }
 554              		.loc 1 159 0
 555              		.cfi_startproc
 556              		@ args = 0, pretend = 0, frame = 0
 557              		@ frame_needed = 0, uses_anonymous_args = 0
 558              		@ link register save eliminated.
 559              	.L50:
 560              		.loc 1 159 0 discriminator 1
 561 00b8 FEE7     		b	.L50	@
 562              		.cfi_endproc
 563              	.LFE61:
 564              		.size	I2C1_IRQHandler, .-I2C1_IRQHandler
 565 00ba 00BF     		.align	2
 566              		.weak	I2C2_IRQHandler
 567              		.thumb
 568              		.thumb_func
 569              		.type	I2C2_IRQHandler, %function
 570              	I2C2_IRQHandler:
 571              	.LFB62:
 160:../epcf/native/port/arm/cm3/nxp/lpc1768/source/vectors_lpc1768.c **** void __attribute__((weak, noreturn)) I2C2_IRQHandler (void) { while(1); }
 572              		.loc 1 160 0
 573              		.cfi_startproc
 574              		@ args = 0, pretend = 0, frame = 0
 575              		@ frame_needed = 0, uses_anonymous_args = 0
 576              		@ link register save eliminated.
 577              	.L52:
 578              		.loc 1 160 0 discriminator 1
 579 00bc FEE7     		b	.L52	@
ARM GAS  /tmp/ccADbD3X.s 			page 14


 580              		.cfi_endproc
 581              	.LFE62:
 582              		.size	I2C2_IRQHandler, .-I2C2_IRQHandler
 583 00be 00BF     		.align	2
 584              		.weak	SPI_IRQHandler
 585              		.thumb
 586              		.thumb_func
 587              		.type	SPI_IRQHandler, %function
 588              	SPI_IRQHandler:
 589              	.LFB63:
 161:../epcf/native/port/arm/cm3/nxp/lpc1768/source/vectors_lpc1768.c **** void __attribute__((weak, noreturn)) SPI_IRQHandler (void) { while(1); }
 590              		.loc 1 161 0
 591              		.cfi_startproc
 592              		@ args = 0, pretend = 0, frame = 0
 593              		@ frame_needed = 0, uses_anonymous_args = 0
 594              		@ link register save eliminated.
 595              	.L54:
 596              		.loc 1 161 0 discriminator 1
 597 00c0 FEE7     		b	.L54	@
 598              		.cfi_endproc
 599              	.LFE63:
 600              		.size	SPI_IRQHandler, .-SPI_IRQHandler
 601 00c2 00BF     		.align	2
 602              		.weak	SSP0_IRQHandler
 603              		.thumb
 604              		.thumb_func
 605              		.type	SSP0_IRQHandler, %function
 606              	SSP0_IRQHandler:
 607              	.LFB64:
 162:../epcf/native/port/arm/cm3/nxp/lpc1768/source/vectors_lpc1768.c **** void __attribute__((weak, noreturn)) SSP0_IRQHandler (void) { while(1); }
 608              		.loc 1 162 0
 609              		.cfi_startproc
 610              		@ args = 0, pretend = 0, frame = 0
 611              		@ frame_needed = 0, uses_anonymous_args = 0
 612              		@ link register save eliminated.
 613              	.L56:
 614              		.loc 1 162 0 discriminator 1
 615 00c4 FEE7     		b	.L56	@
 616              		.cfi_endproc
 617              	.LFE64:
 618              		.size	SSP0_IRQHandler, .-SSP0_IRQHandler
 619 00c6 00BF     		.align	2
 620              		.weak	SSP1_IRQHandler
 621              		.thumb
 622              		.thumb_func
 623              		.type	SSP1_IRQHandler, %function
 624              	SSP1_IRQHandler:
 625              	.LFB65:
 163:../epcf/native/port/arm/cm3/nxp/lpc1768/source/vectors_lpc1768.c **** void __attribute__((weak, noreturn)) SSP1_IRQHandler (void) { while(1); }
 626              		.loc 1 163 0
 627              		.cfi_startproc
 628              		@ args = 0, pretend = 0, frame = 0
 629              		@ frame_needed = 0, uses_anonymous_args = 0
 630              		@ link register save eliminated.
 631              	.L58:
 632              		.loc 1 163 0 discriminator 1
 633 00c8 FEE7     		b	.L58	@
ARM GAS  /tmp/ccADbD3X.s 			page 15


 634              		.cfi_endproc
 635              	.LFE65:
 636              		.size	SSP1_IRQHandler, .-SSP1_IRQHandler
 637 00ca 00BF     		.align	2
 638              		.weak	PLL0_IRQHandler
 639              		.thumb
 640              		.thumb_func
 641              		.type	PLL0_IRQHandler, %function
 642              	PLL0_IRQHandler:
 643              	.LFB66:
 164:../epcf/native/port/arm/cm3/nxp/lpc1768/source/vectors_lpc1768.c **** void __attribute__((weak, noreturn)) PLL0_IRQHandler (void) { while(1); }
 644              		.loc 1 164 0
 645              		.cfi_startproc
 646              		@ args = 0, pretend = 0, frame = 0
 647              		@ frame_needed = 0, uses_anonymous_args = 0
 648              		@ link register save eliminated.
 649              	.L60:
 650              		.loc 1 164 0 discriminator 1
 651 00cc FEE7     		b	.L60	@
 652              		.cfi_endproc
 653              	.LFE66:
 654              		.size	PLL0_IRQHandler, .-PLL0_IRQHandler
 655 00ce 00BF     		.align	2
 656              		.weak	RTC_IRQHandler
 657              		.thumb
 658              		.thumb_func
 659              		.type	RTC_IRQHandler, %function
 660              	RTC_IRQHandler:
 661              	.LFB67:
 165:../epcf/native/port/arm/cm3/nxp/lpc1768/source/vectors_lpc1768.c **** void __attribute__((weak, noreturn)) RTC_IRQHandler (void) { while(1); }
 662              		.loc 1 165 0
 663              		.cfi_startproc
 664              		@ args = 0, pretend = 0, frame = 0
 665              		@ frame_needed = 0, uses_anonymous_args = 0
 666              		@ link register save eliminated.
 667              	.L62:
 668              		.loc 1 165 0 discriminator 1
 669 00d0 FEE7     		b	.L62	@
 670              		.cfi_endproc
 671              	.LFE67:
 672              		.size	RTC_IRQHandler, .-RTC_IRQHandler
 673 00d2 00BF     		.align	2
 674              		.weak	EINT0_IRQHandler
 675              		.thumb
 676              		.thumb_func
 677              		.type	EINT0_IRQHandler, %function
 678              	EINT0_IRQHandler:
 679              	.LFB68:
 166:../epcf/native/port/arm/cm3/nxp/lpc1768/source/vectors_lpc1768.c **** void __attribute__((weak, noreturn)) EINT0_IRQHandler (void) { while(1); }
 680              		.loc 1 166 0
 681              		.cfi_startproc
 682              		@ args = 0, pretend = 0, frame = 0
 683              		@ frame_needed = 0, uses_anonymous_args = 0
 684              		@ link register save eliminated.
 685              	.L64:
 686              		.loc 1 166 0 discriminator 1
 687 00d4 FEE7     		b	.L64	@
ARM GAS  /tmp/ccADbD3X.s 			page 16


 688              		.cfi_endproc
 689              	.LFE68:
 690              		.size	EINT0_IRQHandler, .-EINT0_IRQHandler
 691 00d6 00BF     		.align	2
 692              		.weak	EINT1_IRQHandler
 693              		.thumb
 694              		.thumb_func
 695              		.type	EINT1_IRQHandler, %function
 696              	EINT1_IRQHandler:
 697              	.LFB69:
 167:../epcf/native/port/arm/cm3/nxp/lpc1768/source/vectors_lpc1768.c **** void __attribute__((weak, noreturn)) EINT1_IRQHandler (void) { while(1); }
 698              		.loc 1 167 0
 699              		.cfi_startproc
 700              		@ args = 0, pretend = 0, frame = 0
 701              		@ frame_needed = 0, uses_anonymous_args = 0
 702              		@ link register save eliminated.
 703              	.L66:
 704              		.loc 1 167 0 discriminator 1
 705 00d8 FEE7     		b	.L66	@
 706              		.cfi_endproc
 707              	.LFE69:
 708              		.size	EINT1_IRQHandler, .-EINT1_IRQHandler
 709 00da 00BF     		.align	2
 710              		.weak	EINT2_IRQHandler
 711              		.thumb
 712              		.thumb_func
 713              		.type	EINT2_IRQHandler, %function
 714              	EINT2_IRQHandler:
 715              	.LFB70:
 168:../epcf/native/port/arm/cm3/nxp/lpc1768/source/vectors_lpc1768.c **** void __attribute__((weak, noreturn)) EINT2_IRQHandler (void) { while(1); }
 716              		.loc 1 168 0
 717              		.cfi_startproc
 718              		@ args = 0, pretend = 0, frame = 0
 719              		@ frame_needed = 0, uses_anonymous_args = 0
 720              		@ link register save eliminated.
 721              	.L68:
 722              		.loc 1 168 0 discriminator 1
 723 00dc FEE7     		b	.L68	@
 724              		.cfi_endproc
 725              	.LFE70:
 726              		.size	EINT2_IRQHandler, .-EINT2_IRQHandler
 727 00de 00BF     		.align	2
 728              		.weak	EINT3_IRQHandler
 729              		.thumb
 730              		.thumb_func
 731              		.type	EINT3_IRQHandler, %function
 732              	EINT3_IRQHandler:
 733              	.LFB71:
 169:../epcf/native/port/arm/cm3/nxp/lpc1768/source/vectors_lpc1768.c **** void __attribute__((weak, noreturn)) EINT3_IRQHandler (void) { while(1); }
 734              		.loc 1 169 0
 735              		.cfi_startproc
 736              		@ args = 0, pretend = 0, frame = 0
 737              		@ frame_needed = 0, uses_anonymous_args = 0
 738              		@ link register save eliminated.
 739              	.L70:
 740              		.loc 1 169 0 discriminator 1
 741 00e0 FEE7     		b	.L70	@
ARM GAS  /tmp/ccADbD3X.s 			page 17


 742              		.cfi_endproc
 743              	.LFE71:
 744              		.size	EINT3_IRQHandler, .-EINT3_IRQHandler
 745 00e2 00BF     		.align	2
 746              		.weak	ADC_IRQHandler
 747              		.thumb
 748              		.thumb_func
 749              		.type	ADC_IRQHandler, %function
 750              	ADC_IRQHandler:
 751              	.LFB72:
 170:../epcf/native/port/arm/cm3/nxp/lpc1768/source/vectors_lpc1768.c **** void __attribute__((weak, noreturn)) ADC_IRQHandler (void) { while(1); }
 752              		.loc 1 170 0
 753              		.cfi_startproc
 754              		@ args = 0, pretend = 0, frame = 0
 755              		@ frame_needed = 0, uses_anonymous_args = 0
 756              		@ link register save eliminated.
 757              	.L72:
 758              		.loc 1 170 0 discriminator 1
 759 00e4 FEE7     		b	.L72	@
 760              		.cfi_endproc
 761              	.LFE72:
 762              		.size	ADC_IRQHandler, .-ADC_IRQHandler
 763 00e6 00BF     		.align	2
 764              		.weak	BOD_IRQHandler
 765              		.thumb
 766              		.thumb_func
 767              		.type	BOD_IRQHandler, %function
 768              	BOD_IRQHandler:
 769              	.LFB73:
 171:../epcf/native/port/arm/cm3/nxp/lpc1768/source/vectors_lpc1768.c **** void __attribute__((weak, noreturn)) BOD_IRQHandler (void) { while(1); }
 770              		.loc 1 171 0
 771              		.cfi_startproc
 772              		@ args = 0, pretend = 0, frame = 0
 773              		@ frame_needed = 0, uses_anonymous_args = 0
 774              		@ link register save eliminated.
 775              	.L74:
 776              		.loc 1 171 0 discriminator 1
 777 00e8 FEE7     		b	.L74	@
 778              		.cfi_endproc
 779              	.LFE73:
 780              		.size	BOD_IRQHandler, .-BOD_IRQHandler
 781 00ea 00BF     		.align	2
 782              		.weak	USB_IRQHandler
 783              		.thumb
 784              		.thumb_func
 785              		.type	USB_IRQHandler, %function
 786              	USB_IRQHandler:
 787              	.LFB74:
 172:../epcf/native/port/arm/cm3/nxp/lpc1768/source/vectors_lpc1768.c **** void __attribute__((weak, noreturn)) USB_IRQHandler (void) { while(1); }
 788              		.loc 1 172 0
 789              		.cfi_startproc
 790              		@ args = 0, pretend = 0, frame = 0
 791              		@ frame_needed = 0, uses_anonymous_args = 0
 792              		@ link register save eliminated.
 793              	.L76:
 794              		.loc 1 172 0 discriminator 1
 795 00ec FEE7     		b	.L76	@
ARM GAS  /tmp/ccADbD3X.s 			page 18


 796              		.cfi_endproc
 797              	.LFE74:
 798              		.size	USB_IRQHandler, .-USB_IRQHandler
 799 00ee 00BF     		.align	2
 800              		.weak	CAN_IRQHandler
 801              		.thumb
 802              		.thumb_func
 803              		.type	CAN_IRQHandler, %function
 804              	CAN_IRQHandler:
 805              	.LFB75:
 173:../epcf/native/port/arm/cm3/nxp/lpc1768/source/vectors_lpc1768.c **** void __attribute__((weak, noreturn)) CAN_IRQHandler (void) { while(1); }
 806              		.loc 1 173 0
 807              		.cfi_startproc
 808              		@ args = 0, pretend = 0, frame = 0
 809              		@ frame_needed = 0, uses_anonymous_args = 0
 810              		@ link register save eliminated.
 811              	.L78:
 812              		.loc 1 173 0 discriminator 1
 813 00f0 FEE7     		b	.L78	@
 814              		.cfi_endproc
 815              	.LFE75:
 816              		.size	CAN_IRQHandler, .-CAN_IRQHandler
 817 00f2 00BF     		.align	2
 818              		.weak	DMA_IRQHandler
 819              		.thumb
 820              		.thumb_func
 821              		.type	DMA_IRQHandler, %function
 822              	DMA_IRQHandler:
 823              	.LFB76:
 174:../epcf/native/port/arm/cm3/nxp/lpc1768/source/vectors_lpc1768.c **** void __attribute__((weak, noreturn)) DMA_IRQHandler (void) { while(1); }
 824              		.loc 1 174 0
 825              		.cfi_startproc
 826              		@ args = 0, pretend = 0, frame = 0
 827              		@ frame_needed = 0, uses_anonymous_args = 0
 828              		@ link register save eliminated.
 829              	.L80:
 830              		.loc 1 174 0 discriminator 1
 831 00f4 FEE7     		b	.L80	@
 832              		.cfi_endproc
 833              	.LFE76:
 834              		.size	DMA_IRQHandler, .-DMA_IRQHandler
 835 00f6 00BF     		.align	2
 836              		.weak	I2S_IRQHandler
 837              		.thumb
 838              		.thumb_func
 839              		.type	I2S_IRQHandler, %function
 840              	I2S_IRQHandler:
 841              	.LFB77:
 175:../epcf/native/port/arm/cm3/nxp/lpc1768/source/vectors_lpc1768.c **** void __attribute__((weak, noreturn)) I2S_IRQHandler (void) { while(1); }
 842              		.loc 1 175 0
 843              		.cfi_startproc
 844              		@ args = 0, pretend = 0, frame = 0
 845              		@ frame_needed = 0, uses_anonymous_args = 0
 846              		@ link register save eliminated.
 847              	.L82:
 848              		.loc 1 175 0 discriminator 1
 849 00f8 FEE7     		b	.L82	@
ARM GAS  /tmp/ccADbD3X.s 			page 19


 850              		.cfi_endproc
 851              	.LFE77:
 852              		.size	I2S_IRQHandler, .-I2S_IRQHandler
 853 00fa 00BF     		.align	2
 854              		.weak	ENET_IRQHandler
 855              		.thumb
 856              		.thumb_func
 857              		.type	ENET_IRQHandler, %function
 858              	ENET_IRQHandler:
 859              	.LFB78:
 176:../epcf/native/port/arm/cm3/nxp/lpc1768/source/vectors_lpc1768.c **** void __attribute__((weak, noreturn)) ENET_IRQHandler (void) { while(1); }
 860              		.loc 1 176 0
 861              		.cfi_startproc
 862              		@ args = 0, pretend = 0, frame = 0
 863              		@ frame_needed = 0, uses_anonymous_args = 0
 864              		@ link register save eliminated.
 865              	.L84:
 866              		.loc 1 176 0 discriminator 1
 867 00fc FEE7     		b	.L84	@
 868              		.cfi_endproc
 869              	.LFE78:
 870              		.size	ENET_IRQHandler, .-ENET_IRQHandler
 871 00fe 00BF     		.align	2
 872              		.weak	RIT_IRQHandler
 873              		.thumb
 874              		.thumb_func
 875              		.type	RIT_IRQHandler, %function
 876              	RIT_IRQHandler:
 877              	.LFB79:
 177:../epcf/native/port/arm/cm3/nxp/lpc1768/source/vectors_lpc1768.c **** void __attribute__((weak, noreturn)) RIT_IRQHandler (void) { while(1); }
 878              		.loc 1 177 0
 879              		.cfi_startproc
 880              		@ args = 0, pretend = 0, frame = 0
 881              		@ frame_needed = 0, uses_anonymous_args = 0
 882              		@ link register save eliminated.
 883              	.L86:
 884              		.loc 1 177 0 discriminator 1
 885 0100 FEE7     		b	.L86	@
 886              		.cfi_endproc
 887              	.LFE79:
 888              		.size	RIT_IRQHandler, .-RIT_IRQHandler
 889 0102 00BF     		.align	2
 890              		.weak	MCPWM_IRQHandler
 891              		.thumb
 892              		.thumb_func
 893              		.type	MCPWM_IRQHandler, %function
 894              	MCPWM_IRQHandler:
 895              	.LFB80:
 178:../epcf/native/port/arm/cm3/nxp/lpc1768/source/vectors_lpc1768.c **** void __attribute__((weak, noreturn)) MCPWM_IRQHandler (void) { while(1); }
 896              		.loc 1 178 0
 897              		.cfi_startproc
 898              		@ args = 0, pretend = 0, frame = 0
 899              		@ frame_needed = 0, uses_anonymous_args = 0
 900              		@ link register save eliminated.
 901              	.L88:
 902              		.loc 1 178 0 discriminator 1
 903 0104 FEE7     		b	.L88	@
ARM GAS  /tmp/ccADbD3X.s 			page 20


 904              		.cfi_endproc
 905              	.LFE80:
 906              		.size	MCPWM_IRQHandler, .-MCPWM_IRQHandler
 907 0106 00BF     		.align	2
 908              		.weak	QEI_IRQHandler
 909              		.thumb
 910              		.thumb_func
 911              		.type	QEI_IRQHandler, %function
 912              	QEI_IRQHandler:
 913              	.LFB81:
 179:../epcf/native/port/arm/cm3/nxp/lpc1768/source/vectors_lpc1768.c **** void __attribute__((weak, noreturn)) QEI_IRQHandler (void) { while(1); }
 914              		.loc 1 179 0
 915              		.cfi_startproc
 916              		@ args = 0, pretend = 0, frame = 0
 917              		@ frame_needed = 0, uses_anonymous_args = 0
 918              		@ link register save eliminated.
 919              	.L90:
 920              		.loc 1 179 0 discriminator 1
 921 0108 FEE7     		b	.L90	@
 922              		.cfi_endproc
 923              	.LFE81:
 924              		.size	QEI_IRQHandler, .-QEI_IRQHandler
 925              	.Letext0:
 926              		.file 2 "/usr/include/newlib/machine/_default_types.h"
 927              		.file 3 "/usr/include/newlib/sys/_stdint.h"
 928              		.file 4 "../pcf/include/private/arch/arm/cm3/nxp/lpc1768/./../../../../arm/cm3/nxp/lpc1768/lpc1768