ARM GAS  /tmp/ccADbD3X.s 			page 1


   1              		.syntax unified
   2              		.cpu cortex-m3
   3              		.fpu softvfp
   4              		.eabi_attribute 20, 1	@ Tag_ABI_FP_denormal
   5              		.eabi_attribute 21, 1	@ Tag_ABI_FP_exceptions
   6              		.eabi_attribute 23, 3	@ Tag_ABI_FP_number_model
   7              		.eabi_attribute 24, 1	@ Tag_ABI_align8_needed
   8              		.eabi_attribute 25, 1	@ Tag_ABI_align8_preserved
   9              		.eabi_attribute 26, 1	@ Tag_ABI_enum_size
  10              		.eabi_attribute 30, 6	@ Tag_ABI_optimization_goals
  11              		.eabi_attribute 34, 1	@ Tag_CPU_unaligned_access
  12              		.eabi_attribute 18, 4	@ Tag_ABI_PCS_wchar_t
  13              		.file	"vectors_lpc1768.c"
  14              	@ GNU C (15:4.9.3+svn231177-1) version 4.9.3 20150529 (prerelease) (arm-none-eabi)
  15              	@	compiled by GNU C version 5.2.1 20151129, GMP version 6.1.0, MPFR version 3.1.3, MPC version 1.0.
  16              	@ warning: MPFR header version 3.1.3 differs from library version 3.1.4.
  17              	@ GGC heuristics: --param ggc-min-expand=100 --param ggc-min-heapsize=131072
  18              	@ options passed:  -I . -I ./include -I ../pcf/include -imultilib armv7-m
  19              	@ -MD Build/Obj/Debug/vectors_lpc1768.d -MF Build/.dep/vectors_lpc1768.o.d
  20              	@ -MP -MQ Build/Obj/Debug/vectors_lpc1768.o -D__USES_INITFINI__
  21              	@ ../epcf/native/port/arm/cm3/nxp/lpc1768/source/vectors_lpc1768.c
  22              	@ -mcpu=cortex-m3 -mthumb -auxbase-strip Build/Obj/Debug/vectors_lpc1768.o
  23              	@ -gdwarf-2 -O0 -Wall -Wno-cpp -std=gnu99 -fomit-frame-pointer
  24              	@ -fverbose-asm
  25              	@ options enabled:  -faggressive-loop-optimizations -fauto-inc-dec -fcommon
  26              	@ -fdelete-null-pointer-checks -fdwarf2-cfi-asm -fearly-inlining
  27              	@ -feliminate-unused-debug-types -ffunction-cse -fgcse-lm -fgnu-runtime
  28              	@ -fgnu-unique -fident -finline-atomics -fira-hoist-pressure
  29              	@ -fira-share-save-slots -fira-share-spill-slots -fivopts
  30              	@ -fkeep-static-consts -fleading-underscore -flifetime-dse -fmath-errno
  31              	@ -fmerge-debug-strings -fomit-frame-pointer -fpeephole
  32              	@ -fprefetch-loop-arrays -freg-struct-return
  33              	@ -fsched-critical-path-heuristic -fsched-dep-count-heuristic
  34              	@ -fsched-group-heuristic -fsched-interblock -fsched-last-insn-heuristic
  35              	@ -fsched-rank-heuristic -fsched-spec -fsched-spec-insn-heuristic
  36              	@ -fsched-stalled-insns-dep -fshow-column -fsigned-zeros
  37              	@ -fsplit-ivs-in-unroller -fstrict-volatile-bitfields -fsync-libcalls
  38              	@ -ftrapping-math -ftree-coalesce-vars -ftree-cselim -ftree-forwprop
  39              	@ -ftree-loop-if-convert -ftree-loop-im -ftree-loop-ivcanon
  40              	@ -ftree-loop-optimize -ftree-parallelize-loops= -ftree-phiprop
  41              	@ -ftree-reassoc -ftree-scev-cprop -funit-at-a-time -fverbose-asm
  42              	@ -fzero-initialized-in-bss -mfix-cortex-m3-ldrd -mlittle-endian -mlra
  43              	@ -mpic-data-is-text-relative -msched-prolog -mthumb -munaligned-access
  44              	@ -mvectorize-with-neon-quad
  45              	
  46              		.text
  47              	.Ltext0:
  48              		.cfi_sections	.debug_frame
  49              		.global	gVectors
  50              		.section	.vectors,"a",%progbits
  51              		.align	2
  52              		.type	gVectors, %object
  53              		.size	gVectors, 192
  54              	gVectors:
  55 0000 00000000 		.word	_estack
  56 0004 00000000 		.word	ResetHandler
  57 0008 00000000 		.word	NMI_Handler
ARM GAS  /tmp/ccADbD3X.s 			page 2


  58 000c 00000000 		.word	HardFault_Handler
  59 0010 00000000 		.word	MemManage_Handler
  60 0014 00000000 		.word	BusFault_Handler
  61 0018 00000000 		.word	UsageFault_Handler
  62 001c 00000000 		.word	0
  63 0020 00000000 		.word	0
  64 0024 00000000 		.word	0
  65 0028 00000000 		.word	0
  66 002c 00000000 		.word	SVC_Handler
  67 0030 00000000 		.word	DebugMon_Handler
  68 0034 00000000 		.word	0
  69 0038 00000000 		.word	PendSV_Handler
  70 003c 00000000 		.word	SysTick_Handler
  71 0040 00000000 		.word	WDT_IRQHandler
  72 0044 00000000 		.word	TIMER0_IRQHandler
  73 0048 00000000 		.word	TIMER1_IRQHandler
  74 004c 00000000 		.word	TIMER2_IRQHandler
  75 0050 00000000 		.word	TIMER3_IRQHandler
  76 0054 00000000 		.word	UART0_IRQHandler
  77 0058 00000000 		.word	UART1_IRQHandler
  78 005c 00000000 		.word	UART2_IRQHandler
  79 0060 00000000 		.word	UART3_IRQHandler
  80 0064 00000000 		.word	PWM_IRQHandler
  81 0068 00000000 		.word	I2C0_IRQHandler
  82 006c 00000000 		.word	I2C1_IRQHandler
  83 0070 00000000 		.word	I2C2_IRQHandler
  84 0074 00000000 		.word	SPI_IRQHandler
  85 0078 00000000 		.word	SSP0_IRQHandler
  86 007c 00000000 		.word	SSP1_IRQHandler
  87 0080 00000000 		.word	PLL0_IRQHandler
  88 0084 00000000 		.word	RTC_IRQHandler
  89 0088 00000000 		.word	EINT0_IRQHandler
  90 008c 00000000 		.word	EINT1_IRQHandler
  91 0090 00000000 		.word	EINT2_IRQHandler
  92 0094 00000000 		.word	EINT3_IRQHandler
  93 0098 00000000 		.word	ADC_IRQHandler
  94 009c 00000000 		.word	BOD_IRQHandler
  95 00a0 00000000 		.word	USB_IRQHandler
  96 00a4 00000000 		.word	CAN_IRQHandler
  97 00a8 00000000 		.word	DMA_IRQHandler
  98 00ac 00000000 		.word	I2S_IRQHandler
  99 00b0 00000000 		.word	ENET_IRQHandler
 100 00b4 00000000 		.word	RIT_IRQHandler
 101 00b8 00000000 		.word	MCPWM_IRQHandler
 102 00bc 00000000 		.word	QEI_IRQHandler
 103              		.text
 104              		.align	2
 105              		.global	ResetHandler
 106              		.thumb
 107              		.thumb_func
 108              		.type	ResetHandler, %function
 109              	ResetHandler:
 110              	.LFB40:
 111              		.file 1 "../epcf/native/port/arm/cm3/nxp/lpc1768/source/vectors_lpc1768.c"
   1:../epcf/native/port/arm/cm3/nxp/lpc1768/source/vectors_lpc1768.c **** #include "pcf.h"
   2:../epcf/native/port/arm/cm3/nxp/lpc1768/source/vectors_lpc1768.c **** 
   3:../epcf/native/port/arm/cm3/nxp/lpc1768/source/vectors_lpc1768.c **** #define __EPCF_VECTOR_LPC1768_INCLUDE PCF_CONDITIONAL_INCLUDE_FILE(EPCF_DIR_NATIVE_PATH/	\
ARM GAS  /tmp/ccADbD3X.s 			page 3


   4:../epcf/native/port/arm/cm3/nxp/lpc1768/source/vectors_lpc1768.c **** 		,port/PCF_ARCH_NAME/PCF_ARCH_VARIANT/PCF_ARCH_DEVICE_VENDOR/,PCF_ARCH_DEVICE/include/,vectors_lpc
   5:../epcf/native/port/arm/cm3/nxp/lpc1768/source/vectors_lpc1768.c **** #include __EPCF_VECTOR_LPC1768_INCLUDE
   6:../epcf/native/port/arm/cm3/nxp/lpc1768/source/vectors_lpc1768.c **** #undef __EPCF_VECTOR_LPC1768_INCLUDE
   7:../epcf/native/port/arm/cm3/nxp/lpc1768/source/vectors_lpc1768.c **** 
   8:../epcf/native/port/arm/cm3/nxp/lpc1768/source/vectors_lpc1768.c **** /*
   9:../epcf/native/port/arm/cm3/nxp/lpc1768/source/vectors_lpc1768.c ****  * The next data are defined by the linker script.
  10:../epcf/native/port/arm/cm3/nxp/lpc1768/source/vectors_lpc1768.c ****  */
  11:../epcf/native/port/arm/cm3/nxp/lpc1768/source/vectors_lpc1768.c **** extern unsigned long _stext;		/* Label to indicate start of text section */
  12:../epcf/native/port/arm/cm3/nxp/lpc1768/source/vectors_lpc1768.c **** extern unsigned long _etext;		/* Label to indicate end of text section */
  13:../epcf/native/port/arm/cm3/nxp/lpc1768/source/vectors_lpc1768.c **** extern unsigned long _sdata;		/* Label to indicate start of data section */
  14:../epcf/native/port/arm/cm3/nxp/lpc1768/source/vectors_lpc1768.c **** extern unsigned long _edata;		/* Label to indicate end of data section */
  15:../epcf/native/port/arm/cm3/nxp/lpc1768/source/vectors_lpc1768.c **** extern unsigned long _sbss;			/* Label to indicate start of bss section */
  16:../epcf/native/port/arm/cm3/nxp/lpc1768/source/vectors_lpc1768.c **** extern unsigned long _ebss;			/* Label to indicate end of bss section */
  17:../epcf/native/port/arm/cm3/nxp/lpc1768/source/vectors_lpc1768.c **** extern unsigned long _estack;		/* Label to indicate start of stack section */
  18:../epcf/native/port/arm/cm3/nxp/lpc1768/source/vectors_lpc1768.c **** 
  19:../epcf/native/port/arm/cm3/nxp/lpc1768/source/vectors_lpc1768.c **** /* This is the main */
  20:../epcf/native/port/arm/cm3/nxp/lpc1768/source/vectors_lpc1768.c **** extern int main (void);
  21:../epcf/native/port/arm/cm3/nxp/lpc1768/source/vectors_lpc1768.c **** 
  22:../epcf/native/port/arm/cm3/nxp/lpc1768/source/vectors_lpc1768.c **** /* Reset Handler		*/
  23:../epcf/native/port/arm/cm3/nxp/lpc1768/source/vectors_lpc1768.c **** void ResetHandler(void);
  24:../epcf/native/port/arm/cm3/nxp/lpc1768/source/vectors_lpc1768.c **** 
  25:../epcf/native/port/arm/cm3/nxp/lpc1768/source/vectors_lpc1768.c **** /*
  26:../epcf/native/port/arm/cm3/nxp/lpc1768/source/vectors_lpc1768.c ****  * This is our vector table.
  27:../epcf/native/port/arm/cm3/nxp/lpc1768/source/vectors_lpc1768.c ****  */
  28:../epcf/native/port/arm/cm3/nxp/lpc1768/source/vectors_lpc1768.c **** extern void (* const gVectors[])(void);
  29:../epcf/native/port/arm/cm3/nxp/lpc1768/source/vectors_lpc1768.c **** __attribute__ ((section(".vectors"), used))
  30:../epcf/native/port/arm/cm3/nxp/lpc1768/source/vectors_lpc1768.c **** void (* const gVectors[])(void) =
  31:../epcf/native/port/arm/cm3/nxp/lpc1768/source/vectors_lpc1768.c **** {
  32:../epcf/native/port/arm/cm3/nxp/lpc1768/source/vectors_lpc1768.c ****    (void (*)(void))((unsigned long)&_estack),
  33:../epcf/native/port/arm/cm3/nxp/lpc1768/source/vectors_lpc1768.c ****    ResetHandler,
  34:../epcf/native/port/arm/cm3/nxp/lpc1768/source/vectors_lpc1768.c ****    NMI_Handler,
  35:../epcf/native/port/arm/cm3/nxp/lpc1768/source/vectors_lpc1768.c ****    HardFault_Handler,
  36:../epcf/native/port/arm/cm3/nxp/lpc1768/source/vectors_lpc1768.c ****    MemManage_Handler,
  37:../epcf/native/port/arm/cm3/nxp/lpc1768/source/vectors_lpc1768.c ****    BusFault_Handler,
  38:../epcf/native/port/arm/cm3/nxp/lpc1768/source/vectors_lpc1768.c ****    UsageFault_Handler,
  39:../epcf/native/port/arm/cm3/nxp/lpc1768/source/vectors_lpc1768.c ****    0, 0, 0, 0,
  40:../epcf/native/port/arm/cm3/nxp/lpc1768/source/vectors_lpc1768.c ****    SVC_Handler,
  41:../epcf/native/port/arm/cm3/nxp/lpc1768/source/vectors_lpc1768.c ****    DebugMon_Handler,
  42:../epcf/native/port/arm/cm3/nxp/lpc1768/source/vectors_lpc1768.c ****    0,
  43:../epcf/native/port/arm/cm3/nxp/lpc1768/source/vectors_lpc1768.c ****    PendSV_Handler,
  44:../epcf/native/port/arm/cm3/nxp/lpc1768/source/vectors_lpc1768.c ****    SysTick_Handler,
  45:../epcf/native/port/arm/cm3/nxp/lpc1768/source/vectors_lpc1768.c **** 
  46:../epcf/native/port/arm/cm3/nxp/lpc1768/source/vectors_lpc1768.c ****    WDT_IRQHandler,
  47:../epcf/native/port/arm/cm3/nxp/lpc1768/source/vectors_lpc1768.c ****    TIMER0_IRQHandler,
  48:../epcf/native/port/arm/cm3/nxp/lpc1768/source/vectors_lpc1768.c ****    TIMER1_IRQHandler,
  49:../epcf/native/port/arm/cm3/nxp/lpc1768/source/vectors_lpc1768.c ****    TIMER2_IRQHandler,
  50:../epcf/native/port/arm/cm3/nxp/lpc1768/source/vectors_lpc1768.c ****    TIMER3_IRQHandler,
  51:../epcf/native/port/arm/cm3/nxp/lpc1768/source/vectors_lpc1768.c ****    UART0_IRQHandler,
  52:../epcf/native/port/arm/cm3/nxp/lpc1768/source/vectors_lpc1768.c ****    UART1_IRQHandler,
  53:../epcf/native/port/arm/cm3/nxp/lpc1768/source/vectors_lpc1768.c ****    UART2_IRQHandler,
  54:../epcf/native/port/arm/cm3/nxp/lpc1768/source/vectors_lpc1768.c ****    UART3_IRQHandler,
  55:../epcf/native/port/arm/cm3/nxp/lpc1768/source/vectors_lpc1768.c ****    PWM_IRQHandler,
  56:../epcf/native/port/arm/cm3/nxp/lpc1768/source/vectors_lpc1768.c ****    I2C0_IRQHandler,
  57:../epcf/native/port/arm/cm3/nxp/lpc1768/source/vectors_lpc1768.c ****    I2C1_IRQHandler,
  58:../epcf/native/port/arm/cm3/nxp/lpc1768/source/vectors_lpc1768.c ****    I2C2_IRQHandler,
  59:../epcf/native/port/arm/cm3/nxp/lpc1768/source/vectors_lpc1768.c ****    SPI_IRQHandler,
  60:../epcf/native/port/arm/cm3/nxp/lpc1768/source/vectors_lpc1768.c ****    SSP0_IRQHandler,
ARM GAS  /tmp/ccADbD3X.s 			page 4


  61:../epcf/native/port/arm/cm3/nxp/lpc1768/source/vectors_lpc1768.c ****    SSP1_IRQHandler,
  62:../epcf/native/port/arm/cm3/nxp/lpc1768/source/vectors_lpc1768.c ****    PLL0_IRQHandler,
  63:../epcf/native/port/arm/cm3/nxp/lpc1768/source/vectors_lpc1768.c ****    RTC_IRQHandler,
  64:../epcf/native/port/arm/cm3/nxp/lpc1768/source/vectors_lpc1768.c ****    EINT0_IRQHandler,
  65:../epcf/native/port/arm/cm3/nxp/lpc1768/source/vectors_lpc1768.c ****    EINT1_IRQHandler,
  66:../epcf/native/port/arm/cm3/nxp/lpc1768/source/vectors_lpc1768.c ****    EINT2_IRQHandler,
  67:../epcf/native/port/arm/cm3/nxp/lpc1768/source/vectors_lpc1768.c ****    EINT3_IRQHandler,
  68:../epcf/native/port/arm/cm3/nxp/lpc1768/source/vectors_lpc1768.c ****    ADC_IRQHandler,
  69:../epcf/native/port/arm/cm3/nxp/lpc1768/source/vectors_lpc1768.c ****    BOD_IRQHandler,
  70:../epcf/native/port/arm/cm3/nxp/lpc1768/source/vectors_lpc1768.c ****    USB_IRQHandler,
  71:../epcf/native/port/arm/cm3/nxp/lpc1768/source/vectors_lpc1768.c ****    CAN_IRQHandler,
  72:../epcf/native/port/arm/cm3/nxp/lpc1768/source/vectors_lpc1768.c ****    DMA_IRQHandler,
  73:../epcf/native/port/arm/cm3/nxp/lpc1768/source/vectors_lpc1768.c ****    I2S_IRQHandler,
  74:../epcf/native/port/arm/cm3/nxp/lpc1768/source/vectors_lpc1768.c ****    ENET_IRQHandler,
  75:../epcf/native/port/arm/cm3/nxp/lpc1768/source/vectors_lpc1768.c ****    RIT_IRQHandler,
  76:../epcf/native/port/arm/cm3/nxp/lpc1768/source/vectors_lpc1768.c ****    MCPWM_IRQHandler,
  77:../epcf/native/port/arm/cm3/nxp/lpc1768/source/vectors_lpc1768.c ****    QEI_IRQHandler
  78:../epcf/native/port/arm/cm3/nxp/lpc1768/source/vectors_lpc1768.c **** }; /* gVectors */
  79:../epcf/native/port/arm/cm3/nxp/lpc1768/source/vectors_lpc1768.c **** 
  80:../epcf/native/port/arm/cm3/nxp/lpc1768/source/vectors_lpc1768.c **** 
  81:../epcf/native/port/arm/cm3/nxp/lpc1768/source/vectors_lpc1768.c **** /*  This function is used for the C runtime initialisation,                
  82:../epcf/native/port/arm/cm3/nxp/lpc1768/source/vectors_lpc1768.c ****  *  for handling the .data and .bss segments.
  83:../epcf/native/port/arm/cm3/nxp/lpc1768/source/vectors_lpc1768.c ****  *
  84:../epcf/native/port/arm/cm3/nxp/lpc1768/source/vectors_lpc1768.c ****  */
  85:../epcf/native/port/arm/cm3/nxp/lpc1768/source/vectors_lpc1768.c **** void __attribute__((noreturn)) ResetHandler (void)
  86:../epcf/native/port/arm/cm3/nxp/lpc1768/source/vectors_lpc1768.c **** {
 112              		.loc 1 86 0
 113              		.cfi_startproc
 114              		@ args = 0, pretend = 0, frame = 8
 115              		@ frame_needed = 0, uses_anonymous_args = 0
 116 0000 00B5     		push	{lr}	@
 117              	.LCFI0:
 118              		.cfi_def_cfa_offset 4
 119              		.cfi_offset 14, -4
 120 0002 83B0     		sub	sp, sp, #12	@,,
 121              	.LCFI1:
 122              		.cfi_def_cfa_offset 16
  87:../epcf/native/port/arm/cm3/nxp/lpc1768/source/vectors_lpc1768.c ****    uint32_t *pSrc;
  88:../epcf/native/port/arm/cm3/nxp/lpc1768/source/vectors_lpc1768.c ****    uint32_t *pDest;
  89:../epcf/native/port/arm/cm3/nxp/lpc1768/source/vectors_lpc1768.c **** 
  90:../epcf/native/port/arm/cm3/nxp/lpc1768/source/vectors_lpc1768.c ****    /*
  91:../epcf/native/port/arm/cm3/nxp/lpc1768/source/vectors_lpc1768.c ****     * Set the "Vector Table Offset Register". From the ARM
  92:../epcf/native/port/arm/cm3/nxp/lpc1768/source/vectors_lpc1768.c ****     * documentation, we got the following information:
  93:../epcf/native/port/arm/cm3/nxp/lpc1768/source/vectors_lpc1768.c ****     *
  94:../epcf/native/port/arm/cm3/nxp/lpc1768/source/vectors_lpc1768.c ****     * Use the Vector Table Offset Register to determine:
  95:../epcf/native/port/arm/cm3/nxp/lpc1768/source/vectors_lpc1768.c ****     *  - if the vector table is in RAM or code memory
  96:../epcf/native/port/arm/cm3/nxp/lpc1768/source/vectors_lpc1768.c ****     *  - the vector table offset.
  97:../epcf/native/port/arm/cm3/nxp/lpc1768/source/vectors_lpc1768.c ****     */
  98:../epcf/native/port/arm/cm3/nxp/lpc1768/source/vectors_lpc1768.c ****    *((uint32_t*)0xE000ED08) = (uint32_t)&_stext;
 123              		.loc 1 98 0
 124 0004 114B     		ldr	r3, .L7	@ D.6335,
 125 0006 124A     		ldr	r2, .L7+4	@ D.6336,
 126 0008 1A60     		str	r2, [r3]	@ D.6336, *_4
  99:../epcf/native/port/arm/cm3/nxp/lpc1768/source/vectors_lpc1768.c **** 
 100:../epcf/native/port/arm/cm3/nxp/lpc1768/source/vectors_lpc1768.c ****    /*
 101:../epcf/native/port/arm/cm3/nxp/lpc1768/source/vectors_lpc1768.c ****     * Copy the initialized data of the ".data" segment
 102:../epcf/native/port/arm/cm3/nxp/lpc1768/source/vectors_lpc1768.c ****     * from the flash to the are in the ram.
ARM GAS  /tmp/ccADbD3X.s 			page 5


 103:../epcf/native/port/arm/cm3/nxp/lpc1768/source/vectors_lpc1768.c ****     */
 104:../epcf/native/port/arm/cm3/nxp/lpc1768/source/vectors_lpc1768.c ****    pSrc  = &_etext;
 127              		.loc 1 104 0
 128 000a 124B     		ldr	r3, .L7+8	@ tmp116,
 129 000c 0193     		str	r3, [sp, #4]	@ tmp116, pSrc
 105:../epcf/native/port/arm/cm3/nxp/lpc1768/source/vectors_lpc1768.c ****    pDest = &_sdata;
 130              		.loc 1 105 0
 131 000e 124B     		ldr	r3, .L7+12	@ tmp117,
 132 0010 0093     		str	r3, [sp]	@ tmp117, pDest
 106:../epcf/native/port/arm/cm3/nxp/lpc1768/source/vectors_lpc1768.c ****    while(pDest < &_edata)
 133              		.loc 1 106 0
 134 0012 07E0     		b	.L2	@
 135              	.L3:
 107:../epcf/native/port/arm/cm3/nxp/lpc1768/source/vectors_lpc1768.c ****    {
 108:../epcf/native/port/arm/cm3/nxp/lpc1768/source/vectors_lpc1768.c ****       *pDest++ = *pSrc++;
 136              		.loc 1 108 0
 137 0014 009B     		ldr	r3, [sp]	@ D.6335, pDest
 138 0016 1A1D     		adds	r2, r3, #4	@ tmp118, D.6335,
 139 0018 0092     		str	r2, [sp]	@ tmp118, pDest
 140 001a 019A     		ldr	r2, [sp, #4]	@ D.6335, pSrc
 141 001c 111D     		adds	r1, r2, #4	@ tmp119, D.6335,
 142 001e 0191     		str	r1, [sp, #4]	@ tmp119, pSrc
 143 0020 1268     		ldr	r2, [r2]	@ D.6336, *_10
 144 0022 1A60     		str	r2, [r3]	@ D.6336, *_8
 145              	.L2:
 106:../epcf/native/port/arm/cm3/nxp/lpc1768/source/vectors_lpc1768.c ****    while(pDest < &_edata)
 146              		.loc 1 106 0
 147 0024 009B     		ldr	r3, [sp]	@ tmp120, pDest
 148 0026 0D4A     		ldr	r2, .L7+16	@ tmp121,
 149 0028 9342     		cmp	r3, r2	@ tmp120, tmp121
 150 002a F3D3     		bcc	.L3	@,
 109:../epcf/native/port/arm/cm3/nxp/lpc1768/source/vectors_lpc1768.c ****    }
 110:../epcf/native/port/arm/cm3/nxp/lpc1768/source/vectors_lpc1768.c **** 
 111:../epcf/native/port/arm/cm3/nxp/lpc1768/source/vectors_lpc1768.c ****    /*
 112:../epcf/native/port/arm/cm3/nxp/lpc1768/source/vectors_lpc1768.c ****     * Clear the ".bss" segment.
 113:../epcf/native/port/arm/cm3/nxp/lpc1768/source/vectors_lpc1768.c ****     */
 114:../epcf/native/port/arm/cm3/nxp/lpc1768/source/vectors_lpc1768.c ****    pDest = &_sbss;
 151              		.loc 1 114 0
 152 002c 0C4B     		ldr	r3, .L7+20	@ tmp122,
 153 002e 0093     		str	r3, [sp]	@ tmp122, pDest
 115:../epcf/native/port/arm/cm3/nxp/lpc1768/source/vectors_lpc1768.c ****    while(pDest < &_ebss)
 154              		.loc 1 115 0
 155 0030 04E0     		b	.L4	@
 156              	.L5:
 116:../epcf/native/port/arm/cm3/nxp/lpc1768/source/vectors_lpc1768.c ****    {
 117:../epcf/native/port/arm/cm3/nxp/lpc1768/source/vectors_lpc1768.c ****       *pDest++ = 0;
 157              		.loc 1 117 0
 158 0032 009B     		ldr	r3, [sp]	@ D.6335, pDest
 159 0034 1A1D     		adds	r2, r3, #4	@ tmp123, D.6335,
 160 0036 0092     		str	r2, [sp]	@ tmp123, pDest
 161 0038 0022     		movs	r2, #0	@ tmp124,
 162 003a 1A60     		str	r2, [r3]	@ tmp124, *_14
 163              	.L4:
 115:../epcf/native/port/arm/cm3/nxp/lpc1768/source/vectors_lpc1768.c ****    while(pDest < &_ebss)
 164              		.loc 1 115 0
 165 003c 009B     		ldr	r3, [sp]	@ tmp125, pDest
 166 003e 094A     		ldr	r2, .L7+24	@ tmp126,
ARM GAS  /tmp/ccADbD3X.s 			page 6


 167 0040 9342     		cmp	r3, r2	@ tmp125, tmp126
 168 0042 F6D3     		bcc	.L5	@,
 118:../epcf/native/port/arm/cm3/nxp/lpc1768/source/vectors_lpc1768.c ****    }
 119:../epcf/native/port/arm/cm3/nxp/lpc1768/source/vectors_lpc1768.c **** 
 120:../epcf/native/port/arm/cm3/nxp/lpc1768/source/vectors_lpc1768.c ****    /*
 121:../epcf/native/port/arm/cm3/nxp/lpc1768/source/vectors_lpc1768.c ****     * And now the main function can be called.
 122:../epcf/native/port/arm/cm3/nxp/lpc1768/source/vectors_lpc1768.c ****     * Scotty, energie...
 123:../epcf/native/port/arm/cm3/nxp/lpc1768/source/vectors_lpc1768.c ****     */
 124:../epcf/native/port/arm/cm3/nxp/lpc1768/source/vectors_lpc1768.c ****    main();
 169              		.loc 1 124 0
 170 0044 FFF7FEFF 		bl	main	@
 171              	.L6:
 125:../epcf/native/port/arm/cm3/nxp/lpc1768/source/vectors_lpc1768.c **** 
 126:../epcf/native/port/arm/cm3/nxp/lpc1768/source/vectors_lpc1768.c ****    /*
 127:../epcf/native/port/arm/cm3/nxp/lpc1768/source/vectors_lpc1768.c ****     * In case there are problems with the
 128:../epcf/native/port/arm/cm3/nxp/lpc1768/source/vectors_lpc1768.c ****     * "warp drive", stop here.
 129:../epcf/native/port/arm/cm3/nxp/lpc1768/source/vectors_lpc1768.c ****     */
 130:../epcf/native/port/arm/cm3/nxp/lpc1768/source/vectors_lpc1768.c ****    while(1) {};
 172              		.loc 1 130 0 discriminator 1
 173 0048 FEE7     		b	.L6	@
 174              	.L8:
 175 004a 00BF     		.align	2
 176              	.L7:
 177 004c 08ED00E0 		.word	-536810232
 178 0050 00000000 		.word	_stext
 179 0054 00000000 		.word	_etext
 180 0058 00000000 		.word	_sdata
 181 005c 00000000 		.word	_edata
 182 0060 00000000 		.word	_sbss
 183 0064 00000000 		.word	_ebss
 184              		.cfi_endproc
 185              	.LFE40:
 186              		.size	ResetHandler, .-ResetHandler
 187              		.align	2
 188              		.weak	NMI_Handler
 189              		.thumb
 190              		.thumb_func
 191              		.type	NMI_Handler, %function
 192              	NMI_Handler:
 193              	.LFB41:
 131:../epcf/native/port/arm/cm3/nxp/lpc1768/source/vectors_lpc1768.c **** 
 132:../epcf/native/port/arm/cm3/nxp/lpc1768/source/vectors_lpc1768.c **** } /* ResetHandler */
 133:../epcf/native/port/arm/cm3/nxp/lpc1768/source/vectors_lpc1768.c **** 
 134:../epcf/native/port/arm/cm3/nxp/lpc1768/source/vectors_lpc1768.c **** /*
 135:../epcf/native/port/arm/cm3/nxp/lpc1768/source/vectors_lpc1768.c ****  * And here are the weak interrupt handlers.
 136:../epcf/native/port/arm/cm3/nxp/lpc1768/source/vectors_lpc1768.c ****  *
 137:../epcf/native/port/arm/cm3/nxp/lpc1768/source/vectors_lpc1768.c ****  */
 138:../epcf/native/port/arm/cm3/nxp/lpc1768/source/vectors_lpc1768.c **** void __attribute__((weak, noreturn)) NMI_Handler (void) { while(1); }
 194              		.loc 1 138 0
 195              		.cfi_startproc
 196              		@ args = 0, pretend = 0, frame = 0
 197              		@ frame_needed = 0, uses_anonymous_args = 0
 198              		@ link register save eliminated.
 199              	.L10:
 200              		.loc 1 138 0 discriminator 1
 201 0068 FEE7     		b	.L10	@
 202              		.cfi_endproc
ARM GAS  /tmp/ccADbD3X.s 			page 7


 203              	.LFE41:
 204              		.size	NMI_Handler, .-NMI_Handler
 205 006a 00BF     		.align	2
 206              		.weak	HardFault_Handler
 207              		.thumb
 208              		.thumb_func
 209              		.type	HardFault_Handler, %function
 210              	HardFault_Handler:
 211              	.LFB42:
 139:../epcf/native/port/arm/cm3/nxp/lpc1768/source/vectors_lpc1768.c **** void __attribute__((weak, noreturn)) HardFault_Handler (void) { while(1); }
 212              		.loc 1 139 0
 213              		.cfi_startproc
 214              		@ args = 0, pretend = 0, frame = 0
 215              		@ frame_needed = 0, uses_anonymous_args = 0
 216              		@ link register save eliminated.
 217              	.L12:
 218              		.loc 1 139 0 discriminator 1
 219 006c FEE7     		b	.L12	@
 220              		.cfi_endproc
 221              	.LFE42:
 222              		.size	HardFault_Handler, .-HardFault_Handler
 223 006e 00BF     		.align	2
 224              		.weak	MemManage_Handler
 225              		.thumb
 226              		.thumb_func
 227              		.type	MemManage_Handler, %function
 228              	MemManage_Handler:
 229              	.LFB43:
 140:../epcf/native/port/arm/cm3/nxp/lpc1768/source/vectors_lpc1768.c **** void __attribute__((weak, noreturn)) MemManage_Handler (void) { while(1); }
 230              		.loc 1 140 0
 231              		.cfi_startproc
 232              		@ args = 0, pretend = 0, frame = 0
 233              		@ frame_needed = 0, uses_anonymous_args = 0
 234              		@ link register save eliminated.
 235              	.L14:
 236              		.loc 1 140 0 discriminator 1
 237 0070 FEE7     		b	.L14	@
 238              		.cfi_endproc
 239              	.LFE43:
 240              		.size	MemManage_Handler, .-MemManage_Handler
 241 0072 00BF     		.align	2
 242              		.weak	BusFault_Handler
 243              		.thumb
 244              		.thumb_func
 245              		.type	BusFault_Handler, %function
 246              	BusFault_Handler:
 247              	.LFB44:
 141:../epcf/native/port/arm/cm3/nxp/lpc1768/source/vectors_lpc1768.c **** void __attribute__((weak, noreturn)) BusFault_Handler (void) { while(1); }
 248              		.loc 1 141 0
 249              		.cfi_startproc
 250              		@ args = 0, pretend = 0, frame = 0
 251              		@ frame_needed = 0, uses_anonymous_args = 0
 252              		@ link register save eliminated.
 253              	.L16:
 254              		.loc 1 141 0 discriminator 1
 255 0074 FEE7     		b	.L16	@
 256              		.cfi_endproc
ARM GAS  /tmp/ccADbD3X.s 			page 8


 257              	.LFE44:
 258              		.size	BusFault_Handler, .-BusFault_Handler
 259 0076 00BF     		.align	2
 260              		.weak	UsageFault_Handler
 261              		.thumb
 262              		.thumb_func
 263              		.type	UsageFault_Handler, %function
 264              	UsageFault_Handler:
 265              	.LFB45:
 142:../epcf/native/port/arm/cm3/nxp/lpc1768/source/vectors_lpc1768.c **** void __attribute__((weak, noreturn)) UsageFault_Handler (void) { while(1); }
 266              		.loc 1 142 0
 267              		.cfi_startproc
 268              		@ args = 0, pretend = 0, frame = 0
 269              		@ frame_needed = 0, uses_anonymous_args = 0
 270              		@ link register save eliminated.
 271              	.L18:
 272              		.loc 1 142 0 discriminator 1
 273 0078 FEE7     		b	.L18	@
 274              		.cfi_endproc
 275              	.LFE45:
 276              		.size	UsageFault_Handler, .-UsageFault_Handler
 277 007a 00BF     		.align	2
 278              		.weak	SVC_Handler
 279              		.thumb
 280              		.thumb_func
 281              		.type	SVC_Handler, %function
 282              	SVC_Handler:
 283              	.LFB46:
 143:../epcf/native/port/arm/cm3/nxp/lpc1768/source/vectors_lpc1768.c **** void __attribute__((weak, noreturn)) SVC_Handler (void) { while(1); }
 284              		.loc 1 143 0
 285              		.cfi_startproc
 286              		@ args = 0, pretend = 0, frame = 0
 287              		@ frame_needed = 0, uses_anonymous_args = 0
 288              		@ link register save eliminated.
 289              	.L20:
 290              		.loc 1 143 0 discriminator 1
 291 007c FEE7     		b	.L20	@
 292              		.cfi_endproc
 293              	.LFE46:
 294              		.size	SVC_Handler, .-SVC_Handler
 295 007e 00BF     		.align	2
 296              		.weak	DebugMon_Handler
 297              		.thumb
 298              		.thumb_func
 299              		.type	DebugMon_Handler, %function
 300              	DebugMon_Handler:
 301              	.LFB47:
 144:../epcf/native/port/arm/cm3/nxp/lpc1768/source/vectors_lpc1768.c **** void __attribute__((weak, noreturn)) DebugMon_Handler (void) { while(1); }
 302              		.loc 1 144 0
 303              		.cfi_startproc
 304              		@ args = 0, pretend = 0, frame = 0
 305              		@ frame_needed = 0, uses_anonymous_args = 0
 306              		@ link register save eliminated.
 307              	.L22:
 308              		.loc 1 144 0 discriminator 1
 309 0080 FEE7     		b	.L22	@
 310              		.cfi_endproc
ARM GAS  /tmp/ccADbD3X.s 			page 9


 311              	.LFE47:
 312              		.size	DebugMon_Handler, .-DebugMon_Handler
 313 0082 00BF     		.align	2
 314              		.weak	PendSV_Handler
 315              		.thumb
 316              		.thumb_func
 317              		.type	PendSV_Handler, %function
 318              	PendSV_Handler:
 319              	.LFB48:
 145:../epcf/native/port/arm/cm3/nxp/lpc1768/source/vectors_lpc1768.c **** void __attribute__((weak, noreturn)) PendSV_Handler (void) { while(1); }
 320              		.loc 1 145 0
 321              		.cfi_startproc
 322              		@ args = 0, pretend = 0, frame = 0
 323              		@ frame_needed = 0, uses_anonymous_args = 0
 324              		@ link register save eliminated.
 325              	.L24:
 326              		.loc 1 145 0 discriminator 1
 327 0084 FEE7     		b	.L24	@
 328              		.cfi_endproc
 329              	.LFE48:
 330              		.size	PendSV_Handler, .-PendSV_Handler
 331 0086 00BF     		.align	2
 332              		.weak	SysTick_Handler
 333              		.thumb
 334              		.thumb_func
 335              		.type	SysTick_Handler, %function
 336              	SysTick_Handler:
 337              	.LFB49:
 146:../epcf/native/port/arm/cm3/nxp/lpc1768/source/vectors_lpc1768.c **** void __attribute__((weak, noreturn)) SysTick_Handler (void) { while(1); }
 338              		.loc 1 146 0
 339              		.cfi_startproc
 340              		@ args = 0, pretend = 0, frame = 0
 341              		@ frame_needed = 0, uses_anonymous_args = 0
 342              		@ link register save eliminated.
 343              	.L26:
 344              		.loc 1 146 0 discriminator 1
 345 0088 FEE7     		b	.L26	@
 346              		.cfi_endproc
 347              	.LFE49:
 348              		.size	SysTick_Handler, .-SysTick_Handler
 349 008a 00BF     		.align	2
 350              		.weak	WDT_IRQHandler
 351              		.thumb
 352              		.thumb_func
 353              		.type	WDT_IRQHandler, %function
 354              	WDT_IRQHandler:
 355              	.LFB50:
 147:../epcf/native/port/arm/cm3/nxp/lpc1768/source/vectors_lpc1768.c **** 
 148:../epcf/native/port/arm/cm3/nxp/lpc1768/source/vectors_lpc1768.c **** void __attribute__((weak, noreturn)) WDT_IRQHandler (void) { while(1); }
 356              		.loc 1 148 0
 357              		.cfi_startproc
 358              		@ args = 0, pretend = 0, frame = 0
 359              		@ frame_needed = 0, uses_anonymous_args = 0
 360              		@ link register save eliminated.
 361              	.L28:
 362              		.loc 1 148 0 discriminator 1
 363 008c FEE7     		b	.L28	@
ARM GAS  /tmp/ccADbD3X.s 			page 10


 364              		.cfi_endproc
 365              	.LFE50:
 366              		.size	WDT_IRQHandler, .-WDT_IRQHandler
 367 008e 00BF     		.align	2
 368              		.weak	TIMER0_IRQHandler
 369              		.thumb
 370              		.thumb_func
 371              		.type	TIMER0_IRQHandler, %function
 372              	TIMER0_IRQHandler:
 373              	.LFB51:
 149:../epcf/native/port/arm/cm3/nxp/lpc1768/source/vectors_lpc1768.c **** void __attribute__((weak, noreturn)) TIMER0_IRQHandler (void) { while(1); }
 374              		.loc 1 149 0
 375              		.cfi_startproc
 376              		@ args = 0, pretend = 0, frame = 0
 377              		@ frame_needed = 0, uses_anonymous_args = 0
 378              		@ link register save eliminated.
 379              	.L30:
 380              		.loc 1 149 0 discriminator 1
 381 0090 FEE7     		b	.L30	@
 382              		.cfi_endproc
 383              	.LFE51:
 384              		.size	TIMER0_IRQHandler, .-TIMER0_IRQHandler
 385 0092 00BF     		.align	2
 386              		.weak	TIMER1_IRQHandler
 387              		.thumb
 388              		.thumb_func
 389              		.type	TIMER1_IRQHandler, %function
 390              	TIMER1_IRQHandler:
 391              	.LFB52:
 150:../epcf/native/port/arm/cm3/nxp/lpc1768/source/vectors_lpc1768.c **** void __attribute__((weak, noreturn)) TIMER1_IRQHandler (void) { while(1); }
 392              		.loc 1 150 0
 393              		.cfi_startproc
 394              		@ args = 0, pretend = 0, frame = 0
 395              		@ frame_needed = 0, uses_anonymous_args = 0
 396              		@ link register save eliminated.
 397              	.L32:
 398              		.loc 1 150 0 discriminator 1
 399 0094 FEE7     		b	.L32	@
 400              		.cfi_endproc
 401              	.LFE52:
 402              		.size	TIMER1_IRQHandler, .-TIMER1_IRQHandler
 403 0096 00BF     		.align	2
 404              		.weak	TIMER2_IRQHandler
 405              		.thumb
 406              		.thumb_func
 407              		.type	TIMER2_IRQHandler, %function
 408              	TIMER2_IRQHandler:
 409              	.LFB53:
 151:../epcf/native/port/arm/cm3/nxp/lpc1768/source/vectors_lpc1768.c **** void __attribute__((weak, noreturn)) TIMER2_IRQHandler (void) { while(1); }
 410              		.loc 1 151 0
 411              		.cfi_startproc
 412              		@ args = 0, pretend = 0, frame = 0
 413              		@ frame_needed = 0, uses_anonymous_args = 0
 414              		@ link register save eliminated.
 415              	.L34:
 416              		.loc 1 151 0 discriminator 1
 417 0098 FEE7     		b	.L34	@
ARM GAS  /tmp/ccADbD3X.s 			page 11


 418              		.cfi_endproc
 419              	.LFE53:
 420              		.size	TIMER2_IRQHandler, .-TIMER2_IRQHandler
 421 009a 00BF     		.align	2
 422              		.weak	TIMER3_IRQHandler
 423              		.thumb
 424              		.thumb_func
 425              		.type	TIMER3_IRQHandler, %function
 426              	TIMER3_IRQHandler:
 427              	.LFB54:
 152:../epcf/native/port/arm/cm3/nxp/lpc1768/source/vectors_lpc1768.c **** void __attribute__((weak, noreturn)) TIMER3_IRQHandler (void) { while(1); }
 428              		.loc 1 152 0
 429              		.cfi_startproc
 430              		@ args = 0, pretend = 0, frame = 0
 431              		@ frame_needed = 0, uses_anonymous_args = 0
 432              		@ link register save eliminated.
 433              	.L36:
 434              		.loc 1 152 0 discriminator 1
 435 009c FEE7     		b	.L36	@
 436              		.cfi_endproc
 437              	.LFE54:
 438              		.size	TIMER3_IRQHandler, .-TIMER3_IRQHandler
 439 009e 00BF     		.align	2
 440              		.weak	UART0_IRQHandler
 441              		.thumb
 442              		.thumb_func
 443              		.type	UART0_IRQHandler, %function
 444              	UART0_IRQHandler:
 445              	.LFB55:
 153:../epcf/native/port/arm/cm3/nxp/lpc1768/source/vectors_lpc1768.c **** void __attribute__((weak, noreturn)) UART0_IRQHandler (void) { while(1); }
 446              		.loc 1 153 0
 447              		.cfi_startproc
 448              		@ args = 0, pretend = 0, frame = 0
 449              		@ frame_needed = 0, uses_anonymous_args = 0
 450              		@ link register save eliminated.
 451              	.L38:
 452              		.loc 1 153 0 discriminator 1
 453 00a0 FEE7     		b	.L38	@
 454              		.cfi_endproc
 455              	.LFE55:
 456              		.size	UART0_IRQHandler, .-UART0_IRQHandler
 457 00a2 00BF     		.align	2
 458              		.weak	UART1_IRQHandler
 459              		.thumb
 460              		.thumb_func
 461              		.type	UART1_IRQHandler, %function
 462              	UART1_IRQHandler:
 463              	.LFB56:
 154:../epcf/native/port/arm/cm3/nxp/lpc1768/source/vectors_lpc1768.c **** void __attribute__((weak, noreturn)) UART1_IRQHandler (void) { while(1); }
 464              		.loc 1 154 0
 465              		.cfi_startproc
 466              		@ args = 0, pretend = 0, frame = 0
 467              		@ frame_needed = 0, uses_anonymous_args = 0
 468              		@ link register save eliminated.
 469              	.L40:
 470              		.loc 1 154 0 discriminator 1
 471 00a4 FEE7     		b	.L40	@
ARM GAS  /tmp/ccADbD3X.s 			page 12


 472              		.cfi_endproc
 473              	.LFE56:
 474              		.size	UART1_IRQHandler, .-UART1_IRQHandler
 475 00a6 00BF     		.align	2
 476              		.weak	UART2_IRQHandler
 477              		.thumb
 478              		.thumb_func
 479              		.type	UART2_IRQHandler, %function
 480              	UART2_IRQHandler:
 481              	.LFB57:
 155:../epcf/native/port/arm/cm3/nxp/lpc1768/source/vectors_lpc1768.c **** void __attribute__((weak, noreturn)) UART2_IRQHandler (void) { while(1); }
 482              		.loc 1 155 0
 483              		.cfi_startproc
 484              		@ args = 0, pretend = 0, frame = 0
 485              		@ frame_needed = 0, uses_anonymous_args = 0
 486              		@ link register save eliminated.
 487              	.L42:
 488              		.loc 1 155 0 discriminator 1
 489 00a8 FEE7     		b	.L42	@
 490              		.cfi_endproc
 491              	.LFE57:
 492              		.size	UART2_IRQHandler, .-UART2_IRQHandler
 493 00aa 00BF     		.align	2
 494              		.weak	UART3_IRQHandler
 495              		.thumb
 496              		.thumb_func
 497              		.type	UART3_IRQHandler, %function
 498              	UART3_IRQHandler:
 499              	.LFB58:
 156:../epcf/native/port/arm/cm3/nxp/lpc1768/source/vectors_lpc1768.c **** void __attribute__((weak, noreturn)) UART3_IRQHandler (void) { while(1); }
 500              		.loc 1 156 0
 501              		.cfi_startproc
 502              		@ args = 0, pretend = 0, frame = 0
 503              		@ frame_needed = 0, uses_anonymous_args = 0
 504              		@ link register save eliminated.
 505              	.L44:
 506              		.loc 1 156 0 discriminator 1
 507 00ac FEE7     		b	.L44	@
 508              		.cfi_endproc
 509              	.LFE58:
 510              		.size	UART3_IRQHandler, .-UART3_IRQHandler
 511 00ae 00BF     		.align	2
 512              		.weak	PWM_IRQHandler
 513              		.thumb
 514              		.thumb_func
 515              		.type	PWM_IRQHandler, %function
 516              	PWM_IRQHandler:
 517              	.LFB59:
 157:../epcf/native/port/arm/cm3/nxp/lpc1768/source/vectors_lpc1768.c **** void __attribute__((weak, noreturn)) PWM_IRQHandler (void) { while(1); }
 518              		.loc 1 157 0
 519              		.cfi_startproc
 520              		@ args = 0, pretend = 0, frame = 0
 521              		@ frame_needed = 0, uses_anonymous_args = 0
 522              		@ link register save eliminated.
 523              	.L46:
 524              		.loc 1 157 0 discriminator 1
 525 00b0 FEE7     		b	.L46	@
ARM GAS  /tmp/ccADbD3X.s 			page 13


 526              		.cfi_endproc
 527              	.LFE59:
 528              		.size	PWM_IRQHandler, .-PWM_IRQHandler
 529 00b2 00BF     		.align	2
 530              		.weak	I2C0_IRQHandler
 531              		.thumb
 532              		.thumb_func
 533              		.type	I2C0_IRQHandler, %function
 534              	I2C0_IRQHandler:
 535              	.LFB60:
 158:../epcf/native/port/arm/cm3/nxp/lpc1768/source/vectors_lpc1768.c **** void __attribute__((weak, noreturn)) I2C0_IRQHandler (void) { while(1); }
 536              		.loc 1 158 0
 537              		.cfi_startproc
 538              		@ args = 0, pretend = 0, frame = 0
 539              		@ frame_needed = 0, uses_anonymous_args = 0
 540              		@ link register save eliminated.
 541              	.L48:
 542              		.loc 1 158 0 discriminator 1
 543 00b4 FEE7     		b	.L48	@
 544              		.cfi_endproc
 545              	.LFE60:
 546              		.size	I2C0_IRQHandler, .-I2C0_IRQHandler
 547 00b6 00BF     		.align	2
 548              		.weak	I2C1_IRQHandler
 549              		.thumb
 550              		.thumb_func
 551              		.type	I2C1_IRQHandler, %function
 552              	I2C1_IRQHandler:
 553              	.LFB61:
 159:../epcf/native/port/arm/cm3/nxp/lpc1768/source/vectors_lpc1768.c **** void __attribute__((weak, noreturn)) I2C1_IRQHandler (void) { while(1); }
 554              		.loc 1 159 0
 555              		.cfi_startproc
 556              		@ args = 0, pretend = 0, frame = 0
 557              		@ frame_needed = 0, uses_anonymous_args = 0
 558              		@ link register save eliminated.
 559              	.L50:
 560              		.loc 1 159 0 discriminator 1
 561 00b8 FEE7     		b	.L50	@
 562              		.cfi_endproc
 563              	.LFE61:
 564              		.size	I2C1_IRQHandler, .-I2C1_IRQHandler
 565 00ba 00BF     		.align	2
 566              		.weak	I2C2_IRQHandler
 567              		.thumb
 568              		.thumb_func
 569              		.type	I2C2_IRQHandler, %function
 570              	I2C2_IRQHandler:
 571              	.LFB62:
 160:../epcf/native/port/arm/cm3/nxp/lpc1768/source/vectors_lpc1768.c **** void __attribute__((weak, noreturn)) I2C2_IRQHandler (void) { while(1); }
 572              		.loc 1 160 0
 573              		.cfi_startproc
 574              		@ args = 0, pretend = 0, frame = 0
 575              		@ frame_needed = 0, uses_anonymous_args = 0
 576              		@ link register save eliminated.
 577              	.L52:
 578              		.loc 1 160 0 discriminator 1
 579 00bc FEE7     		b	.L52	@
ARM GAS  /tmp/ccADbD3X.s 			page 14


 580              		.cfi_endproc
 581              	.LFE62:
 582              		.size	I2C2_IRQHandler, .-I2C2_IRQHandler
 583 00be 00BF     		.align	2
 584              		.weak	SPI_IRQHandler
 585              		.thumb
 586              		.thumb_func
 587              		.type	SPI_IRQHandler, %function
 588              	SPI_IRQHandler:
 589              	.LFB63:
 161:../epcf/native/port/arm/cm3/nxp/lpc1768/source/vectors_lpc1768.c **** void __attribute__((weak, noreturn)) SPI_IRQHandler (void) { while(1); }
 590              		.loc 1 161 0
 591              		.cfi_startproc
 592              		@ args = 0, pretend = 0, frame = 0
 593              		@ frame_needed = 0, uses_anonymous_args = 0
 594              		@ link register save eliminated.
 595              	.L54:
 596              		.loc 1 161 0 discriminator 1
 597 00c0 FEE7     		b	.L54	@
 598              		.cfi_endproc
 599              	.LFE63:
 600              		.size	SPI_IRQHandler, .-SPI_IRQHandler
 601 00c2 00BF     		.align	2
 602              		.weak	SSP0_IRQHandler
 603              		.thumb
 604              		.thumb_func
 605              		.type	SSP0_IRQHandler, %function
 606              	SSP0_IRQHandler:
 607              	.LFB64:
 162:../epcf/native/port/arm/cm3/nxp/lpc1768/source/vectors_lpc1768.c **** void __attribute__((weak, noreturn)) SSP0_IRQHandler (void) { while(1); }
 608              		.loc 1 162 0
 609              		.cfi_startproc
 610              		@ args = 0, pretend = 0, frame = 0
 611              		@ frame_needed = 0, uses_anonymous_args = 0
 612              		@ link register save eliminated.
 613              	.L56:
 614              		.loc 1 162 0 discriminator 1
 615 00c4 FEE7     		b	.L56	@
 616              		.cfi_endproc
 617              	.LFE64:
 618              		.size	SSP0_IRQHandler, .-SSP0_IRQHandler
 619 00c6 00BF     		.align	2
 620              		.weak	SSP1_IRQHandler
 621              		.thumb
 622              		.thumb_func
 623              		.type	SSP1_IRQHandler, %function
 624              	SSP1_IRQHandler:
 625              	.LFB65:
 163:../epcf/native/port/arm/cm3/nxp/lpc1768/source/vectors_lpc1768.c **** void __attribute__((weak, noreturn)) SSP1_IRQHandler (void) { while(1); }
 626              		.loc 1 163 0
 627              		.cfi_startproc
 628              		@ args = 0, pretend = 0, frame = 0
 629              		@ frame_needed = 0, uses_anonymous_args = 0
 630              		@ link register save eliminated.
 631              	.L58:
 632              		.loc 1 163 0 discriminator 1
 633 00c8 FEE7     		b	.L58	@
ARM GAS  /tmp/ccADbD3X.s 			page 15


 634              		.cfi_endproc
 635              	.LFE65:
 636              		.size	SSP1_IRQHandler, .-SSP1_IRQHandler
 637 00ca 00BF     		.align	2
 638              		.weak	PLL0_IRQHandler
 639              		.thumb
 640              		.thumb_func
 641              		.type	PLL0_IRQHandler, %function
 642              	PLL0_IRQHandler:
 643              	.LFB66:
 164:../epcf/native/port/arm/cm3/nxp/lpc1768/source/vectors_lpc1768.c **** void __attribute__((weak, noreturn)) PLL0_IRQHandler (void) { while(1); }
 644              		.loc 1 164 0
 645              		.cfi_startproc
 646              		@ args = 0, pretend = 0, frame = 0
 647              		@ frame_needed = 0, uses_anonymous_args = 0
 648              		@ link register save eliminated.
 649              	.L60:
 650              		.loc 1 164 0 discriminator 1
 651 00cc FEE7     		b	.L60	@
 652              		.cfi_endproc
 653              	.LFE66:
 654              		.size	PLL0_IRQHandler, .-PLL0_IRQHandler
 655 00ce 00BF     		.align	2
 656              		.weak	RTC_IRQHandler
 657              		.thumb
 658              		.thumb_func
 659              		.type	RTC_IRQHandler, %function
 660              	RTC_IRQHandler:
 661              	.LFB67:
 165:../epcf/native/port/arm/cm3/nxp/lpc1768/source/vectors_lpc1768.c **** void __attribute__((weak, noreturn)) RTC_IRQHandler (void) { while(1); }
 662              		.loc 1 165 0
 663              		.cfi_startproc
 664              		@ args = 0, pretend = 0, frame = 0
 665              		@ frame_needed = 0, uses_anonymous_args = 0
 666              		@ link register save eliminated.
 667              	.L62:
 668              		.loc 1 165 0 discriminator 1
 669 00d0 FEE7     		b	.L62	@
 670              		.cfi_endproc
 671              	.LFE67:
 672              		.size	RTC_IRQHandler, .-RTC_IRQHandler
 673 00d2 00BF     		.align	2
 674              		.weak	EINT0_IRQHandler
 675              		.thumb
 676              		.thumb_func
 677              		.type	EINT0_IRQHandler, %function
 678              	EINT0_IRQHandler:
 679              	.LFB68:
 166:../epcf/native/port/arm/cm3/nxp/lpc1768/source/vectors_lpc1768.c **** void __attribute__((weak, noreturn)) EINT0_IRQHandler (void) { while(1); }
 680              		.loc 1 166 0
 681              		.cfi_startproc
 682              		@ args = 0, pretend = 0, frame = 0
 683              		@ frame_needed = 0, uses_anonymous_args = 0
 684              		@ link register save eliminated.
 685              	.L64:
 686              		.loc 1 166 0 discriminator 1
 687 00d4 FEE7     		b	.L64	@
ARM GAS  /tmp/ccADbD3X.s 			page 16


 688              		.cfi_endproc
 689              	.LFE68:
 690              		.size	EINT0_IRQHandler, .-EINT0_IRQHandler
 691 00d6 00BF     		.align	2
 692              		.weak	EINT1_IRQHandler
 693              		.thumb
 694              		.thumb_func
 695              		.type	EINT1_IRQHandler, %function
 696              	EINT1_IRQHandler:
 697              	.LFB69:
 167:../epcf/native/port/arm/cm3/nxp/lpc1768/source/vectors_lpc1768.c **** void __attribute__((weak, noreturn)) EINT1_IRQHandler (void) { while(1); }
 698              		.loc 1 167 0
 699              		.cfi_startproc
 700              		@ args = 0, pretend = 0, frame = 0
 701              		@ frame_needed = 0, uses_anonymous_args = 0
 702              		@ link register save eliminated.
 703              	.L66:
 704              		.loc 1 167 0 discriminator 1
 705 00d8 FEE7     		b	.L66	@
 706              		.cfi_endproc
 707              	.LFE69:
 708              		.size	EINT1_IRQHandler, .-EINT1_IRQHandler
 709 00da 00BF     		.align	2
 710              		.weak	EINT2_IRQHandler
 711              		.thumb
 712              		.thumb_func
 713              		.type	EINT2_IRQHandler, %function
 714              	EINT2_IRQHandler:
 715              	.LFB70:
 168:../epcf/native/port/arm/cm3/nxp/lpc1768/source/vectors_lpc1768.c **** void __attribute__((weak, noreturn)) EINT2_IRQHandler (void) { while(1); }
 716              		.loc 1 168 0
 717              		.cfi_startproc
 718              		@ args = 0, pretend = 0, frame = 0
 719              		@ frame_needed = 0, uses_anonymous_args = 0
 720              		@ link register save eliminated.
 721              	.L68:
 722              		.loc 1 168 0 discriminator 1
 723 00dc FEE7     		b	.L68	@
 724              		.cfi_endproc
 725              	.LFE70:
 726              		.size	EINT2_IRQHandler, .-EINT2_IRQHandler
 727 00de 00BF     		.align	2
 728              		.weak	EINT3_IRQHandler
 729              		.thumb
 730              		.thumb_func
 731              		.type	EINT3_IRQHandler, %function
 732              	EINT3_IRQHandler:
 733              	.LFB71:
 169:../epcf/native/port/arm/cm3/nxp/lpc1768/source/vectors_lpc1768.c **** void __attribute__((weak, noreturn)) EINT3_IRQHandler (void) { while(1); }
 734              		.loc 1 169 0
 735              		.cfi_startproc
 736              		@ args = 0, pretend = 0, frame = 0
 737              		@ frame_needed = 0, uses_anonymous_args = 0
 738              		@ link register save eliminated.
 739              	.L70:
 740              		.loc 1 169 0 discriminator 1
 741 00e0 FEE7     		b	.L70	@
ARM GAS  /tmp/ccADbD3X.s 			page 17


 742              		.cfi_endproc
 743              	.LFE71:
 744              		.size	EINT3_IRQHandler, .-EINT3_IRQHandler
 745 00e2 00BF     		.align	2
 746              		.weak	ADC_IRQHandler
 747              		.thumb
 748              		.thumb_func
 749              		.type	ADC_IRQHandler, %function
 750              	ADC_IRQHandler:
 751              	.LFB72:
 170:../epcf/native/port/arm/cm3/nxp/lpc1768/source/vectors_lpc1768.c **** void __attribute__((weak, noreturn)) ADC_IRQHandler (void) { while(1); }
 752              		.loc 1 170 0
 753              		.cfi_startproc
 754              		@ args = 0, pretend = 0, frame = 0
 755              		@ frame_needed = 0, uses_anonymous_args = 0
 756              		@ link register save eliminated.
 757              	.L72:
 758              		.loc 1 170 0 discriminator 1
 759 00e4 FEE7     		b	.L72	@
 760              		.cfi_endproc
 761              	.LFE72:
 762              		.size	ADC_IRQHandler, .-ADC_IRQHandler
 763 00e6 00BF     		.align	2
 764              		.weak	BOD_IRQHandler
 765              		.thumb
 766              		.thumb_func
 767              		.type	BOD_IRQHandler, %function
 768              	BOD_IRQHandler:
 769              	.LFB73:
 171:../epcf/native/port/arm/cm3/nxp/lpc1768/source/vectors_lpc1768.c **** void __attribute__((weak, noreturn)) BOD_IRQHandler (void) { while(1); }
 770              		.loc 1 171 0
 771              		.cfi_startproc
 772              		@ args = 0, pretend = 0, frame = 0
 773              		@ frame_needed = 0, uses_anonymous_args = 0
 774              		@ link register save eliminated.
 775              	.L74:
 776              		.loc 1 171 0 discriminator 1
 777 00e8 FEE7     		b	.L74	@
 778              		.cfi_endproc
 779              	.LFE73:
 780              		.size	BOD_IRQHandler, .-BOD_IRQHandler
 781 00ea 00BF     		.align	2
 782              		.weak	USB_IRQHandler
 783              		.thumb
 784              		.thumb_func
 785              		.type	USB_IRQHandler, %function
 786              	USB_IRQHandler:
 787              	.LFB74:
 172:../epcf/native/port/arm/cm3/nxp/lpc1768/source/vectors_lpc1768.c **** void __attribute__((weak, noreturn)) USB_IRQHandler (void) { while(1); }
 788              		.loc 1 172 0
 789              		.cfi_startproc
 790              		@ args = 0, pretend = 0, frame = 0
 791              		@ frame_needed = 0, uses_anonymous_args = 0
 792              		@ link register save eliminated.
 793              	.L76:
 794              		.loc 1 172 0 discriminator 1
 795 00ec FEE7     		b	.L76	@
ARM GAS  /tmp/ccADbD3X.s 			page 18


 796              		.cfi_endproc
 797              	.LFE74:
 798              		.size	USB_IRQHandler, .-USB_IRQHandler
 799 00ee 00BF     		.align	2
 800              		.weak	CAN_IRQHandler
 801              		.thumb
 802              		.thumb_func
 803              		.type	CAN_IRQHandler, %function
 804              	CAN_IRQHandler:
 805              	.LFB75:
 173:../epcf/native/port/arm/cm3/nxp/lpc1768/source/vectors_lpc1768.c **** void __attribute__((weak, noreturn)) CAN_IRQHandler (void) { while(1); }
 806              		.loc 1 173 0
 807              		.cfi_startproc
 808              		@ args = 0, pretend = 0, frame = 0
 809              		@ frame_needed = 0, uses_anonymous_args = 0
 810              		@ link register save eliminated.
 811              	.L78:
 812              		.loc 1 173 0 discriminator 1
 813 00f0 FEE7     		b	.L78	@
 814              		.cfi_endproc
 815              	.LFE75:
 816              		.size	CAN_IRQHandler, .-CAN_IRQHandler
 817 00f2 00BF     		.align	2
 818              		.weak	DMA_IRQHandler
 819              		.thumb
 820              		.thumb_func
 821              		.type	DMA_IRQHandler, %function
 822              	DMA_IRQHandler:
 823              	.LFB76:
 174:../epcf/native/port/arm/cm3/nxp/lpc1768/source/vectors_lpc1768.c **** void __attribute__((weak, noreturn)) DMA_IRQHandler (void) { while(1); }
 824              		.loc 1 174 0
 825              		.cfi_startproc
 826              		@ args = 0, pretend = 0, frame = 0
 827              		@ frame_needed = 0, uses_anonymous_args = 0
 828              		@ link register save eliminated.
 829              	.L80:
 830              		.loc 1 174 0 discriminator 1
 831 00f4 FEE7     		b	.L80	@
 832              		.cfi_endproc
 833              	.LFE76:
 834              		.size	DMA_IRQHandler, .-DMA_IRQHandler
 835 00f6 00BF     		.align	2
 836              		.weak	I2S_IRQHandler
 837              		.thumb
 838              		.thumb_func
 839              		.type	I2S_IRQHandler, %function
 840              	I2S_IRQHandler:
 841              	.LFB77:
 175:../epcf/native/port/arm/cm3/nxp/lpc1768/source/vectors_lpc1768.c **** void __attribute__((weak, noreturn)) I2S_IRQHandler (void) { while(1); }
 842              		.loc 1 175 0
 843              		.cfi_startproc
 844              		@ args = 0, pretend = 0, frame = 0
 845              		@ frame_needed = 0, uses_anonymous_args = 0
 846              		@ link register save eliminated.
 847              	.L82:
 848              		.loc 1 175 0 discriminator 1
 849 00f8 FEE7     		b	.L82	@
ARM GAS  /tmp/ccADbD3X.s 			page 19


 850              		.cfi_endproc
 851              	.LFE77:
 852              		.size	I2S_IRQHandler, .-I2S_IRQHandler
 853 00fa 00BF     		.align	2
 854              		.weak	ENET_IRQHandler
 855              		.thumb
 856              		.thumb_func
 857              		.type	ENET_IRQHandler, %function
 858              	ENET_IRQHandler:
 859              	.LFB78:
 176:../epcf/native/port/arm/cm3/nxp/lpc1768/source/vectors_lpc1768.c **** void __attribute__((weak, noreturn)) ENET_IRQHandler (void) { while(1); }
 860              		.loc 1 176 0
 861              		.cfi_startproc
 862              		@ args = 0, pretend = 0, frame = 0
 863              		@ frame_needed = 0, uses_anonymous_args = 0
 864              		@ link register save eliminated.
 865              	.L84:
 866              		.loc 1 176 0 discriminator 1
 867 00fc FEE7     		b	.L84	@
 868              		.cfi_endproc
 869              	.LFE78:
 870              		.size	ENET_IRQHandler, .-ENET_IRQHandler
 871 00fe 00BF     		.align	2
 872              		.weak	RIT_IRQHandler
 873              		.thumb
 874              		.thumb_func
 875              		.type	RIT_IRQHandler, %function
 876              	RIT_IRQHandler:
 877              	.LFB79:
 177:../epcf/native/port/arm/cm3/nxp/lpc1768/source/vectors_lpc1768.c **** void __attribute__((weak, noreturn)) RIT_IRQHandler (void) { while(1); }
 878              		.loc 1 177 0
 879              		.cfi_startproc
 880              		@ args = 0, pretend = 0, frame = 0
 881              		@ frame_needed = 0, uses_anonymous_args = 0
 882              		@ link register save eliminated.
 883              	.L86:
 884              		.loc 1 177 0 discriminator 1
 885 0100 FEE7     		b	.L86	@
 886              		.cfi_endproc
 887              	.LFE79:
 888              		.size	RIT_IRQHandler, .-RIT_IRQHandler
 889 0102 00BF     		.align	2
 890              		.weak	MCPWM_IRQHandler
 891              		.thumb
 892              		.thumb_func
 893              		.type	MCPWM_IRQHandler, %function
 894              	MCPWM_IRQHandler:
 895              	.LFB80:
 178:../epcf/native/port/arm/cm3/nxp/lpc1768/source/vectors_lpc1768.c **** void __attribute__((weak, noreturn)) MCPWM_IRQHandler (void) { while(1); }
 896              		.loc 1 178 0
 897              		.cfi_startproc
 898              		@ args = 0, pretend = 0, frame = 0
 899              		@ frame_needed = 0, uses_anonymous_args = 0
 900              		@ link register save eliminated.
 901              	.L88:
 902              		.loc 1 178 0 discriminator 1
 903 0104 FEE7     		b	.L88	@
ARM GAS  /tmp/ccADbD3X.s 			page 20


 904              		.cfi_endproc
 905              	.LFE80:
 906              		.size	MCPWM_IRQHandler, .-MCPWM_IRQHandler
 907 0106 00BF     		.align	2
 908              		.weak	QEI_IRQHandler
 909              		.thumb
 910              		.thumb_func
 911              		.type	QEI_IRQHandler, %function
 912              	QEI_IRQHandler:
 913              	.LFB81:
 179:../epcf/native/port/arm/cm3/nxp/lpc1768/source/vectors_lpc1768.c **** void __attribute__((weak, noreturn)) QEI_IRQHandler (void) { while(1); }
 914              		.loc 1 179 0
 915              		.cfi_startproc
 916              		@ args = 0, pretend = 0, frame = 0
 917              		@ frame_needed = 0, uses_anonymous_args = 0
 918              		@ link register save eliminated.
 919              	.L90:
 920              		.loc 1 179 0 discriminator 1
 921 0108 FEE7     		b	.L90	@
 922              		.cfi_endproc
 923              	.LFE81:
 924              		.size	QEI_IRQHandler, .-QEI_IRQHandler
 925              	.Letext0:
 926              		.file 2 "/usr/include/newlib/machine/_default_types.h"
 927              		.file 3 "/usr/include/newlib/sys/_stdint.h"
 928              		.file 4 "../pcf/include/private/arch/arm/cm3/nxp/lpc1768/./../../../../arm/cm3/nxp/lpc1768/lpc1768
 929 010a 00BF     		.section	.debug_info,"",%progbits
 930              	.Ldebug_info0:
 931 0000 E0040000 		.4byte	0x4e0
 932 0004 0200     		.2byte	0x2
 933 0006 00000000 		.4byte	.Ldebug_abbrev0
 934 000a 04       		.byte	0x4
 935 000b 01       		.uleb128 0x1
 936 000c 79000000 		.4byte	.LASF68
 937 0010 01       		.byte	0x1
 938 0011 40030000 		.4byte	.LASF69
 939 0015 DC030000 		.4byte	.LASF70
 940 0019 00000000 		.4byte	.Ltext0
 941 001d 0A010000 		.4byte	.Letext0
 942 0021 00000000 		.4byte	.Ldebug_line0
 943 0025 02       		.uleb128 0x2
 944 0026 04       		.byte	0x4
 945 0027 07       		.byte	0x7
 946 0028 6D020000 		.4byte	.LASF0
 947 002c 03       		.uleb128 0x3
 948 002d 04       		.byte	0x4
 949 002e 05       		.byte	0x5
 950 002f 696E7400 		.ascii	"int\000"
 951 0033 02       		.uleb128 0x2
 952 0034 01       		.byte	0x1
 953 0035 06       		.byte	0x6
 954 0036 32020000 		.4byte	.LASF1
 955 003a 02       		.uleb128 0x2
 956 003b 01       		.byte	0x1
 957 003c 08       		.byte	0x8
 958 003d 13020000 		.4byte	.LASF2
 959 0041 02       		.uleb128 0x2
ARM GAS  /tmp/ccADbD3X.s 			page 21


 960 0042 02       		.byte	0x2
 961 0043 05       		.byte	0x5
 962 0044 17000000 		.4byte	.LASF3
 963 0048 02       		.uleb128 0x2
 964 0049 02       		.byte	0x2
 965 004a 07       		.byte	0x7
 966 004b AA020000 		.4byte	.LASF4
 967 004f 04       		.uleb128 0x4
 968 0050 A2030000 		.4byte	.LASF6
 969 0054 02       		.byte	0x2
 970 0055 3F       		.byte	0x3f
 971 0056 5A000000 		.4byte	0x5a
 972 005a 02       		.uleb128 0x2
 973 005b 04       		.byte	0x4
 974 005c 05       		.byte	0x5
 975 005d 7E010000 		.4byte	.LASF5
 976 0061 04       		.uleb128 0x4
 977 0062 6E000000 		.4byte	.LASF7
 978 0066 02       		.byte	0x2
 979 0067 41       		.byte	0x41
 980 0068 6C000000 		.4byte	0x6c
 981 006c 02       		.uleb128 0x2
 982 006d 04       		.byte	0x4
 983 006e 07       		.byte	0x7
 984 006f 1C030000 		.4byte	.LASF8
 985 0073 02       		.uleb128 0x2
 986 0074 08       		.byte	0x8
 987 0075 05       		.byte	0x5
 988 0076 49010000 		.4byte	.LASF9
 989 007a 02       		.uleb128 0x2
 990 007b 08       		.byte	0x8
 991 007c 07       		.byte	0x7
 992 007d 3E020000 		.4byte	.LASF10
 993 0081 02       		.uleb128 0x2
 994 0082 04       		.byte	0x4
 995 0083 07       		.byte	0x7
 996 0084 43000000 		.4byte	.LASF11
 997 0088 05       		.uleb128 0x5
 998 0089 04       		.byte	0x4
 999 008a 8E000000 		.4byte	0x8e
 1000 008e 06       		.uleb128 0x6
 1001 008f 01       		.byte	0x1
 1002 0090 02       		.uleb128 0x2
 1003 0091 01       		.byte	0x1
 1004 0092 08       		.byte	0x8
 1005 0093 BD020000 		.4byte	.LASF12
 1006 0097 04       		.uleb128 0x4
 1007 0098 C2020000 		.4byte	.LASF13
 1008 009c 03       		.byte	0x3
 1009 009d 1F       		.byte	0x1f
 1010 009e 4F000000 		.4byte	0x4f
 1011 00a2 04       		.uleb128 0x4
 1012 00a3 55020000 		.4byte	.LASF14
 1013 00a7 03       		.byte	0x3
 1014 00a8 20       		.byte	0x20
 1015 00a9 61000000 		.4byte	0x61
 1016 00ad 02       		.uleb128 0x2
ARM GAS  /tmp/ccADbD3X.s 			page 22


 1017 00ae 04       		.byte	0x4
 1018 00af 04       		.byte	0x4
 1019 00b0 22010000 		.4byte	.LASF15
 1020 00b4 07       		.uleb128 0x7
 1021 00b5 01       		.byte	0x1
 1022 00b6 CF030000 		.4byte	.LASF71
 1023 00ba 01       		.byte	0x1
 1024 00bb 55       		.byte	0x55
 1025 00bc 01       		.byte	0x1
 1026 00bd 00000000 		.4byte	.LFB40
 1027 00c1 68000000 		.4byte	.LFE40
 1028 00c5 00000000 		.4byte	.LLST0
 1029 00c9 01       		.byte	0x1
 1030 00ca EB000000 		.4byte	0xeb
 1031 00ce 08       		.uleb128 0x8
 1032 00cf 3A040000 		.4byte	.LASF16
 1033 00d3 01       		.byte	0x1
 1034 00d4 57       		.byte	0x57
 1035 00d5 EB000000 		.4byte	0xeb
 1036 00d9 02       		.byte	0x2
 1037 00da 91       		.byte	0x91
 1038 00db 74       		.sleb128 -12
 1039 00dc 08       		.uleb128 0x8
 1040 00dd BE010000 		.4byte	.LASF17
 1041 00e1 01       		.byte	0x1
 1042 00e2 58       		.byte	0x58
 1043 00e3 EB000000 		.4byte	0xeb
 1044 00e7 02       		.byte	0x2
 1045 00e8 91       		.byte	0x91
 1046 00e9 70       		.sleb128 -16
 1047 00ea 00       		.byte	0
 1048 00eb 05       		.uleb128 0x5
 1049 00ec 04       		.byte	0x4
 1050 00ed A2000000 		.4byte	0xa2
 1051 00f1 09       		.uleb128 0x9
 1052 00f2 01       		.byte	0x1
 1053 00f3 4C000000 		.4byte	.LASF18
 1054 00f7 01       		.byte	0x1
 1055 00f8 8A       		.byte	0x8a
 1056 00f9 01       		.byte	0x1
 1057 00fa 68000000 		.4byte	.LFB41
 1058 00fe 6A000000 		.4byte	.LFE41
 1059 0102 02       		.byte	0x2
 1060 0103 7D       		.byte	0x7d
 1061 0104 00       		.sleb128 0
 1062 0105 01       		.byte	0x1
 1063 0106 09       		.uleb128 0x9
 1064 0107 01       		.byte	0x1
 1065 0108 0A030000 		.4byte	.LASF19
 1066 010c 01       		.byte	0x1
 1067 010d 8B       		.byte	0x8b
 1068 010e 01       		.byte	0x1
 1069 010f 6C000000 		.4byte	.LFB42
 1070 0113 6E000000 		.4byte	.LFE42
 1071 0117 02       		.byte	0x2
 1072 0118 7D       		.byte	0x7d
 1073 0119 00       		.sleb128 0
ARM GAS  /tmp/ccADbD3X.s 			page 23


 1074 011a 01       		.byte	0x1
 1075 011b 09       		.uleb128 0x9
 1076 011c 01       		.byte	0x1
 1077 011d 3F040000 		.4byte	.LASF20
 1078 0121 01       		.byte	0x1
 1079 0122 8C       		.byte	0x8c
 1080 0123 01       		.byte	0x1
 1081 0124 70000000 		.4byte	.LFB43
 1082 0128 72000000 		.4byte	.LFE43
 1083 012c 02       		.byte	0x2
 1084 012d 7D       		.byte	0x7d
 1085 012e 00       		.sleb128 0
 1086 012f 01       		.byte	0x1
 1087 0130 09       		.uleb128 0x9
 1088 0131 01       		.byte	0x1
 1089 0132 BE030000 		.4byte	.LASF21
 1090 0136 01       		.byte	0x1
 1091 0137 8D       		.byte	0x8d
 1092 0138 01       		.byte	0x1
 1093 0139 74000000 		.4byte	.LFB44
 1094 013d 76000000 		.4byte	.LFE44
 1095 0141 02       		.byte	0x2
 1096 0142 7D       		.byte	0x7d
 1097 0143 00       		.sleb128 0
 1098 0144 01       		.byte	0x1
 1099 0145 09       		.uleb128 0x9
 1100 0146 01       		.byte	0x1
 1101 0147 21000000 		.4byte	.LASF22
 1102 014b 01       		.byte	0x1
 1103 014c 8E       		.byte	0x8e
 1104 014d 01       		.byte	0x1
 1105 014e 78000000 		.4byte	.LFB45
 1106 0152 7A000000 		.4byte	.LFE45
 1107 0156 02       		.byte	0x2
 1108 0157 7D       		.byte	0x7d
 1109 0158 00       		.sleb128 0
 1110 0159 01       		.byte	0x1
 1111 015a 09       		.uleb128 0x9
 1112 015b 01       		.byte	0x1
 1113 015c 51040000 		.4byte	.LASF23
 1114 0160 01       		.byte	0x1
 1115 0161 8F       		.byte	0x8f
 1116 0162 01       		.byte	0x1
 1117 0163 7C000000 		.4byte	.LFB46
 1118 0167 7E000000 		.4byte	.LFE46
 1119 016b 02       		.byte	0x2
 1120 016c 7D       		.byte	0x7d
 1121 016d 00       		.sleb128 0
 1122 016e 01       		.byte	0x1
 1123 016f 09       		.uleb128 0x9
 1124 0170 01       		.byte	0x1
 1125 0171 21020000 		.4byte	.LASF24
 1126 0175 01       		.byte	0x1
 1127 0176 90       		.byte	0x90
 1128 0177 01       		.byte	0x1
 1129 0178 80000000 		.4byte	.LFB47
 1130 017c 82000000 		.4byte	.LFE47
ARM GAS  /tmp/ccADbD3X.s 			page 24


 1131 0180 02       		.byte	0x2
 1132 0181 7D       		.byte	0x7d
 1133 0182 00       		.sleb128 0
 1134 0183 01       		.byte	0x1
 1135 0184 09       		.uleb128 0x9
 1136 0185 01       		.byte	0x1
 1137 0186 2B040000 		.4byte	.LASF25
 1138 018a 01       		.byte	0x1
 1139 018b 91       		.byte	0x91
 1140 018c 01       		.byte	0x1
 1141 018d 84000000 		.4byte	.LFB48
 1142 0191 86000000 		.4byte	.LFE48
 1143 0195 02       		.byte	0x2
 1144 0196 7D       		.byte	0x7d
 1145 0197 00       		.sleb128 0
 1146 0198 01       		.byte	0x1
 1147 0199 09       		.uleb128 0x9
 1148 019a 01       		.byte	0x1
 1149 019b 81030000 		.4byte	.LASF26
 1150 019f 01       		.byte	0x1
 1151 01a0 92       		.byte	0x92
 1152 01a1 01       		.byte	0x1
 1153 01a2 88000000 		.4byte	.LFB49
 1154 01a6 8A000000 		.4byte	.LFE49
 1155 01aa 02       		.byte	0x2
 1156 01ab 7D       		.byte	0x7d
 1157 01ac 00       		.sleb128 0
 1158 01ad 01       		.byte	0x1
 1159 01ae 09       		.uleb128 0x9
 1160 01af 01       		.byte	0x1
 1161 01b0 CA020000 		.4byte	.LASF27
 1162 01b4 01       		.byte	0x1
 1163 01b5 94       		.byte	0x94
 1164 01b6 01       		.byte	0x1
 1165 01b7 8C000000 		.4byte	.LFB50
 1166 01bb 8E000000 		.4byte	.LFE50
 1167 01bf 02       		.byte	0x2
 1168 01c0 7D       		.byte	0x7d
 1169 01c1 00       		.sleb128 0
 1170 01c2 01       		.byte	0x1
 1171 01c3 09       		.uleb128 0x9
 1172 01c4 01       		.byte	0x1
 1173 01c5 2E030000 		.4byte	.LASF28
 1174 01c9 01       		.byte	0x1
 1175 01ca 95       		.byte	0x95
 1176 01cb 01       		.byte	0x1
 1177 01cc 90000000 		.4byte	.LFB51
 1178 01d0 92000000 		.4byte	.LFE51
 1179 01d4 02       		.byte	0x2
 1180 01d5 7D       		.byte	0x7d
 1181 01d6 00       		.sleb128 0
 1182 01d7 01       		.byte	0x1
 1183 01d8 09       		.uleb128 0x9
 1184 01d9 01       		.byte	0x1
 1185 01da 28010000 		.4byte	.LASF29
 1186 01de 01       		.byte	0x1
 1187 01df 96       		.byte	0x96
ARM GAS  /tmp/ccADbD3X.s 			page 25


 1188 01e0 01       		.byte	0x1
 1189 01e1 94000000 		.4byte	.LFB52
 1190 01e5 96000000 		.4byte	.LFE52
 1191 01e9 02       		.byte	0x2
 1192 01ea 7D       		.byte	0x7d
 1193 01eb 00       		.sleb128 0
 1194 01ec 01       		.byte	0x1
 1195 01ed 09       		.uleb128 0x9
 1196 01ee 01       		.byte	0x1
 1197 01ef AC030000 		.4byte	.LASF30
 1198 01f3 01       		.byte	0x1
 1199 01f4 97       		.byte	0x97
 1200 01f5 01       		.byte	0x1
 1201 01f6 98000000 		.4byte	.LFB53
 1202 01fa 9A000000 		.4byte	.LFE53
 1203 01fe 02       		.byte	0x2
 1204 01ff 7D       		.byte	0x7d
 1205 0200 00       		.sleb128 0
 1206 0201 01       		.byte	0x1
 1207 0202 09       		.uleb128 0x9
 1208 0203 01       		.byte	0x1
 1209 0204 5D010000 		.4byte	.LASF31
 1210 0208 01       		.byte	0x1
 1211 0209 98       		.byte	0x98
 1212 020a 01       		.byte	0x1
 1213 020b 9C000000 		.4byte	.LFB54
 1214 020f 9E000000 		.4byte	.LFE54
 1215 0213 02       		.byte	0x2
 1216 0214 7D       		.byte	0x7d
 1217 0215 00       		.sleb128 0
 1218 0216 01       		.byte	0x1
 1219 0217 09       		.uleb128 0x9
 1220 0218 01       		.byte	0x1
 1221 0219 D9020000 		.4byte	.LASF32
 1222 021d 01       		.byte	0x1
 1223 021e 99       		.byte	0x99
 1224 021f 01       		.byte	0x1
 1225 0220 A0000000 		.4byte	.LFB55
 1226 0224 A2000000 		.4byte	.LFE55
 1227 0228 02       		.byte	0x2
 1228 0229 7D       		.byte	0x7d
 1229 022a 00       		.sleb128 0
 1230 022b 01       		.byte	0x1
 1231 022c 09       		.uleb128 0x9
 1232 022d 01       		.byte	0x1
 1233 022e F9020000 		.4byte	.LASF33
 1234 0232 01       		.byte	0x1
 1235 0233 9A       		.byte	0x9a
 1236 0234 01       		.byte	0x1
 1237 0235 A4000000 		.4byte	.LFB56
 1238 0239 A6000000 		.4byte	.LFE56
 1239 023d 02       		.byte	0x2
 1240 023e 7D       		.byte	0x7d
 1241 023f 00       		.sleb128 0
 1242 0240 01       		.byte	0x1
 1243 0241 09       		.uleb128 0x9
 1244 0242 01       		.byte	0x1
ARM GAS  /tmp/ccADbD3X.s 			page 26


 1245 0243 F0000000 		.4byte	.LASF34
 1246 0247 01       		.byte	0x1
 1247 0248 9B       		.byte	0x9b
 1248 0249 01       		.byte	0x1
 1249 024a A8000000 		.4byte	.LFB57
 1250 024e AA000000 		.4byte	.LFE57
 1251 0252 02       		.byte	0x2
 1252 0253 7D       		.byte	0x7d
 1253 0254 00       		.sleb128 0
 1254 0255 01       		.byte	0x1
 1255 0256 09       		.uleb128 0x9
 1256 0257 01       		.byte	0x1
 1257 0258 11010000 		.4byte	.LASF35
 1258 025c 01       		.byte	0x1
 1259 025d 9C       		.byte	0x9c
 1260 025e 01       		.byte	0x1
 1261 025f AC000000 		.4byte	.LFB58
 1262 0263 AE000000 		.4byte	.LFE58
 1263 0267 02       		.byte	0x2
 1264 0268 7D       		.byte	0x7d
 1265 0269 00       		.sleb128 0
 1266 026a 01       		.byte	0x1
 1267 026b 09       		.uleb128 0x9
 1268 026c 01       		.byte	0x1
 1269 026d 5E020000 		.4byte	.LASF36
 1270 0271 01       		.byte	0x1
 1271 0272 9D       		.byte	0x9d
 1272 0273 01       		.byte	0x1
 1273 0274 B0000000 		.4byte	.LFB59
 1274 0278 B2000000 		.4byte	.LFE59
 1275 027c 02       		.byte	0x2
 1276 027d 7D       		.byte	0x7d
 1277 027e 00       		.sleb128 0
 1278 027f 01       		.byte	0x1
 1279 0280 09       		.uleb128 0x9
 1280 0281 01       		.byte	0x1
 1281 0282 9E010000 		.4byte	.LASF37
 1282 0286 01       		.byte	0x1
 1283 0287 9E       		.byte	0x9e
 1284 0288 01       		.byte	0x1
 1285 0289 B4000000 		.4byte	.LFB60
 1286 028d B6000000 		.4byte	.LFE60
 1287 0291 02       		.byte	0x2
 1288 0292 7D       		.byte	0x7d
 1289 0293 00       		.sleb128 0
 1290 0294 01       		.byte	0x1
 1291 0295 09       		.uleb128 0x9
 1292 0296 01       		.byte	0x1
 1293 0297 C4010000 		.4byte	.LASF38
 1294 029b 01       		.byte	0x1
 1295 029c 9F       		.byte	0x9f
 1296 029d 01       		.byte	0x1
 1297 029e B8000000 		.4byte	.LFB61
 1298 02a2 BA000000 		.4byte	.LFE61
 1299 02a6 02       		.byte	0x2
 1300 02a7 7D       		.byte	0x7d
 1301 02a8 00       		.sleb128 0
ARM GAS  /tmp/ccADbD3X.s 			page 27


 1302 02a9 01       		.byte	0x1
 1303 02aa 09       		.uleb128 0x9
 1304 02ab 01       		.byte	0x1
 1305 02ac E5010000 		.4byte	.LASF39
 1306 02b0 01       		.byte	0x1
 1307 02b1 A0       		.byte	0xa0
 1308 02b2 01       		.byte	0x1
 1309 02b3 BC000000 		.4byte	.LFB62
 1310 02b7 BE000000 		.4byte	.LFE62
 1311 02bb 02       		.byte	0x2
 1312 02bc 7D       		.byte	0x7d
 1313 02bd 00       		.sleb128 0
 1314 02be 01       		.byte	0x1
 1315 02bf 09       		.uleb128 0x9
 1316 02c0 01       		.byte	0x1
 1317 02c1 04020000 		.4byte	.LASF40
 1318 02c5 01       		.byte	0x1
 1319 02c6 A1       		.byte	0xa1
 1320 02c7 01       		.byte	0x1
 1321 02c8 C0000000 		.4byte	.LFB63
 1322 02cc C2000000 		.4byte	.LFE63
 1323 02d0 02       		.byte	0x2
 1324 02d1 7D       		.byte	0x7d
 1325 02d2 00       		.sleb128 0
 1326 02d3 01       		.byte	0x1
 1327 02d4 09       		.uleb128 0x9
 1328 02d5 01       		.byte	0x1
 1329 02d6 9A020000 		.4byte	.LASF41
 1330 02da 01       		.byte	0x1
 1331 02db A2       		.byte	0xa2
 1332 02dc 01       		.byte	0x1
 1333 02dd C4000000 		.4byte	.LFB64
 1334 02e1 C6000000 		.4byte	.LFE64
 1335 02e5 02       		.byte	0x2
 1336 02e6 7D       		.byte	0x7d
 1337 02e7 00       		.sleb128 0
 1338 02e8 01       		.byte	0x1
 1339 02e9 09       		.uleb128 0x9
 1340 02ea 01       		.byte	0x1
 1341 02eb AE010000 		.4byte	.LASF42
 1342 02ef 01       		.byte	0x1
 1343 02f0 A3       		.byte	0xa3
 1344 02f1 01       		.byte	0x1
 1345 02f2 C8000000 		.4byte	.LFB65
 1346 02f6 CA000000 		.4byte	.LFE65
 1347 02fa 02       		.byte	0x2
 1348 02fb 7D       		.byte	0x7d
 1349 02fc 00       		.sleb128 0
 1350 02fd 01       		.byte	0x1
 1351 02fe 09       		.uleb128 0x9
 1352 02ff 01       		.byte	0x1
 1353 0300 01010000 		.4byte	.LASF43
 1354 0304 01       		.byte	0x1
 1355 0305 A4       		.byte	0xa4
 1356 0306 01       		.byte	0x1
 1357 0307 CC000000 		.4byte	.LFB66
 1358 030b CE000000 		.4byte	.LFE66
ARM GAS  /tmp/ccADbD3X.s 			page 28


 1359 030f 02       		.byte	0x2
 1360 0310 7D       		.byte	0x7d
 1361 0311 00       		.sleb128 0
 1362 0312 01       		.byte	0x1
 1363 0313 09       		.uleb128 0x9
 1364 0314 01       		.byte	0x1
 1365 0315 34000000 		.4byte	.LASF44
 1366 0319 01       		.byte	0x1
 1367 031a A5       		.byte	0xa5
 1368 031b 01       		.byte	0x1
 1369 031c D0000000 		.4byte	.LFB67
 1370 0320 D2000000 		.4byte	.LFE67
 1371 0324 02       		.byte	0x2
 1372 0325 7D       		.byte	0x7d
 1373 0326 00       		.sleb128 0
 1374 0327 01       		.byte	0x1
 1375 0328 09       		.uleb128 0x9
 1376 0329 01       		.byte	0x1
 1377 032a 91030000 		.4byte	.LASF45
 1378 032e 01       		.byte	0x1
 1379 032f A6       		.byte	0xa6
 1380 0330 01       		.byte	0x1
 1381 0331 D4000000 		.4byte	.LFB68
 1382 0335 D6000000 		.4byte	.LFE68
 1383 0339 02       		.byte	0x2
 1384 033a 7D       		.byte	0x7d
 1385 033b 00       		.sleb128 0
 1386 033c 01       		.byte	0x1
 1387 033d 09       		.uleb128 0x9
 1388 033e 01       		.byte	0x1
 1389 033f D4010000 		.4byte	.LASF46
 1390 0343 01       		.byte	0x1
 1391 0344 A7       		.byte	0xa7
 1392 0345 01       		.byte	0x1
 1393 0346 D8000000 		.4byte	.LFB69
 1394 034a DA000000 		.4byte	.LFE69
 1395 034e 02       		.byte	0x2
 1396 034f 7D       		.byte	0x7d
 1397 0350 00       		.sleb128 0
 1398 0351 01       		.byte	0x1
 1399 0352 09       		.uleb128 0x9
 1400 0353 01       		.byte	0x1
 1401 0354 6A040000 		.4byte	.LASF47
 1402 0358 01       		.byte	0x1
 1403 0359 A8       		.byte	0xa8
 1404 035a 01       		.byte	0x1
 1405 035b DC000000 		.4byte	.LFB70
 1406 035f DE000000 		.4byte	.LFE70
 1407 0363 02       		.byte	0x2
 1408 0364 7D       		.byte	0x7d
 1409 0365 00       		.sleb128 0
 1410 0366 01       		.byte	0x1
 1411 0367 09       		.uleb128 0x9
 1412 0368 01       		.byte	0x1
 1413 0369 88040000 		.4byte	.LASF48
 1414 036d 01       		.byte	0x1
 1415 036e A9       		.byte	0xa9
ARM GAS  /tmp/ccADbD3X.s 			page 29


 1416 036f 01       		.byte	0x1
 1417 0370 E0000000 		.4byte	.LFB71
 1418 0374 E2000000 		.4byte	.LFE71
 1419 0378 02       		.byte	0x2
 1420 0379 7D       		.byte	0x7d
 1421 037a 00       		.sleb128 0
 1422 037b 01       		.byte	0x1
 1423 037c 09       		.uleb128 0x9
 1424 037d 01       		.byte	0x1
 1425 037e 3A010000 		.4byte	.LASF49
 1426 0382 01       		.byte	0x1
 1427 0383 AA       		.byte	0xaa
 1428 0384 01       		.byte	0x1
 1429 0385 E4000000 		.4byte	.LFB72
 1430 0389 E6000000 		.4byte	.LFE72
 1431 038d 02       		.byte	0x2
 1432 038e 7D       		.byte	0x7d
 1433 038f 00       		.sleb128 0
 1434 0390 01       		.byte	0x1
 1435 0391 09       		.uleb128 0x9
 1436 0392 01       		.byte	0x1
 1437 0393 5F000000 		.4byte	.LASF50
 1438 0397 01       		.byte	0x1
 1439 0398 AB       		.byte	0xab
 1440 0399 01       		.byte	0x1
 1441 039a E8000000 		.4byte	.LFB73
 1442 039e EA000000 		.4byte	.LFE73
 1443 03a2 02       		.byte	0x2
 1444 03a3 7D       		.byte	0x7d
 1445 03a4 00       		.sleb128 0
 1446 03a5 01       		.byte	0x1
 1447 03a6 09       		.uleb128 0x9
 1448 03a7 01       		.byte	0x1
 1449 03a8 87010000 		.4byte	.LASF51
 1450 03ac 01       		.byte	0x1
 1451 03ad AC       		.byte	0xac
 1452 03ae 01       		.byte	0x1
 1453 03af EC000000 		.4byte	.LFB74
 1454 03b3 EE000000 		.4byte	.LFE74
 1455 03b7 02       		.byte	0x2
 1456 03b8 7D       		.byte	0x7d
 1457 03b9 00       		.sleb128 0
 1458 03ba 01       		.byte	0x1
 1459 03bb 09       		.uleb128 0x9
 1460 03bc 01       		.byte	0x1
 1461 03bd 8B020000 		.4byte	.LASF52
 1462 03c1 01       		.byte	0x1
 1463 03c2 AD       		.byte	0xad
 1464 03c3 01       		.byte	0x1
 1465 03c4 F0000000 		.4byte	.LFB75
 1466 03c8 F2000000 		.4byte	.LFE75
 1467 03cc 02       		.byte	0x2
 1468 03cd 7D       		.byte	0x7d
 1469 03ce 00       		.sleb128 0
 1470 03cf 01       		.byte	0x1
 1471 03d0 09       		.uleb128 0x9
 1472 03d1 01       		.byte	0x1
ARM GAS  /tmp/ccADbD3X.s 			page 30


 1473 03d2 EA020000 		.4byte	.LASF53
 1474 03d6 01       		.byte	0x1
 1475 03d7 AE       		.byte	0xae
 1476 03d8 01       		.byte	0x1
 1477 03d9 F4000000 		.4byte	.LFB76
 1478 03dd F6000000 		.4byte	.LFE76
 1479 03e1 02       		.byte	0x2
 1480 03e2 7D       		.byte	0x7d
 1481 03e3 00       		.sleb128 0
 1482 03e4 01       		.byte	0x1
 1483 03e5 09       		.uleb128 0x9
 1484 03e6 01       		.byte	0x1
 1485 03e7 6F010000 		.4byte	.LASF54
 1486 03eb 01       		.byte	0x1
 1487 03ec AF       		.byte	0xaf
 1488 03ed 01       		.byte	0x1
 1489 03ee F8000000 		.4byte	.LFB77
 1490 03f2 FA000000 		.4byte	.LFE77
 1491 03f6 02       		.byte	0x2
 1492 03f7 7D       		.byte	0x7d
 1493 03f8 00       		.sleb128 0
 1494 03f9 01       		.byte	0x1
 1495 03fa 09       		.uleb128 0x9
 1496 03fb 01       		.byte	0x1
 1497 03fc 07000000 		.4byte	.LASF55
 1498 0400 01       		.byte	0x1
 1499 0401 B0       		.byte	0xb0
 1500 0402 01       		.byte	0x1
 1501 0403 FC000000 		.4byte	.LFB78
 1502 0407 FE000000 		.4byte	.LFE78
 1503 040b 02       		.byte	0x2
 1504 040c 7D       		.byte	0x7d
 1505 040d 00       		.sleb128 0
 1506 040e 01       		.byte	0x1
 1507 040f 09       		.uleb128 0x9
 1508 0410 01       		.byte	0x1
 1509 0411 E1000000 		.4byte	.LASF56
 1510 0415 01       		.byte	0x1
 1511 0416 B1       		.byte	0xb1
 1512 0417 01       		.byte	0x1
 1513 0418 00010000 		.4byte	.LFB79
 1514 041c 02010000 		.4byte	.LFE79
 1515 0420 02       		.byte	0x2
 1516 0421 7D       		.byte	0x7d
 1517 0422 00       		.sleb128 0
 1518 0423 01       		.byte	0x1
 1519 0424 09       		.uleb128 0x9
 1520 0425 01       		.byte	0x1
 1521 0426 7A020000 		.4byte	.LASF57
 1522 042a 01       		.byte	0x1
 1523 042b B2       		.byte	0xb2
 1524 042c 01       		.byte	0x1
 1525 042d 04010000 		.4byte	.LFB80
 1526 0431 06010000 		.4byte	.LFE80
 1527 0435 02       		.byte	0x2
 1528 0436 7D       		.byte	0x7d
 1529 0437 00       		.sleb128 0
ARM GAS  /tmp/ccADbD3X.s 			page 31


 1530 0438 01       		.byte	0x1
 1531 0439 09       		.uleb128 0x9
 1532 043a 01       		.byte	0x1
 1533 043b F5010000 		.4byte	.LASF58
 1534 043f 01       		.byte	0x1
 1535 0440 B3       		.byte	0xb3
 1536 0441 01       		.byte	0x1
 1537 0442 08010000 		.4byte	.LFB81
 1538 0446 0A010000 		.4byte	.LFE81
 1539 044a 02       		.byte	0x2
 1540 044b 7D       		.byte	0x7d
 1541 044c 00       		.sleb128 0
 1542 044d 01       		.byte	0x1
 1543 044e 0A       		.uleb128 0xa
 1544 044f 5D040000 		.4byte	.LASF59
 1545 0453 04       		.byte	0x4
 1546 0454 E602     		.2byte	0x2e6
 1547 0456 5C040000 		.4byte	0x45c
 1548 045a 01       		.byte	0x1
 1549 045b 01       		.byte	0x1
 1550 045c 0B       		.uleb128 0xb
 1551 045d 97000000 		.4byte	0x97
 1552 0461 0C       		.uleb128 0xc
 1553 0462 1B040000 		.4byte	.LASF60
 1554 0466 01       		.byte	0x1
 1555 0467 0B       		.byte	0xb
 1556 0468 6C000000 		.4byte	0x6c
 1557 046c 01       		.byte	0x1
 1558 046d 01       		.byte	0x1
 1559 046e 0C       		.uleb128 0xc
 1560 046f 7B040000 		.4byte	.LASF61
 1561 0473 01       		.byte	0x1
 1562 0474 0C       		.byte	0xc
 1563 0475 6C000000 		.4byte	0x6c
 1564 0479 01       		.byte	0x1
 1565 047a 01       		.byte	0x1
 1566 047b 0C       		.uleb128 0xc
 1567 047c 00000000 		.4byte	.LASF62
 1568 0480 01       		.byte	0x1
 1569 0481 0D       		.byte	0xd
 1570 0482 6C000000 		.4byte	0x6c
 1571 0486 01       		.byte	0x1
 1572 0487 01       		.byte	0x1
 1573 0488 0C       		.uleb128 0xc
 1574 0489 58000000 		.4byte	.LASF63
 1575 048d 01       		.byte	0x1
 1576 048e 0E       		.byte	0xe
 1577 048f 6C000000 		.4byte	0x6c
 1578 0493 01       		.byte	0x1
 1579 0494 01       		.byte	0x1
 1580 0495 0C       		.uleb128 0xc
 1581 0496 82040000 		.4byte	.LASF64
 1582 049a 01       		.byte	0x1
 1583 049b 0F       		.byte	0xf
 1584 049c 6C000000 		.4byte	0x6c
 1585 04a0 01       		.byte	0x1
 1586 04a1 01       		.byte	0x1
ARM GAS  /tmp/ccADbD3X.s 			page 32


 1587 04a2 0C       		.uleb128 0xc
 1588 04a3 57010000 		.4byte	.LASF65
 1589 04a7 01       		.byte	0x1
 1590 04a8 10       		.byte	0x10
 1591 04a9 6C000000 		.4byte	0x6c
 1592 04ad 01       		.byte	0x1
 1593 04ae 01       		.byte	0x1
 1594 04af 0C       		.uleb128 0xc
 1595 04b0 96010000 		.4byte	.LASF66
 1596 04b4 01       		.byte	0x1
 1597 04b5 11       		.byte	0x11
 1598 04b6 6C000000 		.4byte	0x6c
 1599 04ba 01       		.byte	0x1
 1600 04bb 01       		.byte	0x1
 1601 04bc 0D       		.uleb128 0xd
 1602 04bd 88000000 		.4byte	0x88
 1603 04c1 CC040000 		.4byte	0x4cc
 1604 04c5 0E       		.uleb128 0xe
 1605 04c6 81000000 		.4byte	0x81
 1606 04ca 2F       		.byte	0x2f
 1607 04cb 00       		.byte	0
 1608 04cc 0F       		.uleb128 0xf
 1609 04cd 22040000 		.4byte	.LASF67
 1610 04d1 01       		.byte	0x1
 1611 04d2 1E       		.byte	0x1e
 1612 04d3 DE040000 		.4byte	0x4de
 1613 04d7 01       		.byte	0x1
 1614 04d8 05       		.byte	0x5
 1615 04d9 03       		.byte	0x3
 1616 04da 00000000 		.4byte	gVectors
 1617 04de 10       		.uleb128 0x10
 1618 04df BC040000 		.4byte	0x4bc
 1619 04e3 00       		.byte	0
 1620              		.section	.debug_abbrev,"",%progbits
 1621              	.Ldebug_abbrev0:
 1622 0000 01       		.uleb128 0x1
 1623 0001 11       		.uleb128 0x11
 1624 0002 01       		.byte	0x1
 1625 0003 25       		.uleb128 0x25
 1626 0004 0E       		.uleb128 0xe
 1627 0005 13       		.uleb128 0x13
 1628 0006 0B       		.uleb128 0xb
 1629 0007 03       		.uleb128 0x3
 1630 0008 0E       		.uleb128 0xe
 1631 0009 1B       		.uleb128 0x1b
 1632 000a 0E       		.uleb128 0xe
 1633 000b 11       		.uleb128 0x11
 1634 000c 01       		.uleb128 0x1
 1635 000d 12       		.uleb128 0x12
 1636 000e 01       		.uleb128 0x1
 1637 000f 10       		.uleb128 0x10
 1638 0010 06       		.uleb128 0x6
 1639 0011 00       		.byte	0
 1640 0012 00       		.byte	0
 1641 0013 02       		.uleb128 0x2
 1642 0014 24       		.uleb128 0x24
 1643 0015 00       		.byte	0
ARM GAS  /tmp/ccADbD3X.s 			page 33


 1644 0016 0B       		.uleb128 0xb
 1645 0017 0B       		.uleb128 0xb
 1646 0018 3E       		.uleb128 0x3e
 1647 0019 0B       		.uleb128 0xb
 1648 001a 03       		.uleb128 0x3
 1649 001b 0E       		.uleb128 0xe
 1650 001c 00       		.byte	0
 1651 001d 00       		.byte	0
 1652 001e 03       		.uleb128 0x3
 1653 001f 24       		.uleb128 0x24
 1654 0020 00       		.byte	0
 1655 0021 0B       		.uleb128 0xb
 1656 0022 0B       		.uleb128 0xb
 1657 0023 3E       		.uleb128 0x3e
 1658 0024 0B       		.uleb128 0xb
 1659 0025 03       		.uleb128 0x3
 1660 0026 08       		.uleb128 0x8
 1661 0027 00       		.byte	0
 1662 0028 00       		.byte	0
 1663 0029 04       		.uleb128 0x4
 1664 002a 16       		.uleb128 0x16
 1665 002b 00       		.byte	0
 1666 002c 03       		.uleb128 0x3
 1667 002d 0E       		.uleb128 0xe
 1668 002e 3A       		.uleb128 0x3a
 1669 002f 0B       		.uleb128 0xb
 1670 0030 3B       		.uleb128 0x3b
 1671 0031 0B       		.uleb128 0xb
 1672 0032 49       		.uleb128 0x49
 1673 0033 13       		.uleb128 0x13
 1674 0034 00       		.byte	0
 1675 0035 00       		.byte	0
 1676 0036 05       		.uleb128 0x5
 1677 0037 0F       		.uleb128 0xf
 1678 0038 00       		.byte	0
 1679 0039 0B       		.uleb128 0xb
 1680 003a 0B       		.uleb128 0xb
 1681 003b 49       		.uleb128 0x49
 1682 003c 13       		.uleb128 0x13
 1683 003d 00       		.byte	0
 1684 003e 00       		.byte	0
 1685 003f 06       		.uleb128 0x6
 1686 0040 15       		.uleb128 0x15
 1687 0041 00       		.byte	0
 1688 0042 27       		.uleb128 0x27
 1689 0043 0C       		.uleb128 0xc
 1690 0044 00       		.byte	0
 1691 0045 00       		.byte	0
 1692 0046 07       		.uleb128 0x7
 1693 0047 2E       		.uleb128 0x2e
 1694 0048 01       		.byte	0x1
 1695 0049 3F       		.uleb128 0x3f
 1696 004a 0C       		.uleb128 0xc
 1697 004b 03       		.uleb128 0x3
 1698 004c 0E       		.uleb128 0xe
 1699 004d 3A       		.uleb128 0x3a
 1700 004e 0B       		.uleb128 0xb
ARM GAS  /tmp/ccADbD3X.s 			page 34


 1701 004f 3B       		.uleb128 0x3b
 1702 0050 0B       		.uleb128 0xb
 1703 0051 27       		.uleb128 0x27
 1704 0052 0C       		.uleb128 0xc
 1705 0053 11       		.uleb128 0x11
 1706 0054 01       		.uleb128 0x1
 1707 0055 12       		.uleb128 0x12
 1708 0056 01       		.uleb128 0x1
 1709 0057 40       		.uleb128 0x40
 1710 0058 06       		.uleb128 0x6
 1711 0059 9642     		.uleb128 0x2116
 1712 005b 0C       		.uleb128 0xc
 1713 005c 01       		.uleb128 0x1
 1714 005d 13       		.uleb128 0x13
 1715 005e 00       		.byte	0
 1716 005f 00       		.byte	0
 1717 0060 08       		.uleb128 0x8
 1718 0061 34       		.uleb128 0x34
 1719 0062 00       		.byte	0
 1720 0063 03       		.uleb128 0x3
 1721 0064 0E       		.uleb128 0xe
 1722 0065 3A       		.uleb128 0x3a
 1723 0066 0B       		.uleb128 0xb
 1724 0067 3B       		.uleb128 0x3b
 1725 0068 0B       		.uleb128 0xb
 1726 0069 49       		.uleb128 0x49
 1727 006a 13       		.uleb128 0x13
 1728 006b 02       		.uleb128 0x2
 1729 006c 0A       		.uleb128 0xa
 1730 006d 00       		.byte	0
 1731 006e 00       		.byte	0
 1732 006f 09       		.uleb128 0x9
 1733 0070 2E       		.uleb128 0x2e
 1734 0071 00       		.byte	0
 1735 0072 3F       		.uleb128 0x3f
 1736 0073 0C       		.uleb128 0xc
 1737 0074 03       		.uleb128 0x3
 1738 0075 0E       		.uleb128 0xe
 1739 0076 3A       		.uleb128 0x3a
 1740 0077 0B       		.uleb128 0xb
 1741 0078 3B       		.uleb128 0x3b
 1742 0079 0B       		.uleb128 0xb
 1743 007a 27       		.uleb128 0x27
 1744 007b 0C       		.uleb128 0xc
 1745 007c 11       		.uleb128 0x11
 1746 007d 01       		.uleb128 0x1
 1747 007e 12       		.uleb128 0x12
 1748 007f 01       		.uleb128 0x1
 1749 0080 40       		.uleb128 0x40
 1750 0081 0A       		.uleb128 0xa
 1751 0082 9742     		.uleb128 0x2117
 1752 0084 0C       		.uleb128 0xc
 1753 0085 00       		.byte	0
 1754 0086 00       		.byte	0
 1755 0087 0A       		.uleb128 0xa
 1756 0088 34       		.uleb128 0x34
 1757 0089 00       		.byte	0
ARM GAS  /tmp/ccADbD3X.s 			page 35


 1758 008a 03       		.uleb128 0x3
 1759 008b 0E       		.uleb128 0xe
 1760 008c 3A       		.uleb128 0x3a
 1761 008d 0B       		.uleb128 0xb
 1762 008e 3B       		.uleb128 0x3b
 1763 008f 05       		.uleb128 0x5
 1764 0090 49       		.uleb128 0x49
 1765 0091 13       		.uleb128 0x13
 1766 0092 3F       		.uleb128 0x3f
 1767 0093 0C       		.uleb128 0xc
 1768 0094 3C       		.uleb128 0x3c
 1769 0095 0C       		.uleb128 0xc
 1770 0096 00       		.byte	0
 1771 0097 00       		.byte	0
 1772 0098 0B       		.uleb128 0xb
 1773 0099 35       		.uleb128 0x35
 1774 009a 00       		.byte	0
 1775 009b 49       		.uleb128 0x49
 1776 009c 13       		.uleb128 0x13
 1777 009d 00       		.byte	0
 1778 009e 00       		.byte	0
 1779 009f 0C       		.uleb128 0xc
 1780 00a0 34       		.uleb128 0x34
 1781 00a1 00       		.byte	0
 1782 00a2 03       		.uleb128 0x3
 1783 00a3 0E       		.uleb128 0xe
 1784 00a4 3A       		.uleb128 0x3a
 1785 00a5 0B       		.uleb128 0xb
 1786 00a6 3B       		.uleb128 0x3b
 1787 00a7 0B       		.uleb128 0xb
 1788 00a8 49       		.uleb128 0x49
 1789 00a9 13       		.uleb128 0x13
 1790 00aa 3F       		.uleb128 0x3f
 1791 00ab 0C       		.uleb128 0xc
 1792 00ac 3C       		.uleb128 0x3c
 1793 00ad 0C       		.uleb128 0xc
 1794 00ae 00       		.byte	0
 1795 00af 00       		.byte	0
 1796 00b0 0D       		.uleb128 0xd
 1797 00b1 01       		.uleb128 0x1
 1798 00b2 01       		.byte	0x1
 1799 00b3 49       		.uleb128 0x49
 1800 00b4 13       		.uleb128 0x13
 1801 00b5 01       		.uleb128 0x1
 1802 00b6 13       		.uleb128 0x13
 1803 00b7 00       		.byte	0
 1804 00b8 00       		.byte	0
 1805 00b9 0E       		.uleb128 0xe
 1806 00ba 21       		.uleb128 0x21
 1807 00bb 00       		.byte	0
 1808 00bc 49       		.uleb128 0x49
 1809 00bd 13       		.uleb128 0x13
 1810 00be 2F       		.uleb128 0x2f
 1811 00bf 0B       		.uleb128 0xb
 1812 00c0 00       		.byte	0
 1813 00c1 00       		.byte	0
 1814 00c2 0F       		.uleb128 0xf
ARM GAS  /tmp/ccADbD3X.s 			page 36


 1815 00c3 34       		.uleb128 0x34
 1816 00c4 00       		.byte	0
 1817 00c5 03       		.uleb128 0x3
 1818 00c6 0E       		.uleb128 0xe
 1819 00c7 3A       		.uleb128 0x3a
 1820 00c8 0B       		.uleb128 0xb
 1821 00c9 3B       		.uleb128 0x3b
 1822 00ca 0B       		.uleb128 0xb
 1823 00cb 49       		.uleb128 0x49
 1824 00cc 13       		.uleb128 0x13
 1825 00cd 3F       		.uleb128 0x3f
 1826 00ce 0C       		.uleb128 0xc
 1827 00cf 02       		.uleb128 0x2
 1828 00d0 0A       		.uleb128 0xa
 1829 00d1 00       		.byte	0
 1830 00d2 00       		.byte	0
 1831 00d3 10       		.uleb128 0x10
 1832 00d4 26       		.uleb128 0x26
 1833 00d5 00       		.byte	0
 1834 00d6 49       		.uleb128 0x49
 1835 00d7 13       		.uleb128 0x13
 1836 00d8 00       		.byte	0
 1837 00d9 00       		.byte	0
 1838 00da 00       		.byte	0
 1839              		.section	.debug_loc,"",%progbits
 1840              	.Ldebug_loc0:
 1841              	.LLST0:
 1842 0000 00000000 		.4byte	.LFB40-.Ltext0
 1843 0004 02000000 		.4byte	.LCFI0-.Ltext0
 1844 0008 0200     		.2byte	0x2
 1845 000a 7D       		.byte	0x7d
 1846 000b 00       		.sleb128 0
 1847 000c 02000000 		.4byte	.LCFI0-.Ltext0
 1848 0010 04000000 		.4byte	.LCFI1-.Ltext0
 1849 0014 0200     		.2byte	0x2
 1850 0016 7D       		.byte	0x7d
 1851 0017 04       		.sleb128 4
 1852 0018 04000000 		.4byte	.LCFI1-.Ltext0
 1853 001c 68000000 		.4byte	.LFE40-.Ltext0
 1854 0020 0200     		.2byte	0x2
 1855 0022 7D       		.byte	0x7d
 1856 0023 10       		.sleb128 16
 1857 0024 00000000 		.4byte	0
 1858 0028 00000000 		.4byte	0
 1859              		.section	.debug_aranges,"",%progbits
 1860 0000 1C000000 		.4byte	0x1c
 1861 0004 0200     		.2byte	0x2
 1862 0006 00000000 		.4byte	.Ldebug_info0
 1863 000a 04       		.byte	0x4
 1864 000b 00       		.byte	0
 1865 000c 0000     		.2byte	0
 1866 000e 0000     		.2byte	0
 1867 0010 00000000 		.4byte	.Ltext0
 1868 0014 0A010000 		.4byte	.Letext0-.Ltext0
 1869 0018 00000000 		.4byte	0
 1870 001c 00000000 		.4byte	0
 1871              		.section	.debug_line,"",%progbits
ARM GAS  /tmp/ccADbD3X.s 			page 37


 1872              	.Ldebug_line0:
 1873 0000 2F020000 		.section	.debug_str,"MS",%progbits,1
 1873      02000F01 
 1873      00000201 
 1873      FB0E0D00 
 1873      01010101 
 1874              	.LASF62:
 1875 0000 5F736461 		.ascii	"_sdata\000"
 1875      746100
 1876              	.LASF55:
 1877 0007 454E4554 		.ascii	"ENET_IRQHandler\000"
 1877      5F495251 
 1877      48616E64 
 1877      6C657200 
 1878              	.LASF3:
 1879 0017 73686F72 		.ascii	"short int\000"
 1879      7420696E 
 1879      7400
 1880              	.LASF22:
 1881 0021 55736167 		.ascii	"UsageFault_Handler\000"
 1881      65466175 
 1881      6C745F48 
 1881      616E646C 
 1881      657200
 1882              	.LASF44:
 1883 0034 5254435F 		.ascii	"RTC_IRQHandler\000"
 1883      49525148 
 1883      616E646C 
 1883      657200
 1884              	.LASF11:
 1885 0043 73697A65 		.ascii	"sizetype\000"
 1885      74797065 
 1885      00
 1886              	.LASF18:
 1887 004c 4E4D495F 		.ascii	"NMI_Handler\000"
 1887      48616E64 
 1887      6C657200 
 1888              	.LASF63:
 1889 0058 5F656461 		.ascii	"_edata\000"
 1889      746100
 1890              	.LASF50:
 1891 005f 424F445F 		.ascii	"BOD_IRQHandler\000"
 1891      49525148 
 1891      616E646C 
 1891      657200
 1892              	.LASF7:
 1893 006e 5F5F7569 		.ascii	"__uint32_t\000"
 1893      6E743332 
 1893      5F7400
 1894              	.LASF68:
 1895 0079 474E5520 		.ascii	"GNU C 4.9.3 20150529 (prerelease) -mcpu=cortex-m3 -"
 1895      4320342E 
 1895      392E3320 
 1895      32303135 
 1895      30353239 
 1896 00ac 6D746875 		.ascii	"mthumb -gdwarf-2 -O0 -std=gnu99 -fomit-frame-pointe"
 1896      6D62202D 
ARM GAS  /tmp/ccADbD3X.s 			page 38


 1896      67647761 
 1896      72662D32 
 1896      202D4F30 
 1897 00df 7200     		.ascii	"r\000"
 1898              	.LASF56:
 1899 00e1 5249545F 		.ascii	"RIT_IRQHandler\000"
 1899      49525148 
 1899      616E646C 
 1899      657200
 1900              	.LASF34:
 1901 00f0 55415254 		.ascii	"UART2_IRQHandler\000"
 1901      325F4952 
 1901      5148616E 
 1901      646C6572 
 1901      00
 1902              	.LASF43:
 1903 0101 504C4C30 		.ascii	"PLL0_IRQHandler\000"
 1903      5F495251 
 1903      48616E64 
 1903      6C657200 
 1904              	.LASF35:
 1905 0111 55415254 		.ascii	"UART3_IRQHandler\000"
 1905      335F4952 
 1905      5148616E 
 1905      646C6572 
 1905      00
 1906              	.LASF15:
 1907 0122 666C6F61 		.ascii	"float\000"
 1907      7400
 1908              	.LASF29:
 1909 0128 54494D45 		.ascii	"TIMER1_IRQHandler\000"
 1909      52315F49 
 1909      52514861 
 1909      6E646C65 
 1909      7200
 1910              	.LASF49:
 1911 013a 4144435F 		.ascii	"ADC_IRQHandler\000"
 1911      49525148 
 1911      616E646C 
 1911      657200
 1912              	.LASF9:
 1913 0149 6C6F6E67 		.ascii	"long long int\000"
 1913      206C6F6E 
 1913      6720696E 
 1913      7400
 1914              	.LASF65:
 1915 0157 5F656273 		.ascii	"_ebss\000"
 1915      7300
 1916              	.LASF31:
 1917 015d 54494D45 		.ascii	"TIMER3_IRQHandler\000"
 1917      52335F49 
 1917      52514861 
 1917      6E646C65 
 1917      7200
 1918              	.LASF54:
 1919 016f 4932535F 		.ascii	"I2S_IRQHandler\000"
 1919      49525148 
ARM GAS  /tmp/ccADbD3X.s 			page 39


 1919      616E646C 
 1919      657200
 1920              	.LASF5:
 1921 017e 6C6F6E67 		.ascii	"long int\000"
 1921      20696E74 
 1921      00
 1922              	.LASF51:
 1923 0187 5553425F 		.ascii	"USB_IRQHandler\000"
 1923      49525148 
 1923      616E646C 
 1923      657200
 1924              	.LASF66:
 1925 0196 5F657374 		.ascii	"_estack\000"
 1925      61636B00 
 1926              	.LASF37:
 1927 019e 49324330 		.ascii	"I2C0_IRQHandler\000"
 1927      5F495251 
 1927      48616E64 
 1927      6C657200 
 1928              	.LASF42:
 1929 01ae 53535031 		.ascii	"SSP1_IRQHandler\000"
 1929      5F495251 
 1929      48616E64 
 1929      6C657200 
 1930              	.LASF17:
 1931 01be 70446573 		.ascii	"pDest\000"
 1931      7400
 1932              	.LASF38:
 1933 01c4 49324331 		.ascii	"I2C1_IRQHandler\000"
 1933      5F495251 
 1933      48616E64 
 1933      6C657200 
 1934              	.LASF46:
 1935 01d4 45494E54 		.ascii	"EINT1_IRQHandler\000"
 1935      315F4952 
 1935      5148616E 
 1935      646C6572 
 1935      00
 1936              	.LASF39:
 1937 01e5 49324332 		.ascii	"I2C2_IRQHandler\000"
 1937      5F495251 
 1937      48616E64 
 1937      6C657200 
 1938              	.LASF58:
 1939 01f5 5145495F 		.ascii	"QEI_IRQHandler\000"
 1939      49525148 
 1939      616E646C 
 1939      657200
 1940              	.LASF40:
 1941 0204 5350495F 		.ascii	"SPI_IRQHandler\000"
 1941      49525148 
 1941      616E646C 
 1941      657200
 1942              	.LASF2:
 1943 0213 756E7369 		.ascii	"unsigned char\000"
 1943      676E6564 
 1943      20636861 
ARM GAS  /tmp/ccADbD3X.s 			page 40


 1943      7200
 1944              	.LASF24:
 1945 0221 44656275 		.ascii	"DebugMon_Handler\000"
 1945      674D6F6E 
 1945      5F48616E 
 1945      646C6572 
 1945      00
 1946              	.LASF1:
 1947 0232 7369676E 		.ascii	"signed char\000"
 1947      65642063 
 1947      68617200 
 1948              	.LASF10:
 1949 023e 6C6F6E67 		.ascii	"long long unsigned int\000"
 1949      206C6F6E 
 1949      6720756E 
 1949      7369676E 
 1949      65642069 
 1950              	.LASF14:
 1951 0255 75696E74 		.ascii	"uint32_t\000"
 1951      33325F74 
 1951      00
 1952              	.LASF36:
 1953 025e 50574D5F 		.ascii	"PWM_IRQHandler\000"
 1953      49525148 
 1953      616E646C 
 1953      657200
 1954              	.LASF0:
 1955 026d 756E7369 		.ascii	"unsigned int\000"
 1955      676E6564 
 1955      20696E74 
 1955      00
 1956              	.LASF57:
 1957 027a 4D435057 		.ascii	"MCPWM_IRQHandler\000"
 1957      4D5F4952 
 1957      5148616E 
 1957      646C6572 
 1957      00
 1958              	.LASF52:
 1959 028b 43414E5F 		.ascii	"CAN_IRQHandler\000"
 1959      49525148 
 1959      616E646C 
 1959      657200
 1960              	.LASF41:
 1961 029a 53535030 		.ascii	"SSP0_IRQHandler\000"
 1961      5F495251 
 1961      48616E64 
 1961      6C657200 
 1962              	.LASF4:
 1963 02aa 73686F72 		.ascii	"short unsigned int\000"
 1963      7420756E 
 1963      7369676E 
 1963      65642069 
 1963      6E7400
 1964              	.LASF12:
 1965 02bd 63686172 		.ascii	"char\000"
 1965      00
 1966              	.LASF13:
ARM GAS  /tmp/ccADbD3X.s 			page 41


 1967 02c2 696E7433 		.ascii	"int32_t\000"
 1967      325F7400 
 1968              	.LASF27:
 1969 02ca 5744545F 		.ascii	"WDT_IRQHandler\000"
 1969      49525148 
 1969      616E646C 
 1969      657200
 1970              	.LASF32:
 1971 02d9 55415254 		.ascii	"UART0_IRQHandler\000"
 1971      305F4952 
 1971      5148616E 
 1971      646C6572 
 1971      00
 1972              	.LASF53:
 1973 02ea 444D415F 		.ascii	"DMA_IRQHandler\000"
 1973      49525148 
 1973      616E646C 
 1973      657200
 1974              	.LASF33:
 1975 02f9 55415254 		.ascii	"UART1_IRQHandler\000"
 1975      315F4952 
 1975      5148616E 
 1975      646C6572 
 1975      00
 1976              	.LASF19:
 1977 030a 48617264 		.ascii	"HardFault_Handler\000"
 1977      4661756C 
 1977      745F4861 
 1977      6E646C65 
 1977      7200
 1978              	.LASF8:
 1979 031c 6C6F6E67 		.ascii	"long unsigned int\000"
 1979      20756E73 
 1979      69676E65 
 1979      6420696E 
 1979      7400
 1980              	.LASF28:
 1981 032e 54494D45 		.ascii	"TIMER0_IRQHandler\000"
 1981      52305F49 
 1981      52514861 
 1981      6E646C65 
 1981      7200
 1982              	.LASF69:
 1983 0340 2E2E2F65 		.ascii	"../epcf/native/port/arm/cm3/nxp/lpc1768/source/vect"
 1983      7063662F 
 1983      6E617469 
 1983      76652F70 
 1983      6F72742F 
 1984 0373 6F72735F 		.ascii	"ors_lpc1768.c\000"
 1984      6C706331 
 1984      3736382E 
 1984      6300
 1985              	.LASF26:
 1986 0381 53797354 		.ascii	"SysTick_Handler\000"
 1986      69636B5F 
 1986      48616E64 
 1986      6C657200 
ARM GAS  /tmp/ccADbD3X.s 			page 42


 1987              	.LASF45:
 1988 0391 45494E54 		.ascii	"EINT0_IRQHandler\000"
 1988      305F4952 
 1988      5148616E 
 1988      646C6572 
 1988      00
 1989              	.LASF6:
 1990 03a2 5F5F696E 		.ascii	"__int32_t\000"
 1990      7433325F 
 1990      7400
 1991              	.LASF30:
 1992 03ac 54494D45 		.ascii	"TIMER2_IRQHandler\000"
 1992      52325F49 
 1992      52514861 
 1992      6E646C65 
 1992      7200
 1993              	.LASF21:
 1994 03be 42757346 		.ascii	"BusFault_Handler\000"
 1994      61756C74 
 1994      5F48616E 
 1994      646C6572 
 1994      00
 1995              	.LASF71:
 1996 03cf 52657365 		.ascii	"ResetHandler\000"
 1996      7448616E 
 1996      646C6572 
 1996      00
 1997              	.LASF70:
 1998 03dc 2F686F6D 		.ascii	"/home/majorviraj/Desktop/Self balancing/codes/epcf_"
 1998      652F6D61 
 1998      6A6F7276 
 1998      6972616A 
 1998      2F446573 
 1999 040f 70726F6A 		.ascii	"project/app\000"
 1999      6563742F 
 1999      61707000 
 2000              	.LASF60:
 2001 041b 5F737465 		.ascii	"_stext\000"
 2001      787400
 2002              	.LASF67:
 2003 0422 67566563 		.ascii	"gVectors\000"
 2003      746F7273 
 2003      00
 2004              	.LASF25:
 2005 042b 50656E64 		.ascii	"PendSV_Handler\000"
 2005      53565F48 
 2005      616E646C 
 2005      657200
 2006              	.LASF16:
 2007 043a 70537263 		.ascii	"pSrc\000"
 2007      00
 2008              	.LASF20:
 2009 043f 4D656D4D 		.ascii	"MemManage_Handler\000"
 2009      616E6167 
 2009      655F4861 
 2009      6E646C65 
 2009      7200
ARM GAS  /tmp/ccADbD3X.s 			page 43


 2010              	.LASF23:
 2011 0451 5356435F 		.ascii	"SVC_Handler\000"
 2011      48616E64 
 2011      6C657200 
 2012              	.LASF59:
 2013 045d 49544D5F 		.ascii	"ITM_RxBuffer\000"
 2013      52784275 
 2013      66666572 
 2013      00
 2014              	.LASF47:
 2015 046a 45494E54 		.ascii	"EINT2_IRQHandler\000"
 2015      325F4952 
 2015      5148616E 
 2015      646C6572 
 2015      00
 2016              	.LASF61:
 2017 047b 5F657465 		.ascii	"_etext\000"
 2017      787400
 2018              	.LASF64:
 2019 0482 5F736273 		.ascii	"_sbss\000"
 2019      7300
 2020              	.LASF48:
 2021 0488 45494E54 		.ascii	"EINT3_IRQHandler\000"
 2021      335F4952 
 2021      5148616E 
 2021      646C6572 
 2021      00
 2022              		.ident	"GCC: (15:4.9.3+svn231177-1) 4.9.3 20150529 (prerelease)"
ARM GAS  /tmp/ccADbD3X.s 			page 44


DEFINED SYMBOLS
                            *ABS*:0000000000000000 vectors_lpc1768.c
     /tmp/ccADbD3X.s:54     .vectors:0000000000000000 gVectors
     /tmp/ccADbD3X.s:51     .vectors:0000000000000000 $d
     /tmp/ccADbD3X.s:109    .text:0000000000000000 ResetHandler
     /tmp/ccADbD3X.s:192    .text:0000000000000068 NMI_Handler
     /tmp/ccADbD3X.s:210    .text:000000000000006c HardFault_Handler
     /tmp/ccADbD3X.s:228    .text:0000000000000070 MemManage_Handler
     /tmp/ccADbD3X.s:246    .text:0000000000000074 BusFault_Handler
     /tmp/ccADbD3X.s:264    .text:0000000000000078 UsageFault_Handler
     /tmp/ccADbD3X.s:282    .text:000000000000007c SVC_Handler
     /tmp/ccADbD3X.s:300    .text:0000000000000080 DebugMon_Handler
     /tmp/ccADbD3X.s:318    .text:0000000000000084 PendSV_Handler
     /tmp/ccADbD3X.s:336    .text:0000000000000088 SysTick_Handler
     /tmp/ccADbD3X.s:354    .text:000000000000008c WDT_IRQHandler
     /tmp/ccADbD3X.s:372    .text:0000000000000090 TIMER0_IRQHandler
     /tmp/ccADbD3X.s:390    .text:0000000000000094 TIMER1_IRQHandler
     /tmp/ccADbD3X.s:408    .text:0000000000000098 TIMER2_IRQHandler
     /tmp/ccADbD3X.s:426    .text:000000000000009c TIMER3_IRQHandler
     /tmp/ccADbD3X.s:444    .text:00000000000000a0 UART0_IRQHandler
     /tmp/ccADbD3X.s:462    .text:00000000000000a4 UART1_IRQHandler
     /tmp/ccADbD3X.s:480    .text:00000000000000a8 UART2_IRQHandler
     /tmp/ccADbD3X.s:498    .text:00000000000000ac UART3_IRQHandler
     /tmp/ccADbD3X.s:516    .text:00000000000000b0 PWM_IRQHandler
     /tmp/ccADbD3X.s:534    .text:00000000000000b4 I2C0_IRQHandler
     /tmp/ccADbD3X.s:552    .text:00000000000000b8 I2C1_IRQHandler
     /tmp/ccADbD3X.s:570    .text:00000000000000bc I2C2_IRQHandler
     /tmp/ccADbD3X.s:588    .text:00000000000000c0 SPI_IRQHandler
     /tmp/ccADbD3X.s:606    .text:00000000000000c4 SSP0_IRQHandler
     /tmp/ccADbD3X.s:624    .text:00000000000000c8 SSP1_IRQHandler
     /tmp/ccADbD3X.s:642    .text:00000000000000cc PLL0_IRQHandler
     /tmp/ccADbD3X.s:660    .text:00000000000000d0 RTC_IRQHandler
     /tmp/ccADbD3X.s:678    .text:00000000000000d4 EINT0_IRQHandler
     /tmp/ccADbD3X.s:696    .text:00000000000000d8 EINT1_IRQHandler
     /tmp/ccADbD3X.s:714    .text:00000000000000dc EINT2_IRQHandler
     /tmp/ccADbD3X.s:732    .text:00000000000000e0 EINT3_IRQHandler
     /tmp/ccADbD3X.s:750    .text:00000000000000e4 ADC_IRQHandler
     /tmp/ccADbD3X.s:768    .text:00000000000000e8 BOD_IRQHandler
     /tmp/ccADbD3X.s:786    .text:00000000000000ec USB_IRQHandler
     /tmp/ccADbD3X.s:804    .text:00000000000000f0 CAN_IRQHandler
     /tmp/ccADbD3X.s:822    .text:00000000000000f4 DMA_IRQHandler
     /tmp/ccADbD3X.s:840    .text:00000000000000f8 I2S_IRQHandler
     /tmp/ccADbD3X.s:858    .text:00000000000000fc ENET_IRQHandler
     /tmp/ccADbD3X.s:876    .text:0000000000000100 RIT_IRQHandler
     /tmp/ccADbD3X.s:894    .text:0000000000000104 MCPWM_IRQHandler
     /tmp/ccADbD3X.s:912    .text:0000000000000108 QEI_IRQHandler
     /tmp/ccADbD3X.s:104    .text:0000000000000000 $t
     /tmp/ccADbD3X.s:177    .text:000000000000004c $d
     /tmp/ccADbD3X.s:187    .text:0000000000000068 $t
                     .debug_frame:0000000000000010 $d

UNDEFINED SYMBOLS
_estack
main
_stext
_etext
_sdata
ARM GAS  /tmp/ccADbD3X.s 			page 45


_edata
_sbss
_ebss
