ARM GAS  /tmp/ccl4PqGW.s 			page 1


   1              		.syntax unified
   2              		.cpu cortex-m3
   3              		.fpu softvfp
   4              		.eabi_attribute 20, 1	@ Tag_ABI_FP_denormal
   5              		.eabi_attribute 21, 1	@ Tag_ABI_FP_exceptions
   6              		.eabi_attribute 23, 3	@ Tag_ABI_FP_number_model
   7              		.eabi_attribute 24, 1	@ Tag_ABI_align8_needed
   8              		.eabi_attribute 25, 1	@ Tag_ABI_align8_preserved
   9              		.eabi_attribute 26, 1	@ Tag_ABI_enum_size
  10              		.eabi_attribute 30, 6	@ Tag_ABI_optimization_goals
  11              		.eabi_attribute 34, 1	@ Tag_CPU_unaligned_access
  12              		.eabi_attribute 18, 4	@ Tag_ABI_PCS_wchar_t
  13              		.file	"app.c"
  14              	@ GNU C (15:4.9.3+svn231177-1) version 4.9.3 20150529 (prerelease) (arm-none-eabi)
  15              	@	compiled by GNU C version 5.2.1 20151129, GMP version 6.1.0, MPFR version 3.1.3, MPC version 1.0.
  16              	@ warning: MPFR header version 3.1.3 differs from library version 3.1.4.
  17              	@ GGC heuristics: --param ggc-min-expand=100 --param ggc-min-heapsize=131072
  18              	@ options passed:  -I . -I ./include -I ../pcf/include -imultilib armv7-m
  19              	@ -MD Build/Obj/Debug/app.d -MF Build/.dep/app.o.d -MP
  20              	@ -MQ Build/Obj/Debug/app.o -D__USES_INITFINI__ ./source/app.c
  21              	@ -mcpu=cortex-m3 -mthumb -auxbase-strip Build/Obj/Debug/app.o -gdwarf-2
  22              	@ -O0 -Wall -Wno-cpp -std=gnu99 -fomit-frame-pointer -fverbose-asm
  23              	@ options enabled:  -faggressive-loop-optimizations -fauto-inc-dec -fcommon
  24              	@ -fdelete-null-pointer-checks -fdwarf2-cfi-asm -fearly-inlining
  25              	@ -feliminate-unused-debug-types -ffunction-cse -fgcse-lm -fgnu-runtime
  26              	@ -fgnu-unique -fident -finline-atomics -fira-hoist-pressure
  27              	@ -fira-share-save-slots -fira-share-spill-slots -fivopts
  28              	@ -fkeep-static-consts -fleading-underscore -flifetime-dse -fmath-errno
  29              	@ -fmerge-debug-strings -fomit-frame-pointer -fpeephole
  30              	@ -fprefetch-loop-arrays -freg-struct-return
  31              	@ -fsched-critical-path-heuristic -fsched-dep-count-heuristic
  32              	@ -fsched-group-heuristic -fsched-interblock -fsched-last-insn-heuristic
  33              	@ -fsched-rank-heuristic -fsched-spec -fsched-spec-insn-heuristic
  34              	@ -fsched-stalled-insns-dep -fshow-column -fsigned-zeros
  35              	@ -fsplit-ivs-in-unroller -fstrict-volatile-bitfields -fsync-libcalls
  36              	@ -ftrapping-math -ftree-coalesce-vars -ftree-cselim -ftree-forwprop
  37              	@ -ftree-loop-if-convert -ftree-loop-im -ftree-loop-ivcanon
  38              	@ -ftree-loop-optimize -ftree-parallelize-loops= -ftree-phiprop
  39              	@ -ftree-reassoc -ftree-scev-cprop -funit-at-a-time -fverbose-asm
  40              	@ -fzero-initialized-in-bss -mfix-cortex-m3-ldrd -mlittle-endian -mlra
  41              	@ -mpic-data-is-text-relative -msched-prolog -mthumb -munaligned-access
  42              	@ -mvectorize-with-neon-quad
  43              	
  44              		.text
  45              	.Ltext0:
  46              		.cfi_sections	.debug_frame
  47              		.comm	uart_Config,20,4
  48              		.section	.rodata
  49              		.align	2
  50              	.LC1:
  51 0000 48656C6C 		.ascii	"Hello World \012\000"
  51      6F20576F 
  51      726C6420 
  51      0A00
  52 000e 0000     		.align	2
  53              	.LC0:
  54              	@ count:
ARM GAS  /tmp/ccl4PqGW.s 			page 2


  55 0010 64000000 		.word	100
  56              	@ unit:
  57 0014 03       		.byte	3
  58 0015 000000   		.space	3
  59              		.text
  60              		.align	2
  61              		.global	main
  62              		.thumb
  63              		.thumb_func
  64              		.type	main, %function
  65              	main:
  66              	.LFB40:
  67              		.file 1 "./source/app.c"
   1:./source/app.c **** /**
   2:./source/app.c ****  *  \file       app.c
   3:./source/app.c ****  *  \brief      Source file for the application program
   4:./source/app.c ****  *
   5:./source/app.c ****  */
   6:./source/app.c **** //#define _PCF_INTERNAL_DEBUG
   7:./source/app.c **** 
   8:./source/app.c **** #include "pcf.h"
   9:./source/app.c **** #include "appConfig.h"
  10:./source/app.c **** 
  11:./source/app.c **** extern EPCFGpioDevice_t *myGpio;
  12:./source/app.c **** extern EPCFGpioDevice_t *LED;
  13:./source/app.c **** extern EPCFGpioDevice_t *myLED;
  14:./source/app.c **** extern EPCFGpioDevice_t *Switch;
  15:./source/app.c **** extern EPCFUartDevice_t *myUART; 
  16:./source/app.c **** 
  17:./source/app.c **** EPCFUartCfg_t uart_Config; 
  18:./source/app.c **** 
  19:./source/app.c **** int main()
  20:./source/app.c **** {
  68              		.loc 1 20 0
  69              		.cfi_startproc
  70              		@ args = 0, pretend = 0, frame = 80
  71              		@ frame_needed = 0, uses_anonymous_args = 0
  72 0000 10B5     		push	{r4, lr}	@
  73              	.LCFI0:
  74              		.cfi_def_cfa_offset 8
  75              		.cfi_offset 4, -8
  76              		.cfi_offset 14, -4
  77 0002 96B0     		sub	sp, sp, #88	@,,
  78              	.LCFI1:
  79              		.cfi_def_cfa_offset 96
  21:./source/app.c ****     int8_t status1=0;
  80              		.loc 1 21 0
  81 0004 0023     		movs	r3, #0	@ tmp121,
  82 0006 8DF82730 		strb	r3, [sp, #39]	@ tmp122, status1
  22:./source/app.c **** 	int8_t status2=0;
  83              		.loc 1 22 0
  84 000a 0023     		movs	r3, #0	@ tmp123,
  85 000c 8DF82630 		strb	r3, [sp, #38]	@ tmp124, status2
  23:./source/app.c **** 	int8_t Switch_Status=0;
  86              		.loc 1 23 0
  87 0010 0023     		movs	r3, #0	@ tmp125,
  88 0012 8DF82530 		strb	r3, [sp, #37]	@ tmp126, Switch_Status
ARM GAS  /tmp/ccl4PqGW.s 			page 3


  24:./source/app.c ****     status1 = appInit();
  89              		.loc 1 24 0
  90 0016 FFF7FEFF 		bl	appInit	@
  91 001a 0346     		mov	r3, r0	@ tmp127,
  92 001c 8DF82730 		strb	r3, [sp, #39]	@ tmp128, status1
  25:./source/app.c ****     APP_DEBUG("ZHALO MI CHALU\n");
  26:./source/app.c ****     if(status1 == 0)
  93              		.loc 1 26 0
  94 0020 9DF92730 		ldrsb	r3, [sp, #39]	@ tmp129, status1
  95 0024 002B     		cmp	r3, #0	@ tmp129,
  96 0026 00D0     		beq	.L2	@,
  97              	.L3:
  27:./source/app.c ****     {
  28:./source/app.c ****         APP_DEBUG("App configuration success\n");
  29:./source/app.c ****     }
  30:./source/app.c ****     else
  31:./source/app.c ****     {
  32:./source/app.c ****         APP_DEBUG("Error in App configuration!\n");
  33:./source/app.c ****         while(1);
  98              		.loc 1 33 0 discriminator 1
  99 0028 FEE7     		b	.L3	@
 100              	.L2:
  34:./source/app.c ****     }
  35:./source/app.c **** 
  36:./source/app.c ****     char p[] = "Hello World \n";
 101              		.loc 1 36 0
 102 002a 644B     		ldr	r3, .L33	@ tmp130,
 103 002c 05AC     		add	r4, sp, #20	@ tmp131,,
 104 002e 0FCB     		ldmia	r3, {r0, r1, r2, r3}	@ tmp132,,,,
 105 0030 07C4     		stmia	r4!, {r0, r1, r2}	@ tmp131,,,
 106 0032 2380     		strh	r3, [r4]	@ movhi	@, p
  37:./source/app.c **** 
  38:./source/app.c ****     EPCFTime_t timeOut = {100, enEPCFTimeUnit_s,};
 107              		.loc 1 38 0
 108 0034 624A     		ldr	r2, .L33+4	@ tmp133,
 109 0036 03AB     		add	r3, sp, #12	@ tmp134,,
 110 0038 92E80300 		ldmia	r2, {r0, r1}	@ tmp135,,
 111 003c 83E80300 		stmia	r3, {r0, r1}	@ tmp134,,
 112              	.LBB2:
  39:./source/app.c ****     
  40:./source/app.c ****     for(int i=0;i <3; i++) {
 113              		.loc 1 40 0
 114 0040 0023     		movs	r3, #0	@ tmp136,
 115 0042 1593     		str	r3, [sp, #84]	@ tmp136, i
 116 0044 20E0     		b	.L4	@
 117              	.L9:
 118              	.LBB3:
  41:./source/app.c ****     	for (uint32_t i=0; i<5000000; i++);
 119              		.loc 1 41 0
 120 0046 0023     		movs	r3, #0	@ tmp137,
 121 0048 1493     		str	r3, [sp, #80]	@ tmp137, i
 122 004a 02E0     		b	.L5	@
 123              	.L6:
 124              		.loc 1 41 0 is_stmt 0 discriminator 3
 125 004c 149B     		ldr	r3, [sp, #80]	@ tmp139, i
 126 004e 0133     		adds	r3, r3, #1	@ tmp138, tmp139,
 127 0050 1493     		str	r3, [sp, #80]	@ tmp138, i
ARM GAS  /tmp/ccl4PqGW.s 			page 4


 128              	.L5:
 129              		.loc 1 41 0 discriminator 1
 130 0052 149B     		ldr	r3, [sp, #80]	@ tmp140, i
 131 0054 5B4A     		ldr	r2, .L33+8	@ tmp141,
 132 0056 9342     		cmp	r3, r2	@ tmp140, tmp141
 133 0058 F8D9     		bls	.L6	@,
 134              	.LBE3:
  42:./source/app.c ****     	epcf_gpio_set(LED);	
 135              		.loc 1 42 0 is_stmt 1
 136 005a 5B4B     		ldr	r3, .L33+12	@ tmp142,
 137 005c 1B68     		ldr	r3, [r3]	@ D.6221, LED
 138 005e 1846     		mov	r0, r3	@, D.6221
 139 0060 FFF7FEFF 		bl	epcf_gpio_set	@
 140              	.LBB4:
  43:./source/app.c ****     	for (uint32_t i=0; i<5000000; i++);
 141              		.loc 1 43 0
 142 0064 0023     		movs	r3, #0	@ tmp143,
 143 0066 1393     		str	r3, [sp, #76]	@ tmp143, i
 144 0068 02E0     		b	.L7	@
 145              	.L8:
 146              		.loc 1 43 0 is_stmt 0 discriminator 3
 147 006a 139B     		ldr	r3, [sp, #76]	@ tmp145, i
 148 006c 0133     		adds	r3, r3, #1	@ tmp144, tmp145,
 149 006e 1393     		str	r3, [sp, #76]	@ tmp144, i
 150              	.L7:
 151              		.loc 1 43 0 discriminator 1
 152 0070 139B     		ldr	r3, [sp, #76]	@ tmp146, i
 153 0072 544A     		ldr	r2, .L33+8	@ tmp147,
 154 0074 9342     		cmp	r3, r2	@ tmp146, tmp147
 155 0076 F8D9     		bls	.L8	@,
 156              	.LBE4:
  44:./source/app.c ****     	epcf_gpio_clear(LED);	
 157              		.loc 1 44 0 is_stmt 1 discriminator 2
 158 0078 534B     		ldr	r3, .L33+12	@ tmp148,
 159 007a 1B68     		ldr	r3, [r3]	@ D.6221, LED
 160 007c 1846     		mov	r0, r3	@, D.6221
 161 007e FFF7FEFF 		bl	epcf_gpio_clear	@
  40:./source/app.c ****     	for (uint32_t i=0; i<5000000; i++);
 162              		.loc 1 40 0 discriminator 2
 163 0082 159B     		ldr	r3, [sp, #84]	@ tmp150, i
 164 0084 0133     		adds	r3, r3, #1	@ tmp149, tmp150,
 165 0086 1593     		str	r3, [sp, #84]	@ tmp149, i
 166              	.L4:
  40:./source/app.c ****     	for (uint32_t i=0; i<5000000; i++);
 167              		.loc 1 40 0 is_stmt 0 discriminator 1
 168 0088 159B     		ldr	r3, [sp, #84]	@ tmp151, i
 169 008a 022B     		cmp	r3, #2	@ tmp151,
 170 008c DBDD     		ble	.L9	@,
 171              	.LBE2:
  45:./source/app.c ****     }
  46:./source/app.c ****     
  47:./source/app.c ****     int8_t status_UART = 0;
 172              		.loc 1 47 0 is_stmt 1
 173 008e 0023     		movs	r3, #0	@ tmp152,
 174 0090 8DF82430 		strb	r3, [sp, #36]	@ tmp153, status_UART
 175              	.L32:
  48:./source/app.c **** 
ARM GAS  /tmp/ccl4PqGW.s 			page 5


  49:./source/app.c ****     while(1)
  50:./source/app.c ****     {	
  51:./source/app.c **** 
  52:./source/app.c **** 		// for (uint32_t i=0; i<5000000; i++);
  53:./source/app.c **** 		// epcf_gpio_set(myLED);	
  54:./source/app.c **** 		// epcf_uart_write(myUART, (uint8_t*)dataPointer, 4 ,timeOut);
  55:./source/app.c **** 		// for (uint32_t i=0; i<5000000; i++);
  56:./source/app.c **** 		// epcf_gpio_clear(myLED);	
  57:./source/app.c **** 
  58:./source/app.c **** 		status_UART = epcf_uart_write(myUART, (uint8_t *)&p, sizeof(p) ,timeOut);
 176              		.loc 1 58 0
 177 0094 4D4B     		ldr	r3, .L33+16	@ tmp154,
 178 0096 1968     		ldr	r1, [r3]	@ D.6222, myUART
 179 0098 05AA     		add	r2, sp, #20	@ tmp155,,
 180 009a 049B     		ldr	r3, [sp, #16]	@ tmp156, timeOut
 181 009c 0093     		str	r3, [sp]	@ tmp156,
 182 009e 039B     		ldr	r3, [sp, #12]	@, timeOut
 183 00a0 0846     		mov	r0, r1	@, D.6222
 184 00a2 1146     		mov	r1, r2	@, tmp155
 185 00a4 0E22     		movs	r2, #14	@,
 186 00a6 FFF7FEFF 		bl	epcf_uart_write	@
 187 00aa 0346     		mov	r3, r0	@ D.6223,
 188 00ac 8DF82430 		strb	r3, [sp, #36]	@ tmp157, status_UART
  59:./source/app.c **** 		if(status_UART == EPCF_STATUS_BUSY)
 189              		.loc 1 59 0
 190 00b0 9DF92430 		ldrsb	r3, [sp, #36]	@ tmp158, status_UART
 191 00b4 13F1080F 		cmn	r3, #8	@ tmp158,
 192 00b8 27D1     		bne	.L10	@,
 193              	.LBB5:
  60:./source/app.c **** 		{
  61:./source/app.c **** 			int k = 0;
 194              		.loc 1 61 0
 195 00ba 0023     		movs	r3, #0	@ tmp159,
 196 00bc 1293     		str	r3, [sp, #72]	@ tmp159, k
  62:./source/app.c **** 			while(k<3) {
 197              		.loc 1 62 0
 198 00be 20E0     		b	.L11	@
 199              	.L16:
 200              	.LBB6:
  63:./source/app.c **** 				for (uint32_t i=0; i<5000000; i++);
 201              		.loc 1 63 0
 202 00c0 0023     		movs	r3, #0	@ tmp160,
 203 00c2 1193     		str	r3, [sp, #68]	@ tmp160, i
 204 00c4 02E0     		b	.L12	@
 205              	.L13:
 206              		.loc 1 63 0 is_stmt 0 discriminator 3
 207 00c6 119B     		ldr	r3, [sp, #68]	@ tmp162, i
 208 00c8 0133     		adds	r3, r3, #1	@ tmp161, tmp162,
 209 00ca 1193     		str	r3, [sp, #68]	@ tmp161, i
 210              	.L12:
 211              		.loc 1 63 0 discriminator 1
 212 00cc 119B     		ldr	r3, [sp, #68]	@ tmp163, i
 213 00ce 3D4A     		ldr	r2, .L33+8	@ tmp164,
 214 00d0 9342     		cmp	r3, r2	@ tmp163, tmp164
 215 00d2 F8D9     		bls	.L13	@,
 216              	.LBE6:
  64:./source/app.c **** 				epcf_gpio_set(LED);	
ARM GAS  /tmp/ccl4PqGW.s 			page 6


 217              		.loc 1 64 0 is_stmt 1
 218 00d4 3C4B     		ldr	r3, .L33+12	@ tmp165,
 219 00d6 1B68     		ldr	r3, [r3]	@ D.6221, LED
 220 00d8 1846     		mov	r0, r3	@, D.6221
 221 00da FFF7FEFF 		bl	epcf_gpio_set	@
 222              	.LBB7:
  65:./source/app.c **** 				for (uint32_t i=0; i<5000000; i++);
 223              		.loc 1 65 0
 224 00de 0023     		movs	r3, #0	@ tmp166,
 225 00e0 1093     		str	r3, [sp, #64]	@ tmp166, i
 226 00e2 02E0     		b	.L14	@
 227              	.L15:
 228              		.loc 1 65 0 is_stmt 0 discriminator 3
 229 00e4 109B     		ldr	r3, [sp, #64]	@ tmp168, i
 230 00e6 0133     		adds	r3, r3, #1	@ tmp167, tmp168,
 231 00e8 1093     		str	r3, [sp, #64]	@ tmp167, i
 232              	.L14:
 233              		.loc 1 65 0 discriminator 1
 234 00ea 109B     		ldr	r3, [sp, #64]	@ tmp169, i
 235 00ec 354A     		ldr	r2, .L33+8	@ tmp170,
 236 00ee 9342     		cmp	r3, r2	@ tmp169, tmp170
 237 00f0 F8D9     		bls	.L15	@,
 238              	.LBE7:
  66:./source/app.c **** 				epcf_gpio_clear(LED);		
 239              		.loc 1 66 0 is_stmt 1
 240 00f2 354B     		ldr	r3, .L33+12	@ tmp171,
 241 00f4 1B68     		ldr	r3, [r3]	@ D.6221, LED
 242 00f6 1846     		mov	r0, r3	@, D.6221
 243 00f8 FFF7FEFF 		bl	epcf_gpio_clear	@
  67:./source/app.c **** 				k++;
 244              		.loc 1 67 0
 245 00fc 129B     		ldr	r3, [sp, #72]	@ tmp173, k
 246 00fe 0133     		adds	r3, r3, #1	@ tmp172, tmp173,
 247 0100 1293     		str	r3, [sp, #72]	@ tmp172, k
 248              	.L11:
  62:./source/app.c **** 				for (uint32_t i=0; i<5000000; i++);
 249              		.loc 1 62 0
 250 0102 129B     		ldr	r3, [sp, #72]	@ tmp174, k
 251 0104 022B     		cmp	r3, #2	@ tmp174,
 252 0106 DBDD     		ble	.L16	@,
 253              	.LBE5:
 254 0108 57E0     		b	.L17	@
 255              	.L10:
  68:./source/app.c **** 			}
  69:./source/app.c **** 			
  70:./source/app.c **** 		}
  71:./source/app.c **** 		else if (status_UART == EPCF_STATUS_NO_MEMORY)
 256              		.loc 1 71 0
 257 010a 9DF92430 		ldrsb	r3, [sp, #36]	@ tmp175, status_UART
 258 010e 13F1060F 		cmn	r3, #6	@ tmp175,
 259 0112 27D1     		bne	.L18	@,
 260              	.LBB8:
  72:./source/app.c **** 		{
  73:./source/app.c **** 			int k = 0;
 261              		.loc 1 73 0
 262 0114 0023     		movs	r3, #0	@ tmp176,
 263 0116 0F93     		str	r3, [sp, #60]	@ tmp176, k
ARM GAS  /tmp/ccl4PqGW.s 			page 7


  74:./source/app.c **** 			while(k<3) {
 264              		.loc 1 74 0
 265 0118 20E0     		b	.L19	@
 266              	.L24:
 267              	.LBB9:
  75:./source/app.c **** 				for (uint32_t i=0; i<5000000; i++);
 268              		.loc 1 75 0
 269 011a 0023     		movs	r3, #0	@ tmp177,
 270 011c 0E93     		str	r3, [sp, #56]	@ tmp177, i
 271 011e 02E0     		b	.L20	@
 272              	.L21:
 273              		.loc 1 75 0 is_stmt 0 discriminator 3
 274 0120 0E9B     		ldr	r3, [sp, #56]	@ tmp179, i
 275 0122 0133     		adds	r3, r3, #1	@ tmp178, tmp179,
 276 0124 0E93     		str	r3, [sp, #56]	@ tmp178, i
 277              	.L20:
 278              		.loc 1 75 0 discriminator 1
 279 0126 0E9B     		ldr	r3, [sp, #56]	@ tmp180, i
 280 0128 264A     		ldr	r2, .L33+8	@ tmp181,
 281 012a 9342     		cmp	r3, r2	@ tmp180, tmp181
 282 012c F8D9     		bls	.L21	@,
 283              	.LBE9:
  76:./source/app.c **** 				epcf_gpio_set(myGpio);	
 284              		.loc 1 76 0 is_stmt 1
 285 012e 284B     		ldr	r3, .L33+20	@ tmp182,
 286 0130 1B68     		ldr	r3, [r3]	@ D.6221, myGpio
 287 0132 1846     		mov	r0, r3	@, D.6221
 288 0134 FFF7FEFF 		bl	epcf_gpio_set	@
 289              	.LBB10:
  77:./source/app.c **** 				for (uint32_t i=0; i<5000000; i++);
 290              		.loc 1 77 0
 291 0138 0023     		movs	r3, #0	@ tmp183,
 292 013a 0D93     		str	r3, [sp, #52]	@ tmp183, i
 293 013c 02E0     		b	.L22	@
 294              	.L23:
 295              		.loc 1 77 0 is_stmt 0 discriminator 3
 296 013e 0D9B     		ldr	r3, [sp, #52]	@ tmp185, i
 297 0140 0133     		adds	r3, r3, #1	@ tmp184, tmp185,
 298 0142 0D93     		str	r3, [sp, #52]	@ tmp184, i
 299              	.L22:
 300              		.loc 1 77 0 discriminator 1
 301 0144 0D9B     		ldr	r3, [sp, #52]	@ tmp186, i
 302 0146 1F4A     		ldr	r2, .L33+8	@ tmp187,
 303 0148 9342     		cmp	r3, r2	@ tmp186, tmp187
 304 014a F8D9     		bls	.L23	@,
 305              	.LBE10:
  78:./source/app.c **** 				epcf_gpio_clear(myGpio);		
 306              		.loc 1 78 0 is_stmt 1
 307 014c 204B     		ldr	r3, .L33+20	@ tmp188,
 308 014e 1B68     		ldr	r3, [r3]	@ D.6221, myGpio
 309 0150 1846     		mov	r0, r3	@, D.6221
 310 0152 FFF7FEFF 		bl	epcf_gpio_clear	@
  79:./source/app.c **** 				k++;
 311              		.loc 1 79 0
 312 0156 0F9B     		ldr	r3, [sp, #60]	@ tmp190, k
 313 0158 0133     		adds	r3, r3, #1	@ tmp189, tmp190,
 314 015a 0F93     		str	r3, [sp, #60]	@ tmp189, k
ARM GAS  /tmp/ccl4PqGW.s 			page 8


 315              	.L19:
  74:./source/app.c **** 				for (uint32_t i=0; i<5000000; i++);
 316              		.loc 1 74 0
 317 015c 0F9B     		ldr	r3, [sp, #60]	@ tmp191, k
 318 015e 022B     		cmp	r3, #2	@ tmp191,
 319 0160 DBDD     		ble	.L24	@,
 320              	.L25:
  80:./source/app.c **** 			}
  81:./source/app.c **** 			APP_DEBUG("No Memory\n");
  82:./source/app.c **** 			while(1);
 321              		.loc 1 82 0 discriminator 3
 322 0162 FEE7     		b	.L25	@
 323              	.L18:
 324              	.LBE8:
  83:./source/app.c **** 		}
  84:./source/app.c **** 		else if (status_UART == EPCF_STATUS_SUCCESS)
 325              		.loc 1 84 0
 326 0164 9DF92430 		ldrsb	r3, [sp, #36]	@ tmp192, status_UART
 327 0168 002B     		cmp	r3, #0	@ tmp192,
 328 016a 26D1     		bne	.L17	@,
 329              	.LBB11:
  85:./source/app.c **** 		{
  86:./source/app.c **** 			int k = 0;
 330              		.loc 1 86 0
 331 016c 0023     		movs	r3, #0	@ tmp193,
 332 016e 0C93     		str	r3, [sp, #48]	@ tmp193, k
  87:./source/app.c **** 			while(k<3) {
 333              		.loc 1 87 0
 334 0170 20E0     		b	.L26	@
 335              	.L31:
 336              	.LBB12:
  88:./source/app.c **** 				for (uint32_t i=0; i<5000000; i++);
 337              		.loc 1 88 0
 338 0172 0023     		movs	r3, #0	@ tmp194,
 339 0174 0B93     		str	r3, [sp, #44]	@ tmp194, i
 340 0176 02E0     		b	.L27	@
 341              	.L28:
 342              		.loc 1 88 0 is_stmt 0 discriminator 3
 343 0178 0B9B     		ldr	r3, [sp, #44]	@ tmp196, i
 344 017a 0133     		adds	r3, r3, #1	@ tmp195, tmp196,
 345 017c 0B93     		str	r3, [sp, #44]	@ tmp195, i
 346              	.L27:
 347              		.loc 1 88 0 discriminator 1
 348 017e 0B9B     		ldr	r3, [sp, #44]	@ tmp197, i
 349 0180 104A     		ldr	r2, .L33+8	@ tmp198,
 350 0182 9342     		cmp	r3, r2	@ tmp197, tmp198
 351 0184 F8D9     		bls	.L28	@,
 352              	.LBE12:
  89:./source/app.c **** 				epcf_gpio_set(myLED);	
 353              		.loc 1 89 0 is_stmt 1
 354 0186 134B     		ldr	r3, .L33+24	@ tmp199,
 355 0188 1B68     		ldr	r3, [r3]	@ D.6221, myLED
 356 018a 1846     		mov	r0, r3	@, D.6221
 357 018c FFF7FEFF 		bl	epcf_gpio_set	@
 358              	.LBB13:
  90:./source/app.c **** 				for (uint32_t i=0; i<5000000; i++);
 359              		.loc 1 90 0
ARM GAS  /tmp/ccl4PqGW.s 			page 9


 360 0190 0023     		movs	r3, #0	@ tmp200,
 361 0192 0A93     		str	r3, [sp, #40]	@ tmp200, i
 362 0194 02E0     		b	.L29	@
 363              	.L30:
 364              		.loc 1 90 0 is_stmt 0 discriminator 3
 365 0196 0A9B     		ldr	r3, [sp, #40]	@ tmp202, i
 366 0198 0133     		adds	r3, r3, #1	@ tmp201, tmp202,
 367 019a 0A93     		str	r3, [sp, #40]	@ tmp201, i
 368              	.L29:
 369              		.loc 1 90 0 discriminator 1
 370 019c 0A9B     		ldr	r3, [sp, #40]	@ tmp203, i
 371 019e 094A     		ldr	r2, .L33+8	@ tmp204,
 372 01a0 9342     		cmp	r3, r2	@ tmp203, tmp204
 373 01a2 F8D9     		bls	.L30	@,
 374              	.LBE13:
  91:./source/app.c **** 				epcf_gpio_clear(myLED);		
 375              		.loc 1 91 0 is_stmt 1
 376 01a4 0B4B     		ldr	r3, .L33+24	@ tmp205,
 377 01a6 1B68     		ldr	r3, [r3]	@ D.6221, myLED
 378 01a8 1846     		mov	r0, r3	@, D.6221
 379 01aa FFF7FEFF 		bl	epcf_gpio_clear	@
  92:./source/app.c **** 				k++;
 380              		.loc 1 92 0
 381 01ae 0C9B     		ldr	r3, [sp, #48]	@ tmp207, k
 382 01b0 0133     		adds	r3, r3, #1	@ tmp206, tmp207,
 383 01b2 0C93     		str	r3, [sp, #48]	@ tmp206, k
 384              	.L26:
  87:./source/app.c **** 				for (uint32_t i=0; i<5000000; i++);
 385              		.loc 1 87 0
 386 01b4 0C9B     		ldr	r3, [sp, #48]	@ tmp208, k
 387 01b6 022B     		cmp	r3, #2	@ tmp208,
 388 01b8 DBDD     		ble	.L31	@,
 389              	.L17:
 390              	.LBE11:
  93:./source/app.c **** 			}
  94:./source/app.c **** 		}
  95:./source/app.c **** 
  96:./source/app.c **** 
  97:./source/app.c **** 
  98:./source/app.c ****   //       Switch_Status = epcf_gpio_read(Switch);
  99:./source/app.c **** 		
 100:./source/app.c ****   //       if(Switch_Status == 1)
 101:./source/app.c ****   //       {
 102:./source/app.c **** 		// 	status1 = epcf_gpio_set(LED);
 103:./source/app.c **** 		// 	status2 = epcf_gpio_clear(myGpio);
 104:./source/app.c **** 		// 	if((status1 ==0) || (status2==0))
 105:./source/app.c **** 		// 	{
 106:./source/app.c **** 		// 		APP_DEBUG("LED On\n");
 107:./source/app.c **** 		// 	}
 108:./source/app.c **** 		// 	else
 109:./source/app.c **** 		// 	{
 110:./source/app.c **** 		// 		APP_DEBUG("Error\n");
 111:./source/app.c **** 		// 	}
 112:./source/app.c **** 		// }
 113:./source/app.c **** 	 // if(Switch_Status == 0)
 114:./source/app.c **** 	 // {
 115:./source/app.c **** 		// 	status1 = epcf_gpio_clear(LED);
ARM GAS  /tmp/ccl4PqGW.s 			page 10


 116:./source/app.c **** 		//  	status2 = epcf_gpio_set(myGpio);
 117:./source/app.c **** 		// 	if((status1 ==0) || (status2==0))
 118:./source/app.c **** 		// 	{
 119:./source/app.c **** 		// 		APP_DEBUG("LED Off\n");
 120:./source/app.c **** 		// 	}
 121:./source/app.c **** 		// 	else
 122:./source/app.c **** 		// 	{
 123:./source/app.c **** 		// 		APP_DEBUG("Error\n");
 124:./source/app.c **** 		//  	}
 125:./source/app.c **** 		// }
 126:./source/app.c **** 	}
 391              		.loc 1 126 0 discriminator 2
 392 01ba 6BE7     		b	.L32	@
 393              	.L34:
 394              		.align	2
 395              	.L33:
 396 01bc 00000000 		.word	.LC1
 397 01c0 10000000 		.word	.LC0
 398 01c4 3F4B4C00 		.word	4999999
 399 01c8 00000000 		.word	LED
 400 01cc 00000000 		.word	myUART
 401 01d0 00000000 		.word	myGpio
 402 01d4 00000000 		.word	myLED
 403              		.cfi_endproc
 404              	.LFE40:
 405              		.size	main, .-main
 406              	.Letext0:
 407              		.file 2 "/usr/include/newlib/machine/_default_types.h"
 408              		.file 3 "/usr/include/newlib/sys/_stdint.h"
 409              		.file 4 "../pcf/include/../../epcf/./common/types.h"
 410              		.file 5 "./include/../../epcf/peripheral/include/./gpio/gpio.h"
 411              		.file 6 "./include/../../epcf/peripheral/include/./uart/uart.h"
 412              		.file 7 "../pcf/include/private/arch/arm/cm3/nxp/lpc1768/./../../../../arm/cm3/nxp/lpc1768/lpc1768
 413              		.section	.debug_info,"",%progbits
 414              	.Ldebug_info0:
 415 0000 F6040000 		.4byte	0x4f6
 416 0004 0200     		.2byte	0x2
 417 0006 00000000 		.4byte	.Ldebug_abbrev0
 418 000a 04       		.byte	0x4
 419 000b 01       		.uleb128 0x1
 420 000c AE000000 		.4byte	.LASF83
 421 0010 01       		.byte	0x1
 422 0011 A0050000 		.4byte	.LASF84
 423 0015 90010000 		.4byte	.LASF85
 424 0019 00000000 		.4byte	.Ltext0
 425 001d D8010000 		.4byte	.Letext0
 426 0021 00000000 		.4byte	.Ldebug_line0
 427 0025 02       		.uleb128 0x2
 428 0026 04       		.byte	0x4
 429 0027 07       		.byte	0x7
 430 0028 22030000 		.4byte	.LASF0
 431 002c 03       		.uleb128 0x3
 432 002d 04       		.byte	0x4
 433 002e 05       		.byte	0x5
 434 002f 696E7400 		.ascii	"int\000"
 435 0033 04       		.uleb128 0x4
 436 0034 AE030000 		.4byte	.LASF2
ARM GAS  /tmp/ccl4PqGW.s 			page 11


 437 0038 02       		.byte	0x2
 438 0039 1B       		.byte	0x1b
 439 003a 3E000000 		.4byte	0x3e
 440 003e 02       		.uleb128 0x2
 441 003f 01       		.byte	0x1
 442 0040 06       		.byte	0x6
 443 0041 D5020000 		.4byte	.LASF1
 444 0045 04       		.uleb128 0x4
 445 0046 30020000 		.4byte	.LASF3
 446 004a 02       		.byte	0x2
 447 004b 1D       		.byte	0x1d
 448 004c 50000000 		.4byte	0x50
 449 0050 02       		.uleb128 0x2
 450 0051 01       		.byte	0x1
 451 0052 08       		.byte	0x8
 452 0053 AC020000 		.4byte	.LASF4
 453 0057 02       		.uleb128 0x2
 454 0058 02       		.byte	0x2
 455 0059 05       		.byte	0x5
 456 005a 43000000 		.4byte	.LASF5
 457 005e 02       		.uleb128 0x2
 458 005f 02       		.byte	0x2
 459 0060 07       		.byte	0x7
 460 0061 9B030000 		.4byte	.LASF6
 461 0065 04       		.uleb128 0x4
 462 0066 CC040000 		.4byte	.LASF7
 463 006a 02       		.byte	0x2
 464 006b 3F       		.byte	0x3f
 465 006c 70000000 		.4byte	0x70
 466 0070 02       		.uleb128 0x2
 467 0071 04       		.byte	0x4
 468 0072 05       		.byte	0x5
 469 0073 02020000 		.4byte	.LASF8
 470 0077 04       		.uleb128 0x4
 471 0078 85000000 		.4byte	.LASF9
 472 007c 02       		.byte	0x2
 473 007d 41       		.byte	0x41
 474 007e 82000000 		.4byte	0x82
 475 0082 02       		.uleb128 0x2
 476 0083 04       		.byte	0x4
 477 0084 07       		.byte	0x7
 478 0085 2F030000 		.4byte	.LASF10
 479 0089 02       		.uleb128 0x2
 480 008a 08       		.byte	0x8
 481 008b 05       		.byte	0x5
 482 008c E3010000 		.4byte	.LASF11
 483 0090 02       		.uleb128 0x2
 484 0091 08       		.byte	0x8
 485 0092 07       		.byte	0x7
 486 0093 E1020000 		.4byte	.LASF12
 487 0097 02       		.uleb128 0x2
 488 0098 04       		.byte	0x4
 489 0099 07       		.byte	0x7
 490 009a 77000000 		.4byte	.LASF13
 491 009e 05       		.uleb128 0x5
 492 009f 04       		.byte	0x4
 493 00a0 02       		.uleb128 0x2
ARM GAS  /tmp/ccl4PqGW.s 			page 12


 494 00a1 01       		.byte	0x1
 495 00a2 08       		.byte	0x8
 496 00a3 C5030000 		.4byte	.LASF14
 497 00a7 04       		.uleb128 0x4
 498 00a8 29000000 		.4byte	.LASF15
 499 00ac 03       		.byte	0x3
 500 00ad 13       		.byte	0x13
 501 00ae 33000000 		.4byte	0x33
 502 00b2 04       		.uleb128 0x4
 503 00b3 A6000000 		.4byte	.LASF16
 504 00b7 03       		.byte	0x3
 505 00b8 14       		.byte	0x14
 506 00b9 45000000 		.4byte	0x45
 507 00bd 04       		.uleb128 0x4
 508 00be DF030000 		.4byte	.LASF17
 509 00c2 03       		.byte	0x3
 510 00c3 1F       		.byte	0x1f
 511 00c4 65000000 		.4byte	0x65
 512 00c8 04       		.uleb128 0x4
 513 00c9 1B010000 		.4byte	.LASF18
 514 00cd 03       		.byte	0x3
 515 00ce 20       		.byte	0x20
 516 00cf 77000000 		.4byte	0x77
 517 00d3 02       		.uleb128 0x2
 518 00d4 04       		.byte	0x4
 519 00d5 04       		.byte	0x4
 520 00d6 CD010000 		.4byte	.LASF19
 521 00da 06       		.uleb128 0x6
 522 00db 01       		.byte	0x1
 523 00dc 04       		.byte	0x4
 524 00dd 06       		.byte	0x6
 525 00de F5000000 		.4byte	0xf5
 526 00e2 07       		.uleb128 0x7
 527 00e3 49050000 		.4byte	.LASF20
 528 00e7 00       		.sleb128 0
 529 00e8 07       		.uleb128 0x7
 530 00e9 30000000 		.4byte	.LASF21
 531 00ed 01       		.sleb128 1
 532 00ee 07       		.uleb128 0x7
 533 00ef 9A020000 		.4byte	.LASF22
 534 00f3 02       		.sleb128 2
 535 00f4 00       		.byte	0
 536 00f5 04       		.uleb128 0x4
 537 00f6 D3010000 		.4byte	.LASF23
 538 00fa 04       		.byte	0x4
 539 00fb 0A       		.byte	0xa
 540 00fc DA000000 		.4byte	0xda
 541 0100 06       		.uleb128 0x6
 542 0101 01       		.byte	0x1
 543 0102 04       		.byte	0x4
 544 0103 12       		.byte	0x12
 545 0104 27010000 		.4byte	0x127
 546 0108 07       		.uleb128 0x7
 547 0109 8E050000 		.4byte	.LASF24
 548 010d 00       		.sleb128 0
 549 010e 07       		.uleb128 0x7
 550 010f D6040000 		.4byte	.LASF25
ARM GAS  /tmp/ccl4PqGW.s 			page 13


 551 0113 01       		.sleb128 1
 552 0114 07       		.uleb128 0x7
 553 0115 17040000 		.4byte	.LASF26
 554 0119 02       		.sleb128 2
 555 011a 07       		.uleb128 0x7
 556 011b 6E020000 		.4byte	.LASF27
 557 011f 03       		.sleb128 3
 558 0120 07       		.uleb128 0x7
 559 0121 04040000 		.4byte	.LASF28
 560 0125 04       		.sleb128 4
 561 0126 00       		.byte	0
 562 0127 04       		.uleb128 0x4
 563 0128 41030000 		.4byte	.LASF29
 564 012c 04       		.byte	0x4
 565 012d 18       		.byte	0x18
 566 012e 00010000 		.4byte	0x100
 567 0132 08       		.uleb128 0x8
 568 0133 08       		.byte	0x8
 569 0134 04       		.byte	0x4
 570 0135 1D       		.byte	0x1d
 571 0136 57010000 		.4byte	0x157
 572 013a 09       		.uleb128 0x9
 573 013b A8040000 		.4byte	.LASF30
 574 013f 04       		.byte	0x4
 575 0140 1F       		.byte	0x1f
 576 0141 C8000000 		.4byte	0xc8
 577 0145 02       		.byte	0x2
 578 0146 23       		.byte	0x23
 579 0147 00       		.uleb128 0
 580 0148 09       		.uleb128 0x9
 581 0149 16010000 		.4byte	.LASF31
 582 014d 04       		.byte	0x4
 583 014e 20       		.byte	0x20
 584 014f 27010000 		.4byte	0x127
 585 0153 02       		.byte	0x2
 586 0154 23       		.byte	0x23
 587 0155 04       		.uleb128 0x4
 588 0156 00       		.byte	0
 589 0157 04       		.uleb128 0x4
 590 0158 7F020000 		.4byte	.LASF32
 591 015c 04       		.byte	0x4
 592 015d 21       		.byte	0x21
 593 015e 32010000 		.4byte	0x132
 594 0162 04       		.uleb128 0x4
 595 0163 AE040000 		.4byte	.LASF33
 596 0167 05       		.byte	0x5
 597 0168 0A       		.byte	0xa
 598 0169 6D010000 		.4byte	0x16d
 599 016d 0A       		.uleb128 0xa
 600 016e AF050000 		.4byte	.LASF35
 601 0172 01       		.byte	0x1
 602 0173 04       		.uleb128 0x4
 603 0174 F1010000 		.4byte	.LASF34
 604 0178 06       		.byte	0x6
 605 0179 0B       		.byte	0xb
 606 017a 7E010000 		.4byte	0x17e
 607 017e 0A       		.uleb128 0xa
ARM GAS  /tmp/ccl4PqGW.s 			page 14


 608 017f 2E050000 		.4byte	.LASF36
 609 0183 01       		.byte	0x1
 610 0184 06       		.uleb128 0x6
 611 0185 01       		.byte	0x1
 612 0186 06       		.byte	0x6
 613 0187 0F       		.byte	0xf
 614 0188 BD010000 		.4byte	0x1bd
 615 018c 07       		.uleb128 0x7
 616 018d 0B020000 		.4byte	.LASF37
 617 0191 00       		.sleb128 0
 618 0192 07       		.uleb128 0x7
 619 0193 41020000 		.4byte	.LASF38
 620 0197 01       		.sleb128 1
 621 0198 07       		.uleb128 0x7
 622 0199 76050000 		.4byte	.LASF39
 623 019d 02       		.sleb128 2
 624 019e 07       		.uleb128 0x7
 625 019f 69030000 		.4byte	.LASF40
 626 01a3 03       		.sleb128 3
 627 01a4 07       		.uleb128 0x7
 628 01a5 82030000 		.4byte	.LASF41
 629 01a9 04       		.sleb128 4
 630 01aa 07       		.uleb128 0x7
 631 01ab 00000000 		.4byte	.LASF42
 632 01af 05       		.sleb128 5
 633 01b0 07       		.uleb128 0x7
 634 01b1 F8020000 		.4byte	.LASF43
 635 01b5 06       		.sleb128 6
 636 01b6 07       		.uleb128 0x7
 637 01b7 66040000 		.4byte	.LASF44
 638 01bb 07       		.sleb128 7
 639 01bc 00       		.byte	0
 640 01bd 04       		.uleb128 0x4
 641 01be 93040000 		.4byte	.LASF45
 642 01c2 06       		.byte	0x6
 643 01c3 18       		.byte	0x18
 644 01c4 84010000 		.4byte	0x184
 645 01c8 06       		.uleb128 0x6
 646 01c9 01       		.byte	0x1
 647 01ca 06       		.byte	0x6
 648 01cb 1C       		.byte	0x1c
 649 01cc EF010000 		.4byte	0x1ef
 650 01d0 07       		.uleb128 0x7
 651 01d1 FD040000 		.4byte	.LASF46
 652 01d5 05       		.sleb128 5
 653 01d6 07       		.uleb128 0x7
 654 01d7 12050000 		.4byte	.LASF47
 655 01db 06       		.sleb128 6
 656 01dc 07       		.uleb128 0x7
 657 01dd 50010000 		.4byte	.LASF48
 658 01e1 07       		.sleb128 7
 659 01e2 07       		.uleb128 0x7
 660 01e3 65010000 		.4byte	.LASF49
 661 01e7 08       		.sleb128 8
 662 01e8 07       		.uleb128 0x7
 663 01e9 52030000 		.4byte	.LASF50
 664 01ed 09       		.sleb128 9
ARM GAS  /tmp/ccl4PqGW.s 			page 15


 665 01ee 00       		.byte	0
 666 01ef 04       		.uleb128 0x4
 667 01f0 E7030000 		.4byte	.LASF51
 668 01f4 06       		.byte	0x6
 669 01f5 22       		.byte	0x22
 670 01f6 C8010000 		.4byte	0x1c8
 671 01fa 06       		.uleb128 0x6
 672 01fb 01       		.byte	0x1
 673 01fc 06       		.byte	0x6
 674 01fd 26       		.byte	0x26
 675 01fe 27020000 		.4byte	0x227
 676 0202 07       		.uleb128 0x7
 677 0203 7D040000 		.4byte	.LASF52
 678 0207 00       		.sleb128 0
 679 0208 07       		.uleb128 0x7
 680 0209 E8040000 		.4byte	.LASF53
 681 020d 01       		.sleb128 1
 682 020e 07       		.uleb128 0x7
 683 020f 7A010000 		.4byte	.LASF54
 684 0213 02       		.sleb128 2
 685 0214 07       		.uleb128 0x7
 686 0215 CA030000 		.4byte	.LASF55
 687 0219 03       		.sleb128 3
 688 021a 07       		.uleb128 0x7
 689 021b 90000000 		.4byte	.LASF56
 690 021f 04       		.sleb128 4
 691 0220 07       		.uleb128 0x7
 692 0221 BA020000 		.4byte	.LASF57
 693 0225 05       		.sleb128 5
 694 0226 00       		.byte	0
 695 0227 04       		.uleb128 0x4
 696 0228 53040000 		.4byte	.LASF58
 697 022c 06       		.byte	0x6
 698 022d 2D       		.byte	0x2d
 699 022e FA010000 		.4byte	0x1fa
 700 0232 06       		.uleb128 0x6
 701 0233 01       		.byte	0x1
 702 0234 06       		.byte	0x6
 703 0235 31       		.byte	0x31
 704 0236 4D020000 		.4byte	0x24d
 705 023a 07       		.uleb128 0x7
 706 023b 4D000000 		.4byte	.LASF59
 707 023f 01       		.sleb128 1
 708 0240 07       		.uleb128 0x7
 709 0241 62000000 		.4byte	.LASF60
 710 0245 02       		.sleb128 2
 711 0246 07       		.uleb128 0x7
 712 0247 24010000 		.4byte	.LASF61
 713 024b 03       		.sleb128 3
 714 024c 00       		.byte	0
 715 024d 04       		.uleb128 0x4
 716 024e 3B010000 		.4byte	.LASF62
 717 0252 06       		.byte	0x6
 718 0253 35       		.byte	0x35
 719 0254 32020000 		.4byte	0x232
 720 0258 0B       		.uleb128 0xb
 721 0259 62020000 		.4byte	.LASF86
ARM GAS  /tmp/ccl4PqGW.s 			page 16


 722 025d 14       		.byte	0x14
 723 025e 06       		.byte	0x6
 724 025f 3E       		.byte	0x3e
 725 0260 E3020000 		.4byte	0x2e3
 726 0264 09       		.uleb128 0x9
 727 0265 22000000 		.4byte	.LASF63
 728 0269 06       		.byte	0x6
 729 026a 40       		.byte	0x40
 730 026b B2000000 		.4byte	0xb2
 731 026f 02       		.byte	0x2
 732 0270 23       		.byte	0x23
 733 0271 00       		.uleb128 0
 734 0272 09       		.uleb128 0x9
 735 0273 59020000 		.4byte	.LASF64
 736 0277 06       		.byte	0x6
 737 0278 42       		.byte	0x42
 738 0279 BD010000 		.4byte	0x1bd
 739 027d 02       		.byte	0x2
 740 027e 23       		.byte	0x23
 741 027f 01       		.uleb128 0x1
 742 0280 09       		.uleb128 0x9
 743 0281 4A040000 		.4byte	.LASF65
 744 0285 06       		.byte	0x6
 745 0286 44       		.byte	0x44
 746 0287 EF010000 		.4byte	0x1ef
 747 028b 02       		.byte	0x2
 748 028c 23       		.byte	0x23
 749 028d 02       		.uleb128 0x2
 750 028e 09       		.uleb128 0x9
 751 028f 3A020000 		.4byte	.LASF66
 752 0293 06       		.byte	0x6
 753 0294 46       		.byte	0x46
 754 0295 27020000 		.4byte	0x227
 755 0299 02       		.byte	0x2
 756 029a 23       		.byte	0x23
 757 029b 03       		.uleb128 0x3
 758 029c 09       		.uleb128 0x9
 759 029d 19000000 		.4byte	.LASF67
 760 02a1 06       		.byte	0x6
 761 02a2 48       		.byte	0x48
 762 02a3 4D020000 		.4byte	0x24d
 763 02a7 02       		.byte	0x2
 764 02a8 23       		.byte	0x23
 765 02a9 04       		.uleb128 0x4
 766 02aa 09       		.uleb128 0x9
 767 02ab 8A020000 		.4byte	.LASF68
 768 02af 06       		.byte	0x6
 769 02b0 4A       		.byte	0x4a
 770 02b1 F5000000 		.4byte	0xf5
 771 02b5 02       		.byte	0x2
 772 02b6 23       		.byte	0x23
 773 02b7 05       		.uleb128 0x5
 774 02b8 09       		.uleb128 0x9
 775 02b9 23020000 		.4byte	.LASF69
 776 02bd 06       		.byte	0x6
 777 02be 4C       		.byte	0x4c
 778 02bf C8000000 		.4byte	0xc8
ARM GAS  /tmp/ccl4PqGW.s 			page 17


 779 02c3 02       		.byte	0x2
 780 02c4 23       		.byte	0x23
 781 02c5 08       		.uleb128 0x8
 782 02c6 09       		.uleb128 0x9
 783 02c7 BF040000 		.4byte	.LASF70
 784 02cb 06       		.byte	0x6
 785 02cc 4F       		.byte	0x4f
 786 02cd C8000000 		.4byte	0xc8
 787 02d1 02       		.byte	0x2
 788 02d2 23       		.byte	0x23
 789 02d3 0C       		.uleb128 0xc
 790 02d4 09       		.uleb128 0x9
 791 02d5 6A050000 		.4byte	.LASF71
 792 02d9 06       		.byte	0x6
 793 02da 52       		.byte	0x52
 794 02db 9E000000 		.4byte	0x9e
 795 02df 02       		.byte	0x2
 796 02e0 23       		.byte	0x23
 797 02e1 10       		.uleb128 0x10
 798 02e2 00       		.byte	0
 799 02e3 04       		.uleb128 0x4
 800 02e4 35040000 		.4byte	.LASF72
 801 02e8 06       		.byte	0x6
 802 02e9 53       		.byte	0x53
 803 02ea 58020000 		.4byte	0x258
 804 02ee 0C       		.uleb128 0xc
 805 02ef 01       		.byte	0x1
 806 02f0 80000000 		.4byte	.LASF87
 807 02f4 01       		.byte	0x1
 808 02f5 13       		.byte	0x13
 809 02f6 2C000000 		.4byte	0x2c
 810 02fa 00000000 		.4byte	.LFB40
 811 02fe D8010000 		.4byte	.LFE40
 812 0302 00000000 		.4byte	.LLST0
 813 0306 01       		.byte	0x1
 814 0307 84040000 		.4byte	0x484
 815 030b 0D       		.uleb128 0xd
 816 030c 12030000 		.4byte	.LASF73
 817 0310 01       		.byte	0x1
 818 0311 15       		.byte	0x15
 819 0312 A7000000 		.4byte	0xa7
 820 0316 02       		.byte	0x2
 821 0317 91       		.byte	0x91
 822 0318 47       		.sleb128 -57
 823 0319 0D       		.uleb128 0xd
 824 031a 1A030000 		.4byte	.LASF74
 825 031e 01       		.byte	0x1
 826 031f 16       		.byte	0x16
 827 0320 A7000000 		.4byte	0xa7
 828 0324 02       		.byte	0x2
 829 0325 91       		.byte	0x91
 830 0326 46       		.sleb128 -58
 831 0327 0D       		.uleb128 0xd
 832 0328 B7030000 		.4byte	.LASF75
 833 032c 01       		.byte	0x1
 834 032d 17       		.byte	0x17
 835 032e A7000000 		.4byte	0xa7
ARM GAS  /tmp/ccl4PqGW.s 			page 18


 836 0332 02       		.byte	0x2
 837 0333 91       		.byte	0x91
 838 0334 45       		.sleb128 -59
 839 0335 0E       		.uleb128 0xe
 840 0336 7000     		.ascii	"p\000"
 841 0338 01       		.byte	0x1
 842 0339 24       		.byte	0x24
 843 033a 84040000 		.4byte	0x484
 844 033e 03       		.byte	0x3
 845 033f 91       		.byte	0x91
 846 0340 B47F     		.sleb128 -76
 847 0342 0D       		.uleb128 0xd
 848 0343 FC030000 		.4byte	.LASF76
 849 0347 01       		.byte	0x1
 850 0348 26       		.byte	0x26
 851 0349 57010000 		.4byte	0x157
 852 034d 03       		.byte	0x3
 853 034e 91       		.byte	0x91
 854 034f AC7F     		.sleb128 -84
 855 0351 0D       		.uleb128 0xd
 856 0352 29040000 		.4byte	.LASF77
 857 0356 01       		.byte	0x1
 858 0357 2F       		.byte	0x2f
 859 0358 A7000000 		.4byte	0xa7
 860 035c 02       		.byte	0x2
 861 035d 91       		.byte	0x91
 862 035e 44       		.sleb128 -60
 863 035f 0F       		.uleb128 0xf
 864 0360 40000000 		.4byte	.LBB2
 865 0364 8E000000 		.4byte	.LBE2
 866 0368 A9030000 		.4byte	0x3a9
 867 036c 0E       		.uleb128 0xe
 868 036d 6900     		.ascii	"i\000"
 869 036f 01       		.byte	0x1
 870 0370 28       		.byte	0x28
 871 0371 2C000000 		.4byte	0x2c
 872 0375 02       		.byte	0x2
 873 0376 91       		.byte	0x91
 874 0377 74       		.sleb128 -12
 875 0378 0F       		.uleb128 0xf
 876 0379 46000000 		.4byte	.LBB3
 877 037d 5A000000 		.4byte	.LBE3
 878 0381 92030000 		.4byte	0x392
 879 0385 0E       		.uleb128 0xe
 880 0386 6900     		.ascii	"i\000"
 881 0388 01       		.byte	0x1
 882 0389 29       		.byte	0x29
 883 038a C8000000 		.4byte	0xc8
 884 038e 02       		.byte	0x2
 885 038f 91       		.byte	0x91
 886 0390 70       		.sleb128 -16
 887 0391 00       		.byte	0
 888 0392 10       		.uleb128 0x10
 889 0393 64000000 		.4byte	.LBB4
 890 0397 78000000 		.4byte	.LBE4
 891 039b 0E       		.uleb128 0xe
 892 039c 6900     		.ascii	"i\000"
ARM GAS  /tmp/ccl4PqGW.s 			page 19


 893 039e 01       		.byte	0x1
 894 039f 2B       		.byte	0x2b
 895 03a0 C8000000 		.4byte	0xc8
 896 03a4 02       		.byte	0x2
 897 03a5 91       		.byte	0x91
 898 03a6 6C       		.sleb128 -20
 899 03a7 00       		.byte	0
 900 03a8 00       		.byte	0
 901 03a9 0F       		.uleb128 0xf
 902 03aa BA000000 		.4byte	.LBB5
 903 03ae 08010000 		.4byte	.LBE5
 904 03b2 F3030000 		.4byte	0x3f3
 905 03b6 0E       		.uleb128 0xe
 906 03b7 6B00     		.ascii	"k\000"
 907 03b9 01       		.byte	0x1
 908 03ba 3D       		.byte	0x3d
 909 03bb 2C000000 		.4byte	0x2c
 910 03bf 02       		.byte	0x2
 911 03c0 91       		.byte	0x91
 912 03c1 68       		.sleb128 -24
 913 03c2 0F       		.uleb128 0xf
 914 03c3 C0000000 		.4byte	.LBB6
 915 03c7 D4000000 		.4byte	.LBE6
 916 03cb DC030000 		.4byte	0x3dc
 917 03cf 0E       		.uleb128 0xe
 918 03d0 6900     		.ascii	"i\000"
 919 03d2 01       		.byte	0x1
 920 03d3 3F       		.byte	0x3f
 921 03d4 C8000000 		.4byte	0xc8
 922 03d8 02       		.byte	0x2
 923 03d9 91       		.byte	0x91
 924 03da 64       		.sleb128 -28
 925 03db 00       		.byte	0
 926 03dc 10       		.uleb128 0x10
 927 03dd DE000000 		.4byte	.LBB7
 928 03e1 F2000000 		.4byte	.LBE7
 929 03e5 0E       		.uleb128 0xe
 930 03e6 6900     		.ascii	"i\000"
 931 03e8 01       		.byte	0x1
 932 03e9 41       		.byte	0x41
 933 03ea C8000000 		.4byte	0xc8
 934 03ee 02       		.byte	0x2
 935 03ef 91       		.byte	0x91
 936 03f0 60       		.sleb128 -32
 937 03f1 00       		.byte	0
 938 03f2 00       		.byte	0
 939 03f3 0F       		.uleb128 0xf
 940 03f4 14010000 		.4byte	.LBB8
 941 03f8 64010000 		.4byte	.LBE8
 942 03fc 3D040000 		.4byte	0x43d
 943 0400 0E       		.uleb128 0xe
 944 0401 6B00     		.ascii	"k\000"
 945 0403 01       		.byte	0x1
 946 0404 49       		.byte	0x49
 947 0405 2C000000 		.4byte	0x2c
 948 0409 02       		.byte	0x2
 949 040a 91       		.byte	0x91
ARM GAS  /tmp/ccl4PqGW.s 			page 20


 950 040b 5C       		.sleb128 -36
 951 040c 0F       		.uleb128 0xf
 952 040d 1A010000 		.4byte	.LBB9
 953 0411 2E010000 		.4byte	.LBE9
 954 0415 26040000 		.4byte	0x426
 955 0419 0E       		.uleb128 0xe
 956 041a 6900     		.ascii	"i\000"
 957 041c 01       		.byte	0x1
 958 041d 4B       		.byte	0x4b
 959 041e C8000000 		.4byte	0xc8
 960 0422 02       		.byte	0x2
 961 0423 91       		.byte	0x91
 962 0424 58       		.sleb128 -40
 963 0425 00       		.byte	0
 964 0426 10       		.uleb128 0x10
 965 0427 38010000 		.4byte	.LBB10
 966 042b 4C010000 		.4byte	.LBE10
 967 042f 0E       		.uleb128 0xe
 968 0430 6900     		.ascii	"i\000"
 969 0432 01       		.byte	0x1
 970 0433 4D       		.byte	0x4d
 971 0434 C8000000 		.4byte	0xc8
 972 0438 02       		.byte	0x2
 973 0439 91       		.byte	0x91
 974 043a 54       		.sleb128 -44
 975 043b 00       		.byte	0
 976 043c 00       		.byte	0
 977 043d 10       		.uleb128 0x10
 978 043e 6C010000 		.4byte	.LBB11
 979 0442 BA010000 		.4byte	.LBE11
 980 0446 0E       		.uleb128 0xe
 981 0447 6B00     		.ascii	"k\000"
 982 0449 01       		.byte	0x1
 983 044a 56       		.byte	0x56
 984 044b 2C000000 		.4byte	0x2c
 985 044f 02       		.byte	0x2
 986 0450 91       		.byte	0x91
 987 0451 50       		.sleb128 -48
 988 0452 0F       		.uleb128 0xf
 989 0453 72010000 		.4byte	.LBB12
 990 0457 86010000 		.4byte	.LBE12
 991 045b 6C040000 		.4byte	0x46c
 992 045f 0E       		.uleb128 0xe
 993 0460 6900     		.ascii	"i\000"
 994 0462 01       		.byte	0x1
 995 0463 58       		.byte	0x58
 996 0464 C8000000 		.4byte	0xc8
 997 0468 02       		.byte	0x2
 998 0469 91       		.byte	0x91
 999 046a 4C       		.sleb128 -52
 1000 046b 00       		.byte	0
 1001 046c 10       		.uleb128 0x10
 1002 046d 90010000 		.4byte	.LBB13
 1003 0471 A4010000 		.4byte	.LBE13
 1004 0475 0E       		.uleb128 0xe
 1005 0476 6900     		.ascii	"i\000"
 1006 0478 01       		.byte	0x1
ARM GAS  /tmp/ccl4PqGW.s 			page 21


 1007 0479 5A       		.byte	0x5a
 1008 047a C8000000 		.4byte	0xc8
 1009 047e 02       		.byte	0x2
 1010 047f 91       		.byte	0x91
 1011 0480 48       		.sleb128 -56
 1012 0481 00       		.byte	0
 1013 0482 00       		.byte	0
 1014 0483 00       		.byte	0
 1015 0484 11       		.uleb128 0x11
 1016 0485 A0000000 		.4byte	0xa0
 1017 0489 94040000 		.4byte	0x494
 1018 048d 12       		.uleb128 0x12
 1019 048e 97000000 		.4byte	0x97
 1020 0492 0D       		.byte	0xd
 1021 0493 00       		.byte	0
 1022 0494 13       		.uleb128 0x13
 1023 0495 5D050000 		.4byte	.LASF78
 1024 0499 07       		.byte	0x7
 1025 049a E602     		.2byte	0x2e6
 1026 049c A2040000 		.4byte	0x4a2
 1027 04a0 01       		.byte	0x1
 1028 04a1 01       		.byte	0x1
 1029 04a2 14       		.uleb128 0x14
 1030 04a3 BD000000 		.4byte	0xbd
 1031 04a7 15       		.uleb128 0x15
 1032 04a8 43040000 		.4byte	.LASF79
 1033 04ac 01       		.byte	0x1
 1034 04ad 0B       		.byte	0xb
 1035 04ae B4040000 		.4byte	0x4b4
 1036 04b2 01       		.byte	0x1
 1037 04b3 01       		.byte	0x1
 1038 04b4 16       		.uleb128 0x16
 1039 04b5 04       		.byte	0x4
 1040 04b6 62010000 		.4byte	0x162
 1041 04ba 17       		.uleb128 0x17
 1042 04bb 4C454400 		.ascii	"LED\000"
 1043 04bf 01       		.byte	0x1
 1044 04c0 0C       		.byte	0xc
 1045 04c1 B4040000 		.4byte	0x4b4
 1046 04c5 01       		.byte	0x1
 1047 04c6 01       		.byte	0x1
 1048 04c7 15       		.uleb128 0x15
 1049 04c8 CF020000 		.4byte	.LASF80
 1050 04cc 01       		.byte	0x1
 1051 04cd 0D       		.byte	0xd
 1052 04ce B4040000 		.4byte	0x4b4
 1053 04d2 01       		.byte	0x1
 1054 04d3 01       		.byte	0x1
 1055 04d4 15       		.uleb128 0x15
 1056 04d5 27050000 		.4byte	.LASF81
 1057 04d9 01       		.byte	0x1
 1058 04da 0F       		.byte	0xf
 1059 04db E1040000 		.4byte	0x4e1
 1060 04df 01       		.byte	0x1
 1061 04e0 01       		.byte	0x1
 1062 04e1 16       		.uleb128 0x16
 1063 04e2 04       		.byte	0x4
ARM GAS  /tmp/ccl4PqGW.s 			page 22


 1064 04e3 73010000 		.4byte	0x173
 1065 04e7 18       		.uleb128 0x18
 1066 04e8 3D050000 		.4byte	.LASF82
 1067 04ec 01       		.byte	0x1
 1068 04ed 11       		.byte	0x11
 1069 04ee E3020000 		.4byte	0x2e3
 1070 04f2 01       		.byte	0x1
 1071 04f3 05       		.byte	0x5
 1072 04f4 03       		.byte	0x3
 1073 04f5 00000000 		.4byte	uart_Config
 1074 04f9 00       		.byte	0
 1075              		.section	.debug_abbrev,"",%progbits
 1076              	.Ldebug_abbrev0:
 1077 0000 01       		.uleb128 0x1
 1078 0001 11       		.uleb128 0x11
 1079 0002 01       		.byte	0x1
 1080 0003 25       		.uleb128 0x25
 1081 0004 0E       		.uleb128 0xe
 1082 0005 13       		.uleb128 0x13
 1083 0006 0B       		.uleb128 0xb
 1084 0007 03       		.uleb128 0x3
 1085 0008 0E       		.uleb128 0xe
 1086 0009 1B       		.uleb128 0x1b
 1087 000a 0E       		.uleb128 0xe
 1088 000b 11       		.uleb128 0x11
 1089 000c 01       		.uleb128 0x1
 1090 000d 12       		.uleb128 0x12
 1091 000e 01       		.uleb128 0x1
 1092 000f 10       		.uleb128 0x10
 1093 0010 06       		.uleb128 0x6
 1094 0011 00       		.byte	0
 1095 0012 00       		.byte	0
 1096 0013 02       		.uleb128 0x2
 1097 0014 24       		.uleb128 0x24
 1098 0015 00       		.byte	0
 1099 0016 0B       		.uleb128 0xb
 1100 0017 0B       		.uleb128 0xb
 1101 0018 3E       		.uleb128 0x3e
 1102 0019 0B       		.uleb128 0xb
 1103 001a 03       		.uleb128 0x3
 1104 001b 0E       		.uleb128 0xe
 1105 001c 00       		.byte	0
 1106 001d 00       		.byte	0
 1107 001e 03       		.uleb128 0x3
 1108 001f 24       		.uleb128 0x24
 1109 0020 00       		.byte	0
 1110 0021 0B       		.uleb128 0xb
 1111 0022 0B       		.uleb128 0xb
 1112 0023 3E       		.uleb128 0x3e
 1113 0024 0B       		.uleb128 0xb
 1114 0025 03       		.uleb128 0x3
 1115 0026 08       		.uleb128 0x8
 1116 0027 00       		.byte	0
 1117 0028 00       		.byte	0
 1118 0029 04       		.uleb128 0x4
 1119 002a 16       		.uleb128 0x16
 1120 002b 00       		.byte	0
ARM GAS  /tmp/ccl4PqGW.s 			page 23


 1121 002c 03       		.uleb128 0x3
 1122 002d 0E       		.uleb128 0xe
 1123 002e 3A       		.uleb128 0x3a
 1124 002f 0B       		.uleb128 0xb
 1125 0030 3B       		.uleb128 0x3b
 1126 0031 0B       		.uleb128 0xb
 1127 0032 49       		.uleb128 0x49
 1128 0033 13       		.uleb128 0x13
 1129 0034 00       		.byte	0
 1130 0035 00       		.byte	0
 1131 0036 05       		.uleb128 0x5
 1132 0037 0F       		.uleb128 0xf
 1133 0038 00       		.byte	0
 1134 0039 0B       		.uleb128 0xb
 1135 003a 0B       		.uleb128 0xb
 1136 003b 00       		.byte	0
 1137 003c 00       		.byte	0
 1138 003d 06       		.uleb128 0x6
 1139 003e 04       		.uleb128 0x4
 1140 003f 01       		.byte	0x1
 1141 0040 0B       		.uleb128 0xb
 1142 0041 0B       		.uleb128 0xb
 1143 0042 3A       		.uleb128 0x3a
 1144 0043 0B       		.uleb128 0xb
 1145 0044 3B       		.uleb128 0x3b
 1146 0045 0B       		.uleb128 0xb
 1147 0046 01       		.uleb128 0x1
 1148 0047 13       		.uleb128 0x13
 1149 0048 00       		.byte	0
 1150 0049 00       		.byte	0
 1151 004a 07       		.uleb128 0x7
 1152 004b 28       		.uleb128 0x28
 1153 004c 00       		.byte	0
 1154 004d 03       		.uleb128 0x3
 1155 004e 0E       		.uleb128 0xe
 1156 004f 1C       		.uleb128 0x1c
 1157 0050 0D       		.uleb128 0xd
 1158 0051 00       		.byte	0
 1159 0052 00       		.byte	0
 1160 0053 08       		.uleb128 0x8
 1161 0054 13       		.uleb128 0x13
 1162 0055 01       		.byte	0x1
 1163 0056 0B       		.uleb128 0xb
 1164 0057 0B       		.uleb128 0xb
 1165 0058 3A       		.uleb128 0x3a
 1166 0059 0B       		.uleb128 0xb
 1167 005a 3B       		.uleb128 0x3b
 1168 005b 0B       		.uleb128 0xb
 1169 005c 01       		.uleb128 0x1
 1170 005d 13       		.uleb128 0x13
 1171 005e 00       		.byte	0
 1172 005f 00       		.byte	0
 1173 0060 09       		.uleb128 0x9
 1174 0061 0D       		.uleb128 0xd
 1175 0062 00       		.byte	0
 1176 0063 03       		.uleb128 0x3
 1177 0064 0E       		.uleb128 0xe
ARM GAS  /tmp/ccl4PqGW.s 			page 24


 1178 0065 3A       		.uleb128 0x3a
 1179 0066 0B       		.uleb128 0xb
 1180 0067 3B       		.uleb128 0x3b
 1181 0068 0B       		.uleb128 0xb
 1182 0069 49       		.uleb128 0x49
 1183 006a 13       		.uleb128 0x13
 1184 006b 38       		.uleb128 0x38
 1185 006c 0A       		.uleb128 0xa
 1186 006d 00       		.byte	0
 1187 006e 00       		.byte	0
 1188 006f 0A       		.uleb128 0xa
 1189 0070 13       		.uleb128 0x13
 1190 0071 00       		.byte	0
 1191 0072 03       		.uleb128 0x3
 1192 0073 0E       		.uleb128 0xe
 1193 0074 3C       		.uleb128 0x3c
 1194 0075 0C       		.uleb128 0xc
 1195 0076 00       		.byte	0
 1196 0077 00       		.byte	0
 1197 0078 0B       		.uleb128 0xb
 1198 0079 13       		.uleb128 0x13
 1199 007a 01       		.byte	0x1
 1200 007b 03       		.uleb128 0x3
 1201 007c 0E       		.uleb128 0xe
 1202 007d 0B       		.uleb128 0xb
 1203 007e 0B       		.uleb128 0xb
 1204 007f 3A       		.uleb128 0x3a
 1205 0080 0B       		.uleb128 0xb
 1206 0081 3B       		.uleb128 0x3b
 1207 0082 0B       		.uleb128 0xb
 1208 0083 01       		.uleb128 0x1
 1209 0084 13       		.uleb128 0x13
 1210 0085 00       		.byte	0
 1211 0086 00       		.byte	0
 1212 0087 0C       		.uleb128 0xc
 1213 0088 2E       		.uleb128 0x2e
 1214 0089 01       		.byte	0x1
 1215 008a 3F       		.uleb128 0x3f
 1216 008b 0C       		.uleb128 0xc
 1217 008c 03       		.uleb128 0x3
 1218 008d 0E       		.uleb128 0xe
 1219 008e 3A       		.uleb128 0x3a
 1220 008f 0B       		.uleb128 0xb
 1221 0090 3B       		.uleb128 0x3b
 1222 0091 0B       		.uleb128 0xb
 1223 0092 49       		.uleb128 0x49
 1224 0093 13       		.uleb128 0x13
 1225 0094 11       		.uleb128 0x11
 1226 0095 01       		.uleb128 0x1
 1227 0096 12       		.uleb128 0x12
 1228 0097 01       		.uleb128 0x1
 1229 0098 40       		.uleb128 0x40
 1230 0099 06       		.uleb128 0x6
 1231 009a 9642     		.uleb128 0x2116
 1232 009c 0C       		.uleb128 0xc
 1233 009d 01       		.uleb128 0x1
 1234 009e 13       		.uleb128 0x13
ARM GAS  /tmp/ccl4PqGW.s 			page 25


 1235 009f 00       		.byte	0
 1236 00a0 00       		.byte	0
 1237 00a1 0D       		.uleb128 0xd
 1238 00a2 34       		.uleb128 0x34
 1239 00a3 00       		.byte	0
 1240 00a4 03       		.uleb128 0x3
 1241 00a5 0E       		.uleb128 0xe
 1242 00a6 3A       		.uleb128 0x3a
 1243 00a7 0B       		.uleb128 0xb
 1244 00a8 3B       		.uleb128 0x3b
 1245 00a9 0B       		.uleb128 0xb
 1246 00aa 49       		.uleb128 0x49
 1247 00ab 13       		.uleb128 0x13
 1248 00ac 02       		.uleb128 0x2
 1249 00ad 0A       		.uleb128 0xa
 1250 00ae 00       		.byte	0
 1251 00af 00       		.byte	0
 1252 00b0 0E       		.uleb128 0xe
 1253 00b1 34       		.uleb128 0x34
 1254 00b2 00       		.byte	0
 1255 00b3 03       		.uleb128 0x3
 1256 00b4 08       		.uleb128 0x8
 1257 00b5 3A       		.uleb128 0x3a
 1258 00b6 0B       		.uleb128 0xb
 1259 00b7 3B       		.uleb128 0x3b
 1260 00b8 0B       		.uleb128 0xb
 1261 00b9 49       		.uleb128 0x49
 1262 00ba 13       		.uleb128 0x13
 1263 00bb 02       		.uleb128 0x2
 1264 00bc 0A       		.uleb128 0xa
 1265 00bd 00       		.byte	0
 1266 00be 00       		.byte	0
 1267 00bf 0F       		.uleb128 0xf
 1268 00c0 0B       		.uleb128 0xb
 1269 00c1 01       		.byte	0x1
 1270 00c2 11       		.uleb128 0x11
 1271 00c3 01       		.uleb128 0x1
 1272 00c4 12       		.uleb128 0x12
 1273 00c5 01       		.uleb128 0x1
 1274 00c6 01       		.uleb128 0x1
 1275 00c7 13       		.uleb128 0x13
 1276 00c8 00       		.byte	0
 1277 00c9 00       		.byte	0
 1278 00ca 10       		.uleb128 0x10
 1279 00cb 0B       		.uleb128 0xb
 1280 00cc 01       		.byte	0x1
 1281 00cd 11       		.uleb128 0x11
 1282 00ce 01       		.uleb128 0x1
 1283 00cf 12       		.uleb128 0x12
 1284 00d0 01       		.uleb128 0x1
 1285 00d1 00       		.byte	0
 1286 00d2 00       		.byte	0
 1287 00d3 11       		.uleb128 0x11
 1288 00d4 01       		.uleb128 0x1
 1289 00d5 01       		.byte	0x1
 1290 00d6 49       		.uleb128 0x49
 1291 00d7 13       		.uleb128 0x13
ARM GAS  /tmp/ccl4PqGW.s 			page 26


 1292 00d8 01       		.uleb128 0x1
 1293 00d9 13       		.uleb128 0x13
 1294 00da 00       		.byte	0
 1295 00db 00       		.byte	0
 1296 00dc 12       		.uleb128 0x12
 1297 00dd 21       		.uleb128 0x21
 1298 00de 00       		.byte	0
 1299 00df 49       		.uleb128 0x49
 1300 00e0 13       		.uleb128 0x13
 1301 00e1 2F       		.uleb128 0x2f
 1302 00e2 0B       		.uleb128 0xb
 1303 00e3 00       		.byte	0
 1304 00e4 00       		.byte	0
 1305 00e5 13       		.uleb128 0x13
 1306 00e6 34       		.uleb128 0x34
 1307 00e7 00       		.byte	0
 1308 00e8 03       		.uleb128 0x3
 1309 00e9 0E       		.uleb128 0xe
 1310 00ea 3A       		.uleb128 0x3a
 1311 00eb 0B       		.uleb128 0xb
 1312 00ec 3B       		.uleb128 0x3b
 1313 00ed 05       		.uleb128 0x5
 1314 00ee 49       		.uleb128 0x49
 1315 00ef 13       		.uleb128 0x13
 1316 00f0 3F       		.uleb128 0x3f
 1317 00f1 0C       		.uleb128 0xc
 1318 00f2 3C       		.uleb128 0x3c
 1319 00f3 0C       		.uleb128 0xc
 1320 00f4 00       		.byte	0
 1321 00f5 00       		.byte	0
 1322 00f6 14       		.uleb128 0x14
 1323 00f7 35       		.uleb128 0x35
 1324 00f8 00       		.byte	0
 1325 00f9 49       		.uleb128 0x49
 1326 00fa 13       		.uleb128 0x13
 1327 00fb 00       		.byte	0
 1328 00fc 00       		.byte	0
 1329 00fd 15       		.uleb128 0x15
 1330 00fe 34       		.uleb128 0x34
 1331 00ff 00       		.byte	0
 1332 0100 03       		.uleb128 0x3
 1333 0101 0E       		.uleb128 0xe
 1334 0102 3A       		.uleb128 0x3a
 1335 0103 0B       		.uleb128 0xb
 1336 0104 3B       		.uleb128 0x3b
 1337 0105 0B       		.uleb128 0xb
 1338 0106 49       		.uleb128 0x49
 1339 0107 13       		.uleb128 0x13
 1340 0108 3F       		.uleb128 0x3f
 1341 0109 0C       		.uleb128 0xc
 1342 010a 3C       		.uleb128 0x3c
 1343 010b 0C       		.uleb128 0xc
 1344 010c 00       		.byte	0
 1345 010d 00       		.byte	0
 1346 010e 16       		.uleb128 0x16
 1347 010f 0F       		.uleb128 0xf
 1348 0110 00       		.byte	0
ARM GAS  /tmp/ccl4PqGW.s 			page 27


 1349 0111 0B       		.uleb128 0xb
 1350 0112 0B       		.uleb128 0xb
 1351 0113 49       		.uleb128 0x49
 1352 0114 13       		.uleb128 0x13
 1353 0115 00       		.byte	0
 1354 0116 00       		.byte	0
 1355 0117 17       		.uleb128 0x17
 1356 0118 34       		.uleb128 0x34
 1357 0119 00       		.byte	0
 1358 011a 03       		.uleb128 0x3
 1359 011b 08       		.uleb128 0x8
 1360 011c 3A       		.uleb128 0x3a
 1361 011d 0B       		.uleb128 0xb
 1362 011e 3B       		.uleb128 0x3b
 1363 011f 0B       		.uleb128 0xb
 1364 0120 49       		.uleb128 0x49
 1365 0121 13       		.uleb128 0x13
 1366 0122 3F       		.uleb128 0x3f
 1367 0123 0C       		.uleb128 0xc
 1368 0124 3C       		.uleb128 0x3c
 1369 0125 0C       		.uleb128 0xc
 1370 0126 00       		.byte	0
 1371 0127 00       		.byte	0
 1372 0128 18       		.uleb128 0x18
 1373 0129 34       		.uleb128 0x34
 1374 012a 00       		.byte	0
 1375 012b 03       		.uleb128 0x3
 1376 012c 0E       		.uleb128 0xe
 1377 012d 3A       		.uleb128 0x3a
 1378 012e 0B       		.uleb128 0xb
 1379 012f 3B       		.uleb128 0x3b
 1380 0130 0B       		.uleb128 0xb
 1381 0131 49       		.uleb128 0x49
 1382 0132 13       		.uleb128 0x13
 1383 0133 3F       		.uleb128 0x3f
 1384 0134 0C       		.uleb128 0xc
 1385 0135 02       		.uleb128 0x2
 1386 0136 0A       		.uleb128 0xa
 1387 0137 00       		.byte	0
 1388 0138 00       		.byte	0
 1389 0139 00       		.byte	0
 1390              		.section	.debug_loc,"",%progbits
 1391              	.Ldebug_loc0:
 1392              	.LLST0:
 1393 0000 00000000 		.4byte	.LFB40-.Ltext0
 1394 0004 02000000 		.4byte	.LCFI0-.Ltext0
 1395 0008 0200     		.2byte	0x2
 1396 000a 7D       		.byte	0x7d
 1397 000b 00       		.sleb128 0
 1398 000c 02000000 		.4byte	.LCFI0-.Ltext0
 1399 0010 04000000 		.4byte	.LCFI1-.Ltext0
 1400 0014 0200     		.2byte	0x2
 1401 0016 7D       		.byte	0x7d
 1402 0017 08       		.sleb128 8
 1403 0018 04000000 		.4byte	.LCFI1-.Ltext0
 1404 001c D8010000 		.4byte	.LFE40-.Ltext0
 1405 0020 0300     		.2byte	0x3
ARM GAS  /tmp/ccl4PqGW.s 			page 28


 1406 0022 7D       		.byte	0x7d
 1407 0023 E000     		.sleb128 96
 1408 0025 00000000 		.4byte	0
 1409 0029 00000000 		.4byte	0
 1410              		.section	.debug_aranges,"",%progbits
 1411 0000 1C000000 		.4byte	0x1c
 1412 0004 0200     		.2byte	0x2
 1413 0006 00000000 		.4byte	.Ldebug_info0
 1414 000a 04       		.byte	0x4
 1415 000b 00       		.byte	0
 1416 000c 0000     		.2byte	0
 1417 000e 0000     		.2byte	0
 1418 0010 00000000 		.4byte	.Ltext0
 1419 0014 D8010000 		.4byte	.Letext0-.Ltext0
 1420 0018 00000000 		.4byte	0
 1421 001c 00000000 		.4byte	0
 1422              		.section	.debug_line,"",%progbits
 1423              	.Ldebug_line0:
 1424 0000 40020000 		.section	.debug_str,"MS",%progbits,1
 1424      02007D01 
 1424      00000201 
 1424      FB0E0D00 
 1424      01010101 
 1425              	.LASF42:
 1426 0000 656E4550 		.ascii	"enEPCFUartBaudrate_57600\000"
 1426      43465561 
 1426      72744261 
 1426      75647261 
 1426      74655F35 
 1427              	.LASF67:
 1428 0019 73746F70 		.ascii	"stopBits\000"
 1428      42697473 
 1428      00
 1429              	.LASF63:
 1430 0022 75617274 		.ascii	"uartId\000"
 1430      496400
 1431              	.LASF15:
 1432 0029 696E7438 		.ascii	"int8_t\000"
 1432      5F7400
 1433              	.LASF21:
 1434 0030 656E4550 		.ascii	"enEPCFBoolean_True\000"
 1434      4346426F 
 1434      6F6C6561 
 1434      6E5F5472 
 1434      756500
 1435              	.LASF5:
 1436 0043 73686F72 		.ascii	"short int\000"
 1436      7420696E 
 1436      7400
 1437              	.LASF59:
 1438 004d 656E4550 		.ascii	"enEPCFUartStopBits_1\000"
 1438      43465561 
 1438      72745374 
 1438      6F704269 
 1438      74735F31 
 1439              	.LASF60:
 1440 0062 656E4550 		.ascii	"enEPCFUartStopBits_2\000"
ARM GAS  /tmp/ccl4PqGW.s 			page 29


 1440      43465561 
 1440      72745374 
 1440      6F704269 
 1440      74735F32 
 1441              	.LASF13:
 1442 0077 73697A65 		.ascii	"sizetype\000"
 1442      74797065 
 1442      00
 1443              	.LASF87:
 1444 0080 6D61696E 		.ascii	"main\000"
 1444      00
 1445              	.LASF9:
 1446 0085 5F5F7569 		.ascii	"__uint32_t\000"
 1446      6E743332 
 1446      5F7400
 1447              	.LASF56:
 1448 0090 656E4550 		.ascii	"enEPCFUartParity_Zero\000"
 1448      43465561 
 1448      72745061 
 1448      72697479 
 1448      5F5A6572 
 1449              	.LASF16:
 1450 00a6 75696E74 		.ascii	"uint8_t\000"
 1450      385F7400 
 1451              	.LASF83:
 1452 00ae 474E5520 		.ascii	"GNU C 4.9.3 20150529 (prerelease) -mcpu=cortex-m3 -"
 1452      4320342E 
 1452      392E3320 
 1452      32303135 
 1452      30353239 
 1453 00e1 6D746875 		.ascii	"mthumb -gdwarf-2 -O0 -std=gnu99 -fomit-frame-pointe"
 1453      6D62202D 
 1453      67647761 
 1453      72662D32 
 1453      202D4F30 
 1454 0114 7200     		.ascii	"r\000"
 1455              	.LASF31:
 1456 0116 756E6974 		.ascii	"unit\000"
 1456      00
 1457              	.LASF18:
 1458 011b 75696E74 		.ascii	"uint32_t\000"
 1458      33325F74 
 1458      00
 1459              	.LASF61:
 1460 0124 656E4550 		.ascii	"enEPCFUartStopBits_Max\000"
 1460      43465561 
 1460      72745374 
 1460      6F704269 
 1460      74735F4D 
 1461              	.LASF62:
 1462 013b 456E4550 		.ascii	"EnEPCFUartStopBits_t\000"
 1462      43465561 
 1462      72745374 
 1462      6F704269 
 1462      74735F74 
 1463              	.LASF48:
 1464 0150 656E4550 		.ascii	"enEPCFUartDatabits_7\000"
ARM GAS  /tmp/ccl4PqGW.s 			page 30


 1464      43465561 
 1464      72744461 
 1464      74616269 
 1464      74735F37 
 1465              	.LASF49:
 1466 0165 656E4550 		.ascii	"enEPCFUartDatabits_8\000"
 1466      43465561 
 1466      72744461 
 1466      74616269 
 1466      74735F38 
 1467              	.LASF54:
 1468 017a 656E4550 		.ascii	"enEPCFUartParity_Even\000"
 1468      43465561 
 1468      72745061 
 1468      72697479 
 1468      5F457665 
 1469              	.LASF85:
 1470 0190 2F686F6D 		.ascii	"/home/majorviraj/Desktop/self_balancing/firmware/Bl"
 1470      652F6D61 
 1470      6A6F7276 
 1470      6972616A 
 1470      2F446573 
 1471 01c3 696E6B30 		.ascii	"ink01/app\000"
 1471      312F6170 
 1471      7000
 1472              	.LASF19:
 1473 01cd 666C6F61 		.ascii	"float\000"
 1473      7400
 1474              	.LASF23:
 1475 01d3 456E4550 		.ascii	"EnEPCFBoolean_t\000"
 1475      4346426F 
 1475      6F6C6561 
 1475      6E5F7400 
 1476              	.LASF11:
 1477 01e3 6C6F6E67 		.ascii	"long long int\000"
 1477      206C6F6E 
 1477      6720696E 
 1477      7400
 1478              	.LASF34:
 1479 01f1 45504346 		.ascii	"EPCFUartDevice_t\000"
 1479      55617274 
 1479      44657669 
 1479      63655F74 
 1479      00
 1480              	.LASF8:
 1481 0202 6C6F6E67 		.ascii	"long int\000"
 1481      20696E74 
 1481      00
 1482              	.LASF37:
 1483 020b 656E4550 		.ascii	"enEPCFUartBaudrate_2400\000"
 1483      43465561 
 1483      72744261 
 1483      75647261 
 1483      74655F32 
 1484              	.LASF69:
 1485 0223 74784275 		.ascii	"txBufferSize\000"
 1485      66666572 
ARM GAS  /tmp/ccl4PqGW.s 			page 31


 1485      53697A65 
 1485      00
 1486              	.LASF3:
 1487 0230 5F5F7569 		.ascii	"__uint8_t\000"
 1487      6E74385F 
 1487      7400
 1488              	.LASF66:
 1489 023a 70617269 		.ascii	"parity\000"
 1489      747900
 1490              	.LASF38:
 1491 0241 656E4550 		.ascii	"enEPCFUartBaudrate_4800\000"
 1491      43465561 
 1491      72744261 
 1491      75647261 
 1491      74655F34 
 1492              	.LASF64:
 1493 0259 62617564 		.ascii	"baudrate\000"
 1493      72617465 
 1493      00
 1494              	.LASF86:
 1495 0262 45504346 		.ascii	"EPCFUartCfg\000"
 1495      55617274 
 1495      43666700 
 1496              	.LASF27:
 1497 026e 656E4550 		.ascii	"enEPCFTimeUnit_s\000"
 1497      43465469 
 1497      6D65556E 
 1497      69745F73 
 1497      00
 1498              	.LASF32:
 1499 027f 45504346 		.ascii	"EPCFTime_t\000"
 1499      54696D65 
 1499      5F7400
 1500              	.LASF68:
 1501 028a 696E7465 		.ascii	"interruptEnable\000"
 1501      72727570 
 1501      74456E61 
 1501      626C6500 
 1502              	.LASF22:
 1503 029a 656E4550 		.ascii	"enEPCFBoolean_Max\000"
 1503      4346426F 
 1503      6F6C6561 
 1503      6E5F4D61 
 1503      7800
 1504              	.LASF4:
 1505 02ac 756E7369 		.ascii	"unsigned char\000"
 1505      676E6564 
 1505      20636861 
 1505      7200
 1506              	.LASF57:
 1507 02ba 656E4550 		.ascii	"enEPCFUartParity_Max\000"
 1507      43465561 
 1507      72745061 
 1507      72697479 
 1507      5F4D6178 
 1508              	.LASF80:
 1509 02cf 6D794C45 		.ascii	"myLED\000"
ARM GAS  /tmp/ccl4PqGW.s 			page 32


 1509      4400
 1510              	.LASF1:
 1511 02d5 7369676E 		.ascii	"signed char\000"
 1511      65642063 
 1511      68617200 
 1512              	.LASF12:
 1513 02e1 6C6F6E67 		.ascii	"long long unsigned int\000"
 1513      206C6F6E 
 1513      6720756E 
 1513      7369676E 
 1513      65642069 
 1514              	.LASF43:
 1515 02f8 656E4550 		.ascii	"enEPCFUartBaudrate_115200\000"
 1515      43465561 
 1515      72744261 
 1515      75647261 
 1515      74655F31 
 1516              	.LASF73:
 1517 0312 73746174 		.ascii	"status1\000"
 1517      75733100 
 1518              	.LASF74:
 1519 031a 73746174 		.ascii	"status2\000"
 1519      75733200 
 1520              	.LASF0:
 1521 0322 756E7369 		.ascii	"unsigned int\000"
 1521      676E6564 
 1521      20696E74 
 1521      00
 1522              	.LASF10:
 1523 032f 6C6F6E67 		.ascii	"long unsigned int\000"
 1523      20756E73 
 1523      69676E65 
 1523      6420696E 
 1523      7400
 1524              	.LASF29:
 1525 0341 456E4550 		.ascii	"EnEPCFTimeUnit_t\000"
 1525      43465469 
 1525      6D65556E 
 1525      69745F74 
 1525      00
 1526              	.LASF50:
 1527 0352 656E4550 		.ascii	"enEPCFUartDatabits_Max\000"
 1527      43465561 
 1527      72744461 
 1527      74616269 
 1527      74735F4D 
 1528              	.LASF40:
 1529 0369 656E4550 		.ascii	"enEPCFUartBaudrate_19200\000"
 1529      43465561 
 1529      72744261 
 1529      75647261 
 1529      74655F31 
 1530              	.LASF41:
 1531 0382 656E4550 		.ascii	"enEPCFUartBaudrate_38400\000"
 1531      43465561 
 1531      72744261 
 1531      75647261 
ARM GAS  /tmp/ccl4PqGW.s 			page 33


 1531      74655F33 
 1532              	.LASF6:
 1533 039b 73686F72 		.ascii	"short unsigned int\000"
 1533      7420756E 
 1533      7369676E 
 1533      65642069 
 1533      6E7400
 1534              	.LASF2:
 1535 03ae 5F5F696E 		.ascii	"__int8_t\000"
 1535      74385F74 
 1535      00
 1536              	.LASF75:
 1537 03b7 53776974 		.ascii	"Switch_Status\000"
 1537      63685F53 
 1537      74617475 
 1537      7300
 1538              	.LASF14:
 1539 03c5 63686172 		.ascii	"char\000"
 1539      00
 1540              	.LASF55:
 1541 03ca 656E4550 		.ascii	"enEPCFUartParity_One\000"
 1541      43465561 
 1541      72745061 
 1541      72697479 
 1541      5F4F6E65 
 1542              	.LASF17:
 1543 03df 696E7433 		.ascii	"int32_t\000"
 1543      325F7400 
 1544              	.LASF51:
 1545 03e7 456E4550 		.ascii	"EnEPCFUartDataBits_t\000"
 1545      43465561 
 1545      72744461 
 1545      74614269 
 1545      74735F74 
 1546              	.LASF76:
 1547 03fc 74696D65 		.ascii	"timeOut\000"
 1547      4F757400 
 1548              	.LASF28:
 1549 0404 656E4550 		.ascii	"enEPCFTimeUnit_Max\000"
 1549      43465469 
 1549      6D65556E 
 1549      69745F4D 
 1549      617800
 1550              	.LASF26:
 1551 0417 656E4550 		.ascii	"enEPCFTimeUnit_ms\000"
 1551      43465469 
 1551      6D65556E 
 1551      69745F6D 
 1551      7300
 1552              	.LASF77:
 1553 0429 73746174 		.ascii	"status_UART\000"
 1553      75735F55 
 1553      41525400 
 1554              	.LASF72:
 1555 0435 45504346 		.ascii	"EPCFUartCfg_t\000"
 1555      55617274 
 1555      4366675F 
ARM GAS  /tmp/ccl4PqGW.s 			page 34


 1555      7400
 1556              	.LASF79:
 1557 0443 6D794770 		.ascii	"myGpio\000"
 1557      696F00
 1558              	.LASF65:
 1559 044a 64617461 		.ascii	"dataBits\000"
 1559      42697473 
 1559      00
 1560              	.LASF58:
 1561 0453 456E4550 		.ascii	"EnEPCFUartParity_t\000"
 1561      43465561 
 1561      72745061 
 1561      72697479 
 1561      5F7400
 1562              	.LASF44:
 1563 0466 656E4550 		.ascii	"enEPCFUartBaudrate_Max\000"
 1563      43465561 
 1563      72744261 
 1563      75647261 
 1563      74655F4D 
 1564              	.LASF52:
 1565 047d 656E4550 		.ascii	"enEPCFUartParity_None\000"
 1565      43465561 
 1565      72745061 
 1565      72697479 
 1565      5F4E6F6E 
 1566              	.LASF45:
 1567 0493 456E4550 		.ascii	"EnEPCFUartBaudrate_t\000"
 1567      43465561 
 1567      72744261 
 1567      75647261 
 1567      74655F74 
 1568              	.LASF30:
 1569 04a8 636F756E 		.ascii	"count\000"
 1569      7400
 1570              	.LASF33:
 1571 04ae 45504346 		.ascii	"EPCFGpioDevice_t\000"
 1571      4770696F 
 1571      44657669 
 1571      63655F74 
 1571      00
 1572              	.LASF70:
 1573 04bf 72784275 		.ascii	"rxBufferSize\000"
 1573      66666572 
 1573      53697A65 
 1573      00
 1574              	.LASF7:
 1575 04cc 5F5F696E 		.ascii	"__int32_t\000"
 1575      7433325F 
 1575      7400
 1576              	.LASF25:
 1577 04d6 656E4550 		.ascii	"enEPCFTimeUnit_us\000"
 1577      43465469 
 1577      6D65556E 
 1577      69745F75 
 1577      7300
 1578              	.LASF53:
ARM GAS  /tmp/ccl4PqGW.s 			page 35


 1579 04e8 656E4550 		.ascii	"enEPCFUartparity_Odd\000"
 1579      43465561 
 1579      72747061 
 1579      72697479 
 1579      5F4F6464 
 1580              	.LASF46:
 1581 04fd 656E4550 		.ascii	"enEPCFUartDatabits_5\000"
 1581      43465561 
 1581      72744461 
 1581      74616269 
 1581      74735F35 
 1582              	.LASF47:
 1583 0512 656E4550 		.ascii	"enEPCFUartDatabits_6\000"
 1583      43465561 
 1583      72744461 
 1583      74616269 
 1583      74735F36 
 1584              	.LASF81:
 1585 0527 6D795541 		.ascii	"myUART\000"
 1585      525400
 1586              	.LASF36:
 1587 052e 45504346 		.ascii	"EPCFUartDevice\000"
 1587      55617274 
 1587      44657669 
 1587      636500
 1588              	.LASF82:
 1589 053d 75617274 		.ascii	"uart_Config\000"
 1589      5F436F6E 
 1589      66696700 
 1590              	.LASF20:
 1591 0549 656E4550 		.ascii	"enEPCFBoolean_False\000"
 1591      4346426F 
 1591      6F6C6561 
 1591      6E5F4661 
 1591      6C736500 
 1592              	.LASF78:
 1593 055d 49544D5F 		.ascii	"ITM_RxBuffer\000"
 1593      52784275 
 1593      66666572 
 1593      00
 1594              	.LASF71:
 1595 056a 68617264 		.ascii	"hardwareCfg\000"
 1595      77617265 
 1595      43666700 
 1596              	.LASF39:
 1597 0576 656E4550 		.ascii	"enEPCFUartBaudrate_9600\000"
 1597      43465561 
 1597      72744261 
 1597      75647261 
 1597      74655F39 
 1598              	.LASF24:
 1599 058e 656E4550 		.ascii	"enEPCFTimeUnit_ns\000"
 1599      43465469 
 1599      6D65556E 
 1599      69745F6E 
 1599      7300
 1600              	.LASF84:
ARM GAS  /tmp/ccl4PqGW.s 			page 36


 1601 05a0 2E2F736F 		.ascii	"./source/app.c\000"
 1601      75726365 
 1601      2F617070 
 1601      2E6300
 1602              	.LASF35:
 1603 05af 45504346 		.ascii	"EPCFGpioDevice\000"
 1603      4770696F 
 1603      44657669 
 1603      636500
 1604              		.ident	"GCC: (15:4.9.3+svn231177-1) 4.9.3 20150529 (prerelease)"
ARM GAS  /tmp/ccl4PqGW.s 			page 37


DEFINED SYMBOLS
                            *ABS*:0000000000000000 app.c
                            *COM*:0000000000000014 uart_Config
     /tmp/ccl4PqGW.s:49     .rodata:0000000000000000 $d
     /tmp/ccl4PqGW.s:60     .text:0000000000000000 $t
     /tmp/ccl4PqGW.s:65     .text:0000000000000000 main
     /tmp/ccl4PqGW.s:396    .text:00000000000001bc $d
                     .debug_frame:0000000000000010 $d

UNDEFINED SYMBOLS
appInit
epcf_gpio_set
epcf_gpio_clear
epcf_uart_write
LED
myUART
myGpio
myLED
