ARM GAS  /tmp/ccSMIOqx.s 			page 1


   1              		.syntax unified
   2              		.cpu cortex-m3
   3              		.fpu softvfp
   4              		.eabi_attribute 20, 1	@ Tag_ABI_FP_denormal
   5              		.eabi_attribute 21, 1	@ Tag_ABI_FP_exceptions
   6              		.eabi_attribute 23, 3	@ Tag_ABI_FP_number_model
   7              		.eabi_attribute 24, 1	@ Tag_ABI_align8_needed
   8              		.eabi_attribute 25, 1	@ Tag_ABI_align8_preserved
   9              		.eabi_attribute 26, 1	@ Tag_ABI_enum_size
  10              		.eabi_attribute 30, 6	@ Tag_ABI_optimization_goals
  11              		.eabi_attribute 34, 1	@ Tag_CPU_unaligned_access
  12              		.eabi_attribute 18, 4	@ Tag_ABI_PCS_wchar_t
  13              		.file	"gpio_lpc1768.c"
  14              	@ GNU C (15:4.9.3+svn231177-1) version 4.9.3 20150529 (prerelease) (arm-none-eabi)
  15              	@	compiled by GNU C version 5.2.1 20151129, GMP version 6.1.0, MPFR version 3.1.3, MPC version 1.0.
  16              	@ warning: MPFR header version 3.1.3 differs from library version 3.1.4.
  17              	@ GGC heuristics: --param ggc-min-expand=100 --param ggc-min-heapsize=131072
  18              	@ options passed:  -I . -I ./include -I ../pcf/include -imultilib armv7-m
  19              	@ -MD Build/Obj/Debug/gpio_lpc1768.d -MF Build/.dep/gpio_lpc1768.o.d -MP
  20              	@ -MQ Build/Obj/Debug/gpio_lpc1768.o -D__USES_INITFINI__
  21              	@ ../epcf/native/port/arm/cm3/nxp/lpc1768/source/gpio/gpio_lpc1768.c
  22              	@ -mcpu=cortex-m3 -mthumb -auxbase-strip Build/Obj/Debug/gpio_lpc1768.o
  23              	@ -gdwarf-2 -O0 -Wall -Wno-cpp -std=gnu99 -fomit-frame-pointer
  24              	@ -fverbose-asm
  25              	@ options enabled:  -faggressive-loop-optimizations -fauto-inc-dec -fcommon
  26              	@ -fdelete-null-pointer-checks -fdwarf2-cfi-asm -fearly-inlining
  27              	@ -feliminate-unused-debug-types -ffunction-cse -fgcse-lm -fgnu-runtime
  28              	@ -fgnu-unique -fident -finline-atomics -fira-hoist-pressure
  29              	@ -fira-share-save-slots -fira-share-spill-slots -fivopts
  30              	@ -fkeep-static-consts -fleading-underscore -flifetime-dse -fmath-errno
  31              	@ -fmerge-debug-strings -fomit-frame-pointer -fpeephole
  32              	@ -fprefetch-loop-arrays -freg-struct-return
  33              	@ -fsched-critical-path-heuristic -fsched-dep-count-heuristic
  34              	@ -fsched-group-heuristic -fsched-interblock -fsched-last-insn-heuristic
  35              	@ -fsched-rank-heuristic -fsched-spec -fsched-spec-insn-heuristic
  36              	@ -fsched-stalled-insns-dep -fshow-column -fsigned-zeros
  37              	@ -fsplit-ivs-in-unroller -fstrict-volatile-bitfields -fsync-libcalls
  38              	@ -ftrapping-math -ftree-coalesce-vars -ftree-cselim -ftree-forwprop
  39              	@ -ftree-loop-if-convert -ftree-loop-im -ftree-loop-ivcanon
  40              	@ -ftree-loop-optimize -ftree-parallelize-loops= -ftree-phiprop
  41              	@ -ftree-reassoc -ftree-scev-cprop -funit-at-a-time -fverbose-asm
  42              	@ -fzero-initialized-in-bss -mfix-cortex-m3-ldrd -mlittle-endian -mlra
  43              	@ -mpic-data-is-text-relative -msched-prolog -mthumb -munaligned-access
  44              	@ -mvectorize-with-neon-quad
  45              	
  46              		.text
  47              	.Ltext0:
  48              		.cfi_sections	.debug_frame
  49              		.bss
  50              		.align	2
  51              	gpioIntMode:
  52 0000 00000000 		.space	42
  52      00000000 
  52      00000000 
  52      00000000 
  52      00000000 
  53              		.data
ARM GAS  /tmp/ccSMIOqx.s 			page 2


  54              		.type	gpioDeviceCount, %object
  55              		.size	gpioDeviceCount, 1
  56              	gpioDeviceCount:
  57 0000 32       		.byte	50
  58              		.bss
  59              	gpioIntEnable:
  60 002a 00       		.space	1
  61 002b 00       		.align	2
  62              	gpioIntCallbackList:
  63 002c 00000000 		.space	168
  63      00000000 
  63      00000000 
  63      00000000 
  63      00000000 
  64              	gpioIntCallbackAttached:
  65 00d4 00       		.space	1
  66 00d5 000000   		.align	2
  67              	gpioIntList:
  68 00d8 00000000 		.space	504
  68      00000000 
  68      00000000 
  68      00000000 
  68      00000000 
  69              	gpioIntId:
  70 02d0 00       		.space	1
  71 02d1 000000   		.align	2
  72              	gpioIntBusy:
  73 02d4 00000000 		.space	42
  73      00000000 
  73      00000000 
  73      00000000 
  73      00000000 
  74              	gpioIntInit:
  75 02fe 00       		.space	1
  76              		.text
  77              		.align	2
  78              		.global	epcf_gpio_nativeInit
  79              		.thumb
  80              		.thumb_func
  81              		.type	epcf_gpio_nativeInit, %function
  82              	epcf_gpio_nativeInit:
  83              	.LFB40:
  84              		.file 1 "../epcf/native/port/arm/cm3/nxp/lpc1768/source/gpio/gpio_lpc1768.c"
   1:../epcf/native/port/arm/cm3/nxp/lpc1768/source/gpio/gpio_lpc1768.c **** #include "pcf.h"
   2:../epcf/native/port/arm/cm3/nxp/lpc1768/source/gpio/gpio_lpc1768.c **** 
   3:../epcf/native/port/arm/cm3/nxp/lpc1768/source/gpio/gpio_lpc1768.c **** #define __EPCF_GPIO_HIDDEN_INCLUDE PCF_CONDITIONAL_INCLUDE_FILE(EPCF_DIR_PATH/,peripheral/source/,g
   4:../epcf/native/port/arm/cm3/nxp/lpc1768/source/gpio/gpio_lpc1768.c **** #include  __EPCF_GPIO_HIDDEN_INCLUDE
   5:../epcf/native/port/arm/cm3/nxp/lpc1768/source/gpio/gpio_lpc1768.c **** #undef __EPCF_GPIO_HIDDEN_INCLUDE
   6:../epcf/native/port/arm/cm3/nxp/lpc1768/source/gpio/gpio_lpc1768.c **** 
   7:../epcf/native/port/arm/cm3/nxp/lpc1768/source/gpio/gpio_lpc1768.c **** #define __EPCF_UTILS_GPIO_H_INCLUDE PCF_CONDITIONAL_INCLUDE_FILE(EPCF_DIR_PATH/,utils/,include/,epc
   8:../epcf/native/port/arm/cm3/nxp/lpc1768/source/gpio/gpio_lpc1768.c **** #include  __EPCF_UTILS_GPIO_H_INCLUDE
   9:../epcf/native/port/arm/cm3/nxp/lpc1768/source/gpio/gpio_lpc1768.c **** #undef __EPCF_UTILS_GPIO_H_INCLUDE
  10:../epcf/native/port/arm/cm3/nxp/lpc1768/source/gpio/gpio_lpc1768.c **** 
  11:../epcf/native/port/arm/cm3/nxp/lpc1768/source/gpio/gpio_lpc1768.c **** #define __EPCF_GPIO_MAX_PORT       5
  12:../epcf/native/port/arm/cm3/nxp/lpc1768/source/gpio/gpio_lpc1768.c **** 
  13:../epcf/native/port/arm/cm3/nxp/lpc1768/source/gpio/gpio_lpc1768.c **** #define __EPCF_GPIO_MAX_PINS       50   //Maximum No. of pins that can be configured as GPIO in lpc
  14:../epcf/native/port/arm/cm3/nxp/lpc1768/source/gpio/gpio_lpc1768.c **** 
ARM GAS  /tmp/ccSMIOqx.s 			page 3


  15:../epcf/native/port/arm/cm3/nxp/lpc1768/source/gpio/gpio_lpc1768.c **** /**
  16:../epcf/native/port/arm/cm3/nxp/lpc1768/source/gpio/gpio_lpc1768.c ****  * The macro is used to set the alternate function as GPIO.
  17:../epcf/native/port/arm/cm3/nxp/lpc1768/source/gpio/gpio_lpc1768.c ****  */
  18:../epcf/native/port/arm/cm3/nxp/lpc1768/source/gpio/gpio_lpc1768.c **** #define __EPCF_ALT_FUNCTION_GPIO              0
  19:../epcf/native/port/arm/cm3/nxp/lpc1768/source/gpio/gpio_lpc1768.c **** /**
  20:../epcf/native/port/arm/cm3/nxp/lpc1768/source/gpio/gpio_lpc1768.c ****  * The macro is used to set maximum GPIO interrupts available.
  21:../epcf/native/port/arm/cm3/nxp/lpc1768/source/gpio/gpio_lpc1768.c ****  */
  22:../epcf/native/port/arm/cm3/nxp/lpc1768/source/gpio/gpio_lpc1768.c **** #define __EPCF_GPIO_INT_MAX                 42
  23:../epcf/native/port/arm/cm3/nxp/lpc1768/source/gpio/gpio_lpc1768.c **** 
  24:../epcf/native/port/arm/cm3/nxp/lpc1768/source/gpio/gpio_lpc1768.c **** static uint8_t gpioIntMode[__EPCF_GPIO_INT_MAX]={0};
  25:../epcf/native/port/arm/cm3/nxp/lpc1768/source/gpio/gpio_lpc1768.c **** static uint8_t gpioDeviceCount = __EPCF_GPIO_MAX_PINS;
  26:../epcf/native/port/arm/cm3/nxp/lpc1768/source/gpio/gpio_lpc1768.c **** static EnEPCFBoolean_t gpioIntEnable=enEPCFBoolean_False;
  27:../epcf/native/port/arm/cm3/nxp/lpc1768/source/gpio/gpio_lpc1768.c **** static epcfCallback_fp gpioIntCallbackList[__EPCF_GPIO_INT_MAX];
  28:../epcf/native/port/arm/cm3/nxp/lpc1768/source/gpio/gpio_lpc1768.c **** static EnEPCFBoolean_t gpioIntCallbackAttached =enEPCFBoolean_False;
  29:../epcf/native/port/arm/cm3/nxp/lpc1768/source/gpio/gpio_lpc1768.c **** static EPCFGpioCfg_t gpioIntList[__EPCF_GPIO_INT_MAX]; //Max gpio interrupts in port 0 and port 2
  30:../epcf/native/port/arm/cm3/nxp/lpc1768/source/gpio/gpio_lpc1768.c **** static uint8_t gpioIntId =0;
  31:../epcf/native/port/arm/cm3/nxp/lpc1768/source/gpio/gpio_lpc1768.c **** static EnEPCFBoolean_t gpioIntBusy[__EPCF_GPIO_INT_MAX];
  32:../epcf/native/port/arm/cm3/nxp/lpc1768/source/gpio/gpio_lpc1768.c **** static EnEPCFBoolean_t gpioIntInit=enEPCFBoolean_False;
  33:../epcf/native/port/arm/cm3/nxp/lpc1768/source/gpio/gpio_lpc1768.c **** 
  34:../epcf/native/port/arm/cm3/nxp/lpc1768/source/gpio/gpio_lpc1768.c **** //void EPCF_EINT3_INT_HANDLER(void);
  35:../epcf/native/port/arm/cm3/nxp/lpc1768/source/gpio/gpio_lpc1768.c **** //EnEPCFBoolean_t isGpioIntEnable(void);
  36:../epcf/native/port/arm/cm3/nxp/lpc1768/source/gpio/gpio_lpc1768.c **** //EnEPCFBoolean_t isExtInt3Enable(void);
  37:../epcf/native/port/arm/cm3/nxp/lpc1768/source/gpio/gpio_lpc1768.c **** //EnEPCFBoolean_t getCallbackPointer(epcfCallback_fp* pCallback );
  38:../epcf/native/port/arm/cm3/nxp/lpc1768/source/gpio/gpio_lpc1768.c **** 
  39:../epcf/native/port/arm/cm3/nxp/lpc1768/source/gpio/gpio_lpc1768.c **** 
  40:../epcf/native/port/arm/cm3/nxp/lpc1768/source/gpio/gpio_lpc1768.c **** int8_t epcf_gpio_nativeInit(EPCFGpioCfg_t *pConfig)
  41:../epcf/native/port/arm/cm3/nxp/lpc1768/source/gpio/gpio_lpc1768.c **** {
  85              		.loc 1 41 0
  86              		.cfi_startproc
  87              		@ args = 0, pretend = 0, frame = 32
  88              		@ frame_needed = 0, uses_anonymous_args = 0
  89 0000 00B5     		push	{lr}	@
  90              	.LCFI0:
  91              		.cfi_def_cfa_offset 4
  92              		.cfi_offset 14, -4
  93 0002 89B0     		sub	sp, sp, #36	@,,
  94              	.LCFI1:
  95              		.cfi_def_cfa_offset 40
  96 0004 0190     		str	r0, [sp, #4]	@ pConfig, pConfig
  42:../epcf/native/port/arm/cm3/nxp/lpc1768/source/gpio/gpio_lpc1768.c ****     EPCFPinCfg_t pPinCfg;
  43:../epcf/native/port/arm/cm3/nxp/lpc1768/source/gpio/gpio_lpc1768.c ****     int8_t status = 0;
  97              		.loc 1 43 0
  98 0006 0023     		movs	r3, #0	@ tmp141,
  99 0008 8DF81E30 		strb	r3, [sp, #30]	@ tmp142, status
  44:../epcf/native/port/arm/cm3/nxp/lpc1768/source/gpio/gpio_lpc1768.c ****     int8_t index = 0;
 100              		.loc 1 44 0
 101 000c 0023     		movs	r3, #0	@ tmp143,
 102 000e 8DF81F30 		strb	r3, [sp, #31]	@ tmp144, index
  45:../epcf/native/port/arm/cm3/nxp/lpc1768/source/gpio/gpio_lpc1768.c **** 
  46:../epcf/native/port/arm/cm3/nxp/lpc1768/source/gpio/gpio_lpc1768.c ****     pPinCfg.altFunction  = (uint32_t)__EPCF_ALT_FUNCTION_GPIO;
 103              		.loc 1 46 0
 104 0012 0023     		movs	r3, #0	@ tmp145,
 105 0014 0693     		str	r3, [sp, #24]	@ tmp145, pPinCfg.altFunction
  47:../epcf/native/port/arm/cm3/nxp/lpc1768/source/gpio/gpio_lpc1768.c ****     pPinCfg.direction    = pConfig->direction;
 106              		.loc 1 47 0
 107 0016 019B     		ldr	r3, [sp, #4]	@ tmp146, pConfig
 108 0018 9B78     		ldrb	r3, [r3, #2]	@ zero_extendqisi2	@ D.6530, pConfig_5(D)->direction
ARM GAS  /tmp/ccSMIOqx.s 			page 4


 109 001a 0393     		str	r3, [sp, #12]	@ D.6531, pPinCfg.direction
  48:../epcf/native/port/arm/cm3/nxp/lpc1768/source/gpio/gpio_lpc1768.c ****     pPinCfg.mode         = pConfig->mode;
 110              		.loc 1 48 0
 111 001c 019B     		ldr	r3, [sp, #4]	@ tmp147, pConfig
 112 001e DB78     		ldrb	r3, [r3, #3]	@ zero_extendqisi2	@ D.6532, pConfig_5(D)->mode
 113 0020 0493     		str	r3, [sp, #16]	@ D.6531, pPinCfg.mode
  49:../epcf/native/port/arm/cm3/nxp/lpc1768/source/gpio/gpio_lpc1768.c ****     pPinCfg.openDrain    = pConfig->openDrain;
 114              		.loc 1 49 0
 115 0022 019B     		ldr	r3, [sp, #4]	@ tmp148, pConfig
 116 0024 1B79     		ldrb	r3, [r3, #4]	@ zero_extendqisi2	@ D.6533, pConfig_5(D)->openDrain
 117 0026 0593     		str	r3, [sp, #20]	@ D.6531, pPinCfg.openDrain
  50:../epcf/native/port/arm/cm3/nxp/lpc1768/source/gpio/gpio_lpc1768.c ****     pPinCfg.portPin.port = pConfig->portPin.port;
 118              		.loc 1 50 0
 119 0028 019B     		ldr	r3, [sp, #4]	@ tmp149, pConfig
 120 002a 1B78     		ldrb	r3, [r3]	@ zero_extendqisi2	@ D.6534, pConfig_5(D)->portPin.port
 121 002c 8DF80830 		strb	r3, [sp, #8]	@ tmp150, pPinCfg.portPin.port
  51:../epcf/native/port/arm/cm3/nxp/lpc1768/source/gpio/gpio_lpc1768.c ****     pPinCfg.portPin.pin  = pConfig->portPin.pin;
 122              		.loc 1 51 0
 123 0030 019B     		ldr	r3, [sp, #4]	@ tmp151, pConfig
 124 0032 5B78     		ldrb	r3, [r3, #1]	@ zero_extendqisi2	@ D.6534, pConfig_5(D)->portPin.pin
 125 0034 8DF80930 		strb	r3, [sp, #9]	@ tmp152, pPinCfg.portPin.pin
  52:../epcf/native/port/arm/cm3/nxp/lpc1768/source/gpio/gpio_lpc1768.c **** 
  53:../epcf/native/port/arm/cm3/nxp/lpc1768/source/gpio/gpio_lpc1768.c ****     status = epcfPinInit(&pPinCfg);
 126              		.loc 1 53 0
 127 0038 02AB     		add	r3, sp, #8	@ tmp153,,
 128 003a 1846     		mov	r0, r3	@, tmp153
 129 003c FFF7FEFF 		bl	epcfPinInit	@
 130 0040 0346     		mov	r3, r0	@ tmp154,
 131 0042 8DF81E30 		strb	r3, [sp, #30]	@ tmp155, status
  54:../epcf/native/port/arm/cm3/nxp/lpc1768/source/gpio/gpio_lpc1768.c ****     if(status != EPCF_STATUS_SUCCESS)
 132              		.loc 1 54 0
 133 0046 9DF91E30 		ldrsb	r3, [sp, #30]	@ tmp156, status
 134 004a 002B     		cmp	r3, #0	@ tmp156,
 135 004c 02D0     		beq	.L2	@,
  55:../epcf/native/port/arm/cm3/nxp/lpc1768/source/gpio/gpio_lpc1768.c ****         return status;
 136              		.loc 1 55 0
 137 004e 9DF81E30 		ldrb	r3, [sp, #30]	@ zero_extendqisi2	@ D.6529, status
 138 0052 5FE0     		b	.L14	@
 139              	.L2:
  56:../epcf/native/port/arm/cm3/nxp/lpc1768/source/gpio/gpio_lpc1768.c **** 
  57:../epcf/native/port/arm/cm3/nxp/lpc1768/source/gpio/gpio_lpc1768.c **** 
  58:../epcf/native/port/arm/cm3/nxp/lpc1768/source/gpio/gpio_lpc1768.c ****     if(pConfig->intEnable == enEPCFBoolean_True)
 140              		.loc 1 58 0
 141 0054 019B     		ldr	r3, [sp, #4]	@ tmp157, pConfig
 142 0056 5B79     		ldrb	r3, [r3, #5]	@ zero_extendqisi2	@ D.6535, pConfig_5(D)->intEnable
 143 0058 012B     		cmp	r3, #1	@ D.6535,
 144 005a 53D1     		bne	.L4	@,
  59:../epcf/native/port/arm/cm3/nxp/lpc1768/source/gpio/gpio_lpc1768.c ****     {
  60:../epcf/native/port/arm/cm3/nxp/lpc1768/source/gpio/gpio_lpc1768.c ****         if((pConfig->portPin.port!=EPCF_PORT_2)&&(pConfig->portPin.port!=EPCF_PORT_0))
 145              		.loc 1 60 0
 146 005c 019B     		ldr	r3, [sp, #4]	@ tmp158, pConfig
 147 005e 1B78     		ldrb	r3, [r3]	@ zero_extendqisi2	@ D.6534, pConfig_5(D)->portPin.port
 148 0060 022B     		cmp	r3, #2	@ D.6534,
 149 0062 05D0     		beq	.L5	@,
 150              		.loc 1 60 0 is_stmt 0 discriminator 1
 151 0064 019B     		ldr	r3, [sp, #4]	@ tmp159, pConfig
 152 0066 1B78     		ldrb	r3, [r3]	@ zero_extendqisi2	@ D.6534, pConfig_5(D)->portPin.port
ARM GAS  /tmp/ccSMIOqx.s 			page 5


 153 0068 002B     		cmp	r3, #0	@ D.6534,
 154 006a 01D0     		beq	.L5	@,
  61:../epcf/native/port/arm/cm3/nxp/lpc1768/source/gpio/gpio_lpc1768.c ****             return EPCF_STATUS_ERROR;
 155              		.loc 1 61 0 is_stmt 1
 156 006c FF23     		movs	r3, #255	@ D.6529,
 157 006e 51E0     		b	.L14	@
 158              	.L5:
  62:../epcf/native/port/arm/cm3/nxp/lpc1768/source/gpio/gpio_lpc1768.c **** 
  63:../epcf/native/port/arm/cm3/nxp/lpc1768/source/gpio/gpio_lpc1768.c ****         if((pConfig->portPin.port == EPCF_PORT_2)&&(pConfig->portPin.pin > EPCF_PIN_13))
 159              		.loc 1 63 0
 160 0070 019B     		ldr	r3, [sp, #4]	@ tmp160, pConfig
 161 0072 1B78     		ldrb	r3, [r3]	@ zero_extendqisi2	@ D.6534, pConfig_5(D)->portPin.port
 162 0074 022B     		cmp	r3, #2	@ D.6534,
 163 0076 05D1     		bne	.L6	@,
 164              		.loc 1 63 0 is_stmt 0 discriminator 1
 165 0078 019B     		ldr	r3, [sp, #4]	@ tmp161, pConfig
 166 007a 5B78     		ldrb	r3, [r3, #1]	@ zero_extendqisi2	@ D.6534, pConfig_5(D)->portPin.pin
 167 007c 0D2B     		cmp	r3, #13	@ D.6534,
 168 007e 01D9     		bls	.L6	@,
  64:../epcf/native/port/arm/cm3/nxp/lpc1768/source/gpio/gpio_lpc1768.c ****             return EPCF_STATUS_ERROR;
 169              		.loc 1 64 0 is_stmt 1
 170 0080 FF23     		movs	r3, #255	@ D.6529,
 171 0082 47E0     		b	.L14	@
 172              	.L6:
  65:../epcf/native/port/arm/cm3/nxp/lpc1768/source/gpio/gpio_lpc1768.c **** 
  66:../epcf/native/port/arm/cm3/nxp/lpc1768/source/gpio/gpio_lpc1768.c ****         if((pConfig->portPin.port == EPCF_PORT_0)&&((pConfig->portPin.pin == EPCF_PIN_12)||(pConfig
 173              		.loc 1 66 0
 174 0084 019B     		ldr	r3, [sp, #4]	@ tmp162, pConfig
 175 0086 1B78     		ldrb	r3, [r3]	@ zero_extendqisi2	@ D.6534, pConfig_5(D)->portPin.port
 176 0088 002B     		cmp	r3, #0	@ D.6534,
 177 008a 0DD1     		bne	.L7	@,
 178              		.loc 1 66 0 is_stmt 0 discriminator 1
 179 008c 019B     		ldr	r3, [sp, #4]	@ tmp163, pConfig
 180 008e 5B78     		ldrb	r3, [r3, #1]	@ zero_extendqisi2	@ D.6534, pConfig_5(D)->portPin.pin
 181 0090 0C2B     		cmp	r3, #12	@ D.6534,
 182 0092 07D0     		beq	.L8	@,
 183              		.loc 1 66 0 discriminator 2
 184 0094 019B     		ldr	r3, [sp, #4]	@ tmp164, pConfig
 185 0096 5B78     		ldrb	r3, [r3, #1]	@ zero_extendqisi2	@ D.6534, pConfig_5(D)->portPin.pin
 186 0098 0D2B     		cmp	r3, #13	@ D.6534,
 187 009a 03D0     		beq	.L8	@,
 188              		.loc 1 66 0 discriminator 3
 189 009c 019B     		ldr	r3, [sp, #4]	@ tmp165, pConfig
 190 009e 5B78     		ldrb	r3, [r3, #1]	@ zero_extendqisi2	@ D.6534, pConfig_5(D)->portPin.pin
 191 00a0 0E2B     		cmp	r3, #14	@ D.6534,
 192 00a2 01D1     		bne	.L7	@,
 193              	.L8:
  67:../epcf/native/port/arm/cm3/nxp/lpc1768/source/gpio/gpio_lpc1768.c ****             return EPCF_STATUS_ERROR;
 194              		.loc 1 67 0 is_stmt 1
 195 00a4 FF23     		movs	r3, #255	@ D.6529,
 196 00a6 35E0     		b	.L14	@
 197              	.L7:
  68:../epcf/native/port/arm/cm3/nxp/lpc1768/source/gpio/gpio_lpc1768.c **** 
  69:../epcf/native/port/arm/cm3/nxp/lpc1768/source/gpio/gpio_lpc1768.c ****         if((EnEPCFGpioIntMode_t)pConfig->mode > enEPCFGpioIntMode_LowLevel) //supports edge not lev
 198              		.loc 1 69 0
 199 00a8 019B     		ldr	r3, [sp, #4]	@ tmp166, pConfig
 200 00aa DB78     		ldrb	r3, [r3, #3]	@ zero_extendqisi2	@ D.6532, pConfig_5(D)->mode
ARM GAS  /tmp/ccSMIOqx.s 			page 6


 201 00ac 032B     		cmp	r3, #3	@ D.6532,
 202 00ae 01D9     		bls	.L9	@,
  70:../epcf/native/port/arm/cm3/nxp/lpc1768/source/gpio/gpio_lpc1768.c ****             return  EPCF_STATUS_ERROR;
 203              		.loc 1 70 0
 204 00b0 FF23     		movs	r3, #255	@ D.6529,
 205 00b2 2FE0     		b	.L14	@
 206              	.L9:
  71:../epcf/native/port/arm/cm3/nxp/lpc1768/source/gpio/gpio_lpc1768.c **** 
  72:../epcf/native/port/arm/cm3/nxp/lpc1768/source/gpio/gpio_lpc1768.c **** //        if(isExtInt3Enable() == enEPCFBoolean_True)
  73:../epcf/native/port/arm/cm3/nxp/lpc1768/source/gpio/gpio_lpc1768.c **** //            return  EPCF_STATUS_ERROR;
  74:../epcf/native/port/arm/cm3/nxp/lpc1768/source/gpio/gpio_lpc1768.c **** 
  75:../epcf/native/port/arm/cm3/nxp/lpc1768/source/gpio/gpio_lpc1768.c ****         for (index = 0; index < __EPCF_GPIO_INT_MAX; index++)
 207              		.loc 1 75 0
 208 00b4 0023     		movs	r3, #0	@ tmp167,
 209 00b6 8DF81F30 		strb	r3, [sp, #31]	@ tmp168, index
 210 00ba 1CE0     		b	.L10	@
 211              	.L13:
  76:../epcf/native/port/arm/cm3/nxp/lpc1768/source/gpio/gpio_lpc1768.c ****         {
  77:../epcf/native/port/arm/cm3/nxp/lpc1768/source/gpio/gpio_lpc1768.c ****             if(gpioIntBusy[index] == enEPCFBoolean_False)
 212              		.loc 1 77 0
 213 00bc 9DF91F30 		ldrsb	r3, [sp, #31]	@ D.6536, index
 214 00c0 174A     		ldr	r2, .L15	@ tmp169,
 215 00c2 D35C     		ldrb	r3, [r2, r3]	@ zero_extendqisi2	@ D.6535, gpioIntBusy
 216 00c4 002B     		cmp	r3, #0	@ D.6535,
 217 00c6 0FD1     		bne	.L11	@,
  78:../epcf/native/port/arm/cm3/nxp/lpc1768/source/gpio/gpio_lpc1768.c ****             {
  79:../epcf/native/port/arm/cm3/nxp/lpc1768/source/gpio/gpio_lpc1768.c ****                 gpioIntId = index;
 218              		.loc 1 79 0
 219 00c8 9DF81F20 		ldrb	r2, [sp, #31]	@ zero_extendqisi2	@ D.6534, index
 220 00cc 154B     		ldr	r3, .L15+4	@ tmp170,
 221 00ce 1A70     		strb	r2, [r3]	@ tmp171, gpioIntId
  80:../epcf/native/port/arm/cm3/nxp/lpc1768/source/gpio/gpio_lpc1768.c ****                 gpioIntBusy[index] = enEPCFBoolean_True;
 222              		.loc 1 80 0
 223 00d0 9DF91F30 		ldrsb	r3, [sp, #31]	@ D.6536, index
 224 00d4 124A     		ldr	r2, .L15	@ tmp172,
 225 00d6 0121     		movs	r1, #1	@ tmp173,
 226 00d8 D154     		strb	r1, [r2, r3]	@ tmp174, gpioIntBusy
  81:../epcf/native/port/arm/cm3/nxp/lpc1768/source/gpio/gpio_lpc1768.c ****                 gpioIntMode[index] = pConfig->intMode;
 227              		.loc 1 81 0
 228 00da 9DF91F30 		ldrsb	r3, [sp, #31]	@ D.6536, index
 229 00de 019A     		ldr	r2, [sp, #4]	@ tmp175, pConfig
 230 00e0 9179     		ldrb	r1, [r2, #6]	@ zero_extendqisi2	@ D.6539, pConfig_5(D)->intMode
 231 00e2 114A     		ldr	r2, .L15+8	@ tmp176,
 232 00e4 D154     		strb	r1, [r2, r3]	@ tmp177, gpioIntMode
  82:../epcf/native/port/arm/cm3/nxp/lpc1768/source/gpio/gpio_lpc1768.c ****                 break;
 233              		.loc 1 82 0
 234 00e6 0AE0     		b	.L12	@
 235              	.L11:
  75:../epcf/native/port/arm/cm3/nxp/lpc1768/source/gpio/gpio_lpc1768.c ****         {
 236              		.loc 1 75 0 discriminator 2
 237 00e8 9DF81F30 		ldrb	r3, [sp, #31]	@ zero_extendqisi2	@ D.6537, index
 238 00ec DBB2     		uxtb	r3, r3	@ D.6538, D.6537
 239 00ee 0133     		adds	r3, r3, #1	@ tmp178, D.6538,
 240 00f0 DBB2     		uxtb	r3, r3	@ D.6538, tmp178
 241 00f2 8DF81F30 		strb	r3, [sp, #31]	@ tmp179, index
 242              	.L10:
  75:../epcf/native/port/arm/cm3/nxp/lpc1768/source/gpio/gpio_lpc1768.c ****         {
ARM GAS  /tmp/ccSMIOqx.s 			page 7


 243              		.loc 1 75 0 is_stmt 0 discriminator 1
 244 00f6 9DF91F30 		ldrsb	r3, [sp, #31]	@ tmp180, index
 245 00fa 292B     		cmp	r3, #41	@ tmp180,
 246 00fc DEDD     		ble	.L13	@,
 247              	.L12:
  83:../epcf/native/port/arm/cm3/nxp/lpc1768/source/gpio/gpio_lpc1768.c ****             }
  84:../epcf/native/port/arm/cm3/nxp/lpc1768/source/gpio/gpio_lpc1768.c ****         }
  85:../epcf/native/port/arm/cm3/nxp/lpc1768/source/gpio/gpio_lpc1768.c **** 
  86:../epcf/native/port/arm/cm3/nxp/lpc1768/source/gpio/gpio_lpc1768.c **** //        pcfMemCopy(&gpioIntList[gpioIntId],pConfig,sizeof(EPCFGpioCfg_t) );
  87:../epcf/native/port/arm/cm3/nxp/lpc1768/source/gpio/gpio_lpc1768.c ****         gpioIntInit = enEPCFBoolean_True;
 248              		.loc 1 87 0 is_stmt 1
 249 00fe 0B4B     		ldr	r3, .L15+12	@ tmp181,
 250 0100 0122     		movs	r2, #1	@ tmp182,
 251 0102 1A70     		strb	r2, [r3]	@ tmp183, gpioIntInit
 252              	.L4:
  88:../epcf/native/port/arm/cm3/nxp/lpc1768/source/gpio/gpio_lpc1768.c ****     }
  89:../epcf/native/port/arm/cm3/nxp/lpc1768/source/gpio/gpio_lpc1768.c **** 
  90:../epcf/native/port/arm/cm3/nxp/lpc1768/source/gpio/gpio_lpc1768.c ****     gpioDeviceCount--;
 253              		.loc 1 90 0
 254 0104 0A4B     		ldr	r3, .L15+16	@ tmp184,
 255 0106 1B78     		ldrb	r3, [r3]	@ zero_extendqisi2	@ D.6534, gpioDeviceCount
 256 0108 013B     		subs	r3, r3, #1	@ tmp185, D.6534,
 257 010a DAB2     		uxtb	r2, r3	@ D.6534, tmp185
 258 010c 084B     		ldr	r3, .L15+16	@ tmp186,
 259 010e 1A70     		strb	r2, [r3]	@ tmp187, gpioDeviceCount
  91:../epcf/native/port/arm/cm3/nxp/lpc1768/source/gpio/gpio_lpc1768.c **** 
  92:../epcf/native/port/arm/cm3/nxp/lpc1768/source/gpio/gpio_lpc1768.c ****     return status;
 260              		.loc 1 92 0
 261 0110 9DF81E30 		ldrb	r3, [sp, #30]	@ zero_extendqisi2	@ D.6529, status
 262              	.L14:
 263 0114 5BB2     		sxtb	r3, r3	@ tmp189, D.6529
  93:../epcf/native/port/arm/cm3/nxp/lpc1768/source/gpio/gpio_lpc1768.c **** }
 264              		.loc 1 93 0 discriminator 1
 265 0116 1846     		mov	r0, r3	@, <retval>
 266 0118 09B0     		add	sp, sp, #36	@,,
 267              	.LCFI2:
 268              		.cfi_def_cfa_offset 4
 269              		@ sp needed	@
 270 011a 5DF804FB 		ldr	pc, [sp], #4	@
 271              	.L16:
 272 011e 00BF     		.align	2
 273              	.L15:
 274 0120 D4020000 		.word	gpioIntBusy
 275 0124 D0020000 		.word	gpioIntId
 276 0128 00000000 		.word	gpioIntMode
 277 012c FE020000 		.word	gpioIntInit
 278 0130 00000000 		.word	gpioDeviceCount
 279              		.cfi_endproc
 280              	.LFE40:
 281              		.size	epcf_gpio_nativeInit, .-epcf_gpio_nativeInit
 282              		.align	2
 283              		.global	epcf_gpio_nativeSet
 284              		.thumb
 285              		.thumb_func
 286              		.type	epcf_gpio_nativeSet, %function
 287              	epcf_gpio_nativeSet:
 288              	.LFB41:
ARM GAS  /tmp/ccSMIOqx.s 			page 8


  94:../epcf/native/port/arm/cm3/nxp/lpc1768/source/gpio/gpio_lpc1768.c **** 
  95:../epcf/native/port/arm/cm3/nxp/lpc1768/source/gpio/gpio_lpc1768.c **** int8_t epcf_gpio_nativeSet(EPCFGpioDevice_t* pGpiodevice)
  96:../epcf/native/port/arm/cm3/nxp/lpc1768/source/gpio/gpio_lpc1768.c **** {
 289              		.loc 1 96 0
 290              		.cfi_startproc
 291              		@ args = 0, pretend = 0, frame = 8
 292              		@ frame_needed = 0, uses_anonymous_args = 0
 293              		@ link register save eliminated.
 294 0134 82B0     		sub	sp, sp, #8	@,,
 295              	.LCFI3:
 296              		.cfi_def_cfa_offset 8
 297 0136 0190     		str	r0, [sp, #4]	@ pGpiodevice, pGpiodevice
  97:../epcf/native/port/arm/cm3/nxp/lpc1768/source/gpio/gpio_lpc1768.c ****     EPCF_GPIO_PINS_SET(pGpiodevice->portPin.port, pGpiodevice->portPin.pin);
 298              		.loc 1 97 0
 299 0138 019B     		ldr	r3, [sp, #4]	@ tmp121, pGpiodevice
 300 013a 1B79     		ldrb	r3, [r3, #4]	@ zero_extendqisi2	@ D.6540, pGpiodevice_1(D)->portPin.port
 301 013c 5A01     		lsls	r2, r3, #5	@ D.6541, D.6541,
 302 013e 074B     		ldr	r3, .L19	@ D.6541,
 303 0140 1344     		add	r3, r3, r2	@ D.6541, D.6541
 304 0142 1A46     		mov	r2, r3	@ D.6542, D.6541
 305 0144 019B     		ldr	r3, [sp, #4]	@ tmp122, pGpiodevice
 306 0146 5B79     		ldrb	r3, [r3, #5]	@ zero_extendqisi2	@ D.6540, pGpiodevice_1(D)->portPin.pin
 307 0148 1946     		mov	r1, r3	@ D.6541, D.6540
 308 014a 0123     		movs	r3, #1	@ tmp123,
 309 014c 8B40     		lsls	r3, r3, r1	@ D.6541, tmp123, D.6541
 310 014e 1360     		str	r3, [r2]	@ D.6543, *_6
  98:../epcf/native/port/arm/cm3/nxp/lpc1768/source/gpio/gpio_lpc1768.c ****     return EPCF_STATUS_SUCCESS;
 311              		.loc 1 98 0
 312 0150 0023     		movs	r3, #0	@ D.6544,
 313 0152 5BB2     		sxtb	r3, r3	@ tmp125, D.6544
  99:../epcf/native/port/arm/cm3/nxp/lpc1768/source/gpio/gpio_lpc1768.c **** }
 314              		.loc 1 99 0
 315 0154 1846     		mov	r0, r3	@, <retval>
 316 0156 02B0     		add	sp, sp, #8	@,,
 317              	.LCFI4:
 318              		.cfi_def_cfa_offset 0
 319              		@ sp needed	@
 320 0158 7047     		bx	lr	@
 321              	.L20:
 322 015a 00BF     		.align	2
 323              	.L19:
 324 015c 18C00920 		.word	537509912
 325              		.cfi_endproc
 326              	.LFE41:
 327              		.size	epcf_gpio_nativeSet, .-epcf_gpio_nativeSet
 328              		.align	2
 329              		.global	epcf_gpio_nativeClear
 330              		.thumb
 331              		.thumb_func
 332              		.type	epcf_gpio_nativeClear, %function
 333              	epcf_gpio_nativeClear:
 334              	.LFB42:
 100:../epcf/native/port/arm/cm3/nxp/lpc1768/source/gpio/gpio_lpc1768.c **** 
 101:../epcf/native/port/arm/cm3/nxp/lpc1768/source/gpio/gpio_lpc1768.c **** int8_t epcf_gpio_nativeClear(EPCFGpioDevice_t* pGpiodevice)
 102:../epcf/native/port/arm/cm3/nxp/lpc1768/source/gpio/gpio_lpc1768.c **** {
 335              		.loc 1 102 0
 336              		.cfi_startproc
ARM GAS  /tmp/ccSMIOqx.s 			page 9


 337              		@ args = 0, pretend = 0, frame = 8
 338              		@ frame_needed = 0, uses_anonymous_args = 0
 339              		@ link register save eliminated.
 340 0160 82B0     		sub	sp, sp, #8	@,,
 341              	.LCFI5:
 342              		.cfi_def_cfa_offset 8
 343 0162 0190     		str	r0, [sp, #4]	@ pGpiodevice, pGpiodevice
 103:../epcf/native/port/arm/cm3/nxp/lpc1768/source/gpio/gpio_lpc1768.c ****     EPCF_GPIO_PINS_CLEAR(pGpiodevice->portPin.port, pGpiodevice->portPin.pin);
 344              		.loc 1 103 0
 345 0164 019B     		ldr	r3, [sp, #4]	@ tmp121, pGpiodevice
 346 0166 1B79     		ldrb	r3, [r3, #4]	@ zero_extendqisi2	@ D.6545, pGpiodevice_1(D)->portPin.port
 347 0168 5A01     		lsls	r2, r3, #5	@ D.6546, D.6546,
 348 016a 074B     		ldr	r3, .L23	@ D.6546,
 349 016c 1344     		add	r3, r3, r2	@ D.6546, D.6546
 350 016e 1A46     		mov	r2, r3	@ D.6547, D.6546
 351 0170 019B     		ldr	r3, [sp, #4]	@ tmp122, pGpiodevice
 352 0172 5B79     		ldrb	r3, [r3, #5]	@ zero_extendqisi2	@ D.6545, pGpiodevice_1(D)->portPin.pin
 353 0174 1946     		mov	r1, r3	@ D.6546, D.6545
 354 0176 0123     		movs	r3, #1	@ tmp123,
 355 0178 8B40     		lsls	r3, r3, r1	@ D.6546, tmp123, D.6546
 356 017a 1360     		str	r3, [r2]	@ D.6548, *_6
 104:../epcf/native/port/arm/cm3/nxp/lpc1768/source/gpio/gpio_lpc1768.c ****     return EPCF_STATUS_SUCCESS;
 357              		.loc 1 104 0
 358 017c 0023     		movs	r3, #0	@ D.6549,
 359 017e 5BB2     		sxtb	r3, r3	@ tmp125, D.6549
 105:../epcf/native/port/arm/cm3/nxp/lpc1768/source/gpio/gpio_lpc1768.c **** }
 360              		.loc 1 105 0
 361 0180 1846     		mov	r0, r3	@, <retval>
 362 0182 02B0     		add	sp, sp, #8	@,,
 363              	.LCFI6:
 364              		.cfi_def_cfa_offset 0
 365              		@ sp needed	@
 366 0184 7047     		bx	lr	@
 367              	.L24:
 368 0186 00BF     		.align	2
 369              	.L23:
 370 0188 1CC00920 		.word	537509916
 371              		.cfi_endproc
 372              	.LFE42:
 373              		.size	epcf_gpio_nativeClear, .-epcf_gpio_nativeClear
 374              		.align	2
 375              		.global	epcf_gpio_nativeRead
 376              		.thumb
 377              		.thumb_func
 378              		.type	epcf_gpio_nativeRead, %function
 379              	epcf_gpio_nativeRead:
 380              	.LFB43:
 106:../epcf/native/port/arm/cm3/nxp/lpc1768/source/gpio/gpio_lpc1768.c **** 
 107:../epcf/native/port/arm/cm3/nxp/lpc1768/source/gpio/gpio_lpc1768.c **** int8_t epcf_gpio_nativeRead(EPCFGpioDevice_t* pGpiodevice)
 108:../epcf/native/port/arm/cm3/nxp/lpc1768/source/gpio/gpio_lpc1768.c **** {
 381              		.loc 1 108 0
 382              		.cfi_startproc
 383              		@ args = 0, pretend = 0, frame = 16
 384              		@ frame_needed = 0, uses_anonymous_args = 0
 385              		@ link register save eliminated.
 386 018c 84B0     		sub	sp, sp, #16	@,,
 387              	.LCFI7:
ARM GAS  /tmp/ccSMIOqx.s 			page 10


 388              		.cfi_def_cfa_offset 16
 389 018e 0190     		str	r0, [sp, #4]	@ pGpiodevice, pGpiodevice
 109:../epcf/native/port/arm/cm3/nxp/lpc1768/source/gpio/gpio_lpc1768.c ****     int32_t data;
 110:../epcf/native/port/arm/cm3/nxp/lpc1768/source/gpio/gpio_lpc1768.c **** 
 111:../epcf/native/port/arm/cm3/nxp/lpc1768/source/gpio/gpio_lpc1768.c ****     data = EPCF_GPIO_PORT_READ(pGpiodevice->portPin.port);
 390              		.loc 1 111 0
 391 0190 019B     		ldr	r3, [sp, #4]	@ tmp125, pGpiodevice
 392 0192 1B79     		ldrb	r3, [r3, #4]	@ zero_extendqisi2	@ D.6550, pGpiodevice_1(D)->portPin.port
 393 0194 5A01     		lsls	r2, r3, #5	@ D.6551, D.6551,
 394 0196 0A4B     		ldr	r3, .L27	@ D.6551,
 395 0198 1344     		add	r3, r3, r2	@ D.6551, D.6551
 396 019a 1B68     		ldr	r3, [r3]	@ D.6553, *_6
 397 019c 0393     		str	r3, [sp, #12]	@ D.6553, data
 112:../epcf/native/port/arm/cm3/nxp/lpc1768/source/gpio/gpio_lpc1768.c ****     return ( (int8_t)(((1<<(pGpiodevice->portPin.pin)) & data)>>(pGpiodevice->portPin.pin)) );
 398              		.loc 1 112 0
 399 019e 019B     		ldr	r3, [sp, #4]	@ tmp126, pGpiodevice
 400 01a0 5B79     		ldrb	r3, [r3, #5]	@ zero_extendqisi2	@ D.6550, pGpiodevice_1(D)->portPin.pin
 401 01a2 1A46     		mov	r2, r3	@ D.6551, D.6550
 402 01a4 0123     		movs	r3, #1	@ tmp127,
 403 01a6 03FA02F2 		lsl	r2, r3, r2	@ D.6551, tmp127, D.6551
 404 01aa 039B     		ldr	r3, [sp, #12]	@ tmp128, data
 405 01ac 1340     		ands	r3, r3, r2	@, D.6554, tmp128, D.6551
 406 01ae 019A     		ldr	r2, [sp, #4]	@ tmp129, pGpiodevice
 407 01b0 5279     		ldrb	r2, [r2, #5]	@ zero_extendqisi2	@ D.6550, pGpiodevice_1(D)->portPin.pin
 408 01b2 1341     		asrs	r3, r3, r2	@ D.6554, D.6554, D.6551
 409 01b4 DBB2     		uxtb	r3, r3	@ D.6555, D.6554
 410 01b6 5BB2     		sxtb	r3, r3	@ tmp131, D.6555
 113:../epcf/native/port/arm/cm3/nxp/lpc1768/source/gpio/gpio_lpc1768.c **** }
 411              		.loc 1 113 0
 412 01b8 1846     		mov	r0, r3	@, <retval>
 413 01ba 04B0     		add	sp, sp, #16	@,,
 414              	.LCFI8:
 415              		.cfi_def_cfa_offset 0
 416              		@ sp needed	@
 417 01bc 7047     		bx	lr	@
 418              	.L28:
 419 01be 00BF     		.align	2
 420              	.L27:
 421 01c0 14C00920 		.word	537509908
 422              		.cfi_endproc
 423              	.LFE43:
 424              		.size	epcf_gpio_nativeRead, .-epcf_gpio_nativeRead
 425              		.align	2
 426              		.global	epcf_gpio_nativeSetDirection
 427              		.thumb
 428              		.thumb_func
 429              		.type	epcf_gpio_nativeSetDirection, %function
 430              	epcf_gpio_nativeSetDirection:
 431              	.LFB44:
 114:../epcf/native/port/arm/cm3/nxp/lpc1768/source/gpio/gpio_lpc1768.c **** 
 115:../epcf/native/port/arm/cm3/nxp/lpc1768/source/gpio/gpio_lpc1768.c **** int8_t epcf_gpio_nativeSetDirection(EPCFGpioDevice_t* pGpiodevice, EnEPCFGpioDirection_t direction)
 116:../epcf/native/port/arm/cm3/nxp/lpc1768/source/gpio/gpio_lpc1768.c **** {
 432              		.loc 1 116 0
 433              		.cfi_startproc
 434              		@ args = 0, pretend = 0, frame = 8
 435              		@ frame_needed = 0, uses_anonymous_args = 0
 436              		@ link register save eliminated.
ARM GAS  /tmp/ccSMIOqx.s 			page 11


 437 01c4 82B0     		sub	sp, sp, #8	@,,
 438              	.LCFI9:
 439              		.cfi_def_cfa_offset 8
 440 01c6 0190     		str	r0, [sp, #4]	@ pGpiodevice, pGpiodevice
 441 01c8 0B46     		mov	r3, r1	@ tmp147, direction
 442 01ca 8DF80330 		strb	r3, [sp, #3]	@ tmp148, direction
 117:../epcf/native/port/arm/cm3/nxp/lpc1768/source/gpio/gpio_lpc1768.c ****     EPCF_GPIO_SET_DIR(pGpiodevice->portPin.port, pGpiodevice->portPin.pin, direction);
 443              		.loc 1 117 0
 444 01ce 9DF80330 		ldrb	r3, [sp, #3]	@ zero_extendqisi2	@ tmp149, direction
 445 01d2 002B     		cmp	r3, #0	@ tmp149,
 446 01d4 17D0     		beq	.L30	@,
 447              		.loc 1 117 0 is_stmt 0 discriminator 1
 448 01d6 019B     		ldr	r3, [sp, #4]	@ tmp150, pGpiodevice
 449 01d8 1B79     		ldrb	r3, [r3, #4]	@ zero_extendqisi2	@ D.6556, pGpiodevice_2(D)->portPin.port
 450 01da 03F18073 		add	r3, r3, #16777216	@ D.6557, D.6557,
 451 01de 03F59C43 		add	r3, r3, #19968	@ D.6557, D.6557,
 452 01e2 5B01     		lsls	r3, r3, #5	@ D.6557, D.6557,
 453 01e4 1946     		mov	r1, r3	@ D.6558, D.6557
 454 01e6 019B     		ldr	r3, [sp, #4]	@ tmp151, pGpiodevice
 455 01e8 1B79     		ldrb	r3, [r3, #4]	@ zero_extendqisi2	@ D.6556, pGpiodevice_2(D)->portPin.port
 456 01ea 03F18073 		add	r3, r3, #16777216	@ D.6557, D.6557,
 457 01ee 03F59C43 		add	r3, r3, #19968	@ D.6557, D.6557,
 458 01f2 5B01     		lsls	r3, r3, #5	@ D.6557, D.6557,
 459 01f4 1B68     		ldr	r3, [r3]	@ D.6559, *_12
 460 01f6 019A     		ldr	r2, [sp, #4]	@ tmp152, pGpiodevice
 461 01f8 5279     		ldrb	r2, [r2, #5]	@ zero_extendqisi2	@ D.6556, pGpiodevice_2(D)->portPin.pin
 462 01fa 1046     		mov	r0, r2	@ D.6557, D.6556
 463 01fc 0122     		movs	r2, #1	@ tmp153,
 464 01fe 8240     		lsls	r2, r2, r0	@ D.6557, tmp153, D.6557
 465 0200 1343     		orrs	r3, r3, r2	@, D.6559, D.6559, D.6559
 466 0202 0B60     		str	r3, [r1]	@ D.6559, *_7
 467 0204 17E0     		b	.L31	@
 468              	.L30:
 469              		.loc 1 117 0 discriminator 2
 470 0206 019B     		ldr	r3, [sp, #4]	@ tmp154, pGpiodevice
 471 0208 1B79     		ldrb	r3, [r3, #4]	@ zero_extendqisi2	@ D.6556, pGpiodevice_2(D)->portPin.port
 472 020a 03F18073 		add	r3, r3, #16777216	@ D.6557, D.6557,
 473 020e 03F59C43 		add	r3, r3, #19968	@ D.6557, D.6557,
 474 0212 5B01     		lsls	r3, r3, #5	@ D.6557, D.6557,
 475 0214 1946     		mov	r1, r3	@ D.6558, D.6557
 476 0216 019B     		ldr	r3, [sp, #4]	@ tmp155, pGpiodevice
 477 0218 1B79     		ldrb	r3, [r3, #4]	@ zero_extendqisi2	@ D.6556, pGpiodevice_2(D)->portPin.port
 478 021a 03F18073 		add	r3, r3, #16777216	@ D.6557, D.6557,
 479 021e 03F59C43 		add	r3, r3, #19968	@ D.6557, D.6557,
 480 0222 5B01     		lsls	r3, r3, #5	@ D.6557, D.6557,
 481 0224 1B68     		ldr	r3, [r3]	@ D.6559, *_29
 482 0226 019A     		ldr	r2, [sp, #4]	@ tmp156, pGpiodevice
 483 0228 5279     		ldrb	r2, [r2, #5]	@ zero_extendqisi2	@ D.6556, pGpiodevice_2(D)->portPin.pin
 484 022a 1046     		mov	r0, r2	@ D.6557, D.6556
 485 022c 0122     		movs	r2, #1	@ tmp157,
 486 022e 8240     		lsls	r2, r2, r0	@ D.6557, tmp157, D.6557
 487 0230 D243     		mvns	r2, r2	@ D.6557, D.6557
 488 0232 1340     		ands	r3, r3, r2	@, D.6559, D.6559, D.6559
 489 0234 0B60     		str	r3, [r1]	@ D.6559, *_24
 490              	.L31:
 118:../epcf/native/port/arm/cm3/nxp/lpc1768/source/gpio/gpio_lpc1768.c ****     return EPCF_STATUS_SUCCESS;
 491              		.loc 1 118 0 is_stmt 1
ARM GAS  /tmp/ccSMIOqx.s 			page 12


 492 0236 0023     		movs	r3, #0	@ D.6561,
 493 0238 5BB2     		sxtb	r3, r3	@ tmp159, D.6561
 119:../epcf/native/port/arm/cm3/nxp/lpc1768/source/gpio/gpio_lpc1768.c **** }
 494              		.loc 1 119 0
 495 023a 1846     		mov	r0, r3	@, <retval>
 496 023c 02B0     		add	sp, sp, #8	@,,
 497              	.LCFI10:
 498              		.cfi_def_cfa_offset 0
 499              		@ sp needed	@
 500 023e 7047     		bx	lr	@
 501              		.cfi_endproc
 502              	.LFE44:
 503              		.size	epcf_gpio_nativeSetDirection, .-epcf_gpio_nativeSetDirection
 504              		.align	2
 505              		.global	epcf_gpio_nativeGetDeviceCount
 506              		.thumb
 507              		.thumb_func
 508              		.type	epcf_gpio_nativeGetDeviceCount, %function
 509              	epcf_gpio_nativeGetDeviceCount:
 510              	.LFB45:
 120:../epcf/native/port/arm/cm3/nxp/lpc1768/source/gpio/gpio_lpc1768.c **** 
 121:../epcf/native/port/arm/cm3/nxp/lpc1768/source/gpio/gpio_lpc1768.c **** uint32_t epcf_gpio_nativeGetDeviceCount()
 122:../epcf/native/port/arm/cm3/nxp/lpc1768/source/gpio/gpio_lpc1768.c **** {
 511              		.loc 1 122 0
 512              		.cfi_startproc
 513              		@ args = 0, pretend = 0, frame = 0
 514              		@ frame_needed = 0, uses_anonymous_args = 0
 515              		@ link register save eliminated.
 123:../epcf/native/port/arm/cm3/nxp/lpc1768/source/gpio/gpio_lpc1768.c ****     return gpioDeviceCount;
 516              		.loc 1 123 0
 517 0240 014B     		ldr	r3, .L35	@ tmp113,
 518 0242 1B78     		ldrb	r3, [r3]	@ zero_extendqisi2	@ D.6562, gpioDeviceCount
 124:../epcf/native/port/arm/cm3/nxp/lpc1768/source/gpio/gpio_lpc1768.c **** }
 519              		.loc 1 124 0
 520 0244 1846     		mov	r0, r3	@, <retval>
 521 0246 7047     		bx	lr	@
 522              	.L36:
 523              		.align	2
 524              	.L35:
 525 0248 00000000 		.word	gpioDeviceCount
 526              		.cfi_endproc
 527              	.LFE45:
 528              		.size	epcf_gpio_nativeGetDeviceCount, .-epcf_gpio_nativeGetDeviceCount
 529              		.align	2
 530              		.global	epcf_gpio_nativeIntEnable
 531              		.thumb
 532              		.thumb_func
 533              		.type	epcf_gpio_nativeIntEnable, %function
 534              	epcf_gpio_nativeIntEnable:
 535              	.LFB46:
 125:../epcf/native/port/arm/cm3/nxp/lpc1768/source/gpio/gpio_lpc1768.c **** 
 126:../epcf/native/port/arm/cm3/nxp/lpc1768/source/gpio/gpio_lpc1768.c **** int8_t epcf_gpio_nativeIntEnable(EPCFGpioDevice_t* pGpioDevice)
 127:../epcf/native/port/arm/cm3/nxp/lpc1768/source/gpio/gpio_lpc1768.c **** {
 536              		.loc 1 127 0
 537              		.cfi_startproc
 538              		@ args = 0, pretend = 0, frame = 16
 539              		@ frame_needed = 0, uses_anonymous_args = 0
ARM GAS  /tmp/ccSMIOqx.s 			page 13


 540              		@ link register save eliminated.
 541 024c 84B0     		sub	sp, sp, #16	@,,
 542              	.LCFI11:
 543              		.cfi_def_cfa_offset 16
 544 024e 0190     		str	r0, [sp, #4]	@ pGpioDevice, pGpioDevice
 128:../epcf/native/port/arm/cm3/nxp/lpc1768/source/gpio/gpio_lpc1768.c ****     uint8_t index=0;
 545              		.loc 1 128 0
 546 0250 0023     		movs	r3, #0	@ tmp196,
 547 0252 8DF80F30 		strb	r3, [sp, #15]	@ tmp197, index
 129:../epcf/native/port/arm/cm3/nxp/lpc1768/source/gpio/gpio_lpc1768.c ****     if((pGpioDevice->portPin.port != EPCF_PORT_2 )&&(pGpioDevice->portPin.port != EPCF_PORT_0 ))
 548              		.loc 1 129 0
 549 0256 019B     		ldr	r3, [sp, #4]	@ tmp198, pGpioDevice
 550 0258 1B79     		ldrb	r3, [r3, #4]	@ zero_extendqisi2	@ D.6565, pGpioDevice_4(D)->portPin.port
 551 025a 022B     		cmp	r3, #2	@ D.6565,
 552 025c 05D0     		beq	.L38	@,
 553              		.loc 1 129 0 is_stmt 0 discriminator 1
 554 025e 019B     		ldr	r3, [sp, #4]	@ tmp199, pGpioDevice
 555 0260 1B79     		ldrb	r3, [r3, #4]	@ zero_extendqisi2	@ D.6565, pGpioDevice_4(D)->portPin.port
 556 0262 002B     		cmp	r3, #0	@ D.6565,
 557 0264 01D0     		beq	.L38	@,
 130:../epcf/native/port/arm/cm3/nxp/lpc1768/source/gpio/gpio_lpc1768.c ****         return EPCF_STATUS_NOT_SUPPORTED;
 558              		.loc 1 130 0 is_stmt 1
 559 0266 FD23     		movs	r3, #253	@ D.6564,
 560 0268 9DE0     		b	.L39	@
 561              	.L38:
 131:../epcf/native/port/arm/cm3/nxp/lpc1768/source/gpio/gpio_lpc1768.c **** 
 132:../epcf/native/port/arm/cm3/nxp/lpc1768/source/gpio/gpio_lpc1768.c ****     for(index=0;index<__EPCF_GPIO_INT_MAX;index++)
 562              		.loc 1 132 0
 563 026a 0023     		movs	r3, #0	@ tmp200,
 564 026c 8DF80F30 		strb	r3, [sp, #15]	@ tmp201, index
 565 0270 90E0     		b	.L40	@
 566              	.L50:
 133:../epcf/native/port/arm/cm3/nxp/lpc1768/source/gpio/gpio_lpc1768.c ****     {
 134:../epcf/native/port/arm/cm3/nxp/lpc1768/source/gpio/gpio_lpc1768.c ****         if(gpioIntList[index].portPin.pin == pGpioDevice->portPin.pin)
 567              		.loc 1 134 0
 568 0272 9DF80F20 		ldrb	r2, [sp, #15]	@ zero_extendqisi2	@ D.6566, index
 569 0276 4E49     		ldr	r1, .L52	@ tmp202,
 570 0278 1346     		mov	r3, r2	@ tmp203, D.6566
 571 027a 5B00     		lsls	r3, r3, #1	@ tmp203, tmp203,
 572 027c 1344     		add	r3, r3, r2	@ tmp203, D.6566
 573 027e 9B00     		lsls	r3, r3, #2	@ tmp204, tmp203,
 574 0280 0B44     		add	r3, r3, r1	@ tmp205, tmp202
 575 0282 5A78     		ldrb	r2, [r3, #1]	@ zero_extendqisi2	@ D.6565, gpioIntList[_9].portPin.pin
 576 0284 019B     		ldr	r3, [sp, #4]	@ tmp206, pGpioDevice
 577 0286 5B79     		ldrb	r3, [r3, #5]	@ zero_extendqisi2	@ D.6565, pGpioDevice_4(D)->portPin.pin
 578 0288 9A42     		cmp	r2, r3	@ D.6565, D.6565
 579 028a 7ED1     		bne	.L41	@,
 135:../epcf/native/port/arm/cm3/nxp/lpc1768/source/gpio/gpio_lpc1768.c ****         {
 136:../epcf/native/port/arm/cm3/nxp/lpc1768/source/gpio/gpio_lpc1768.c **** 
 137:../epcf/native/port/arm/cm3/nxp/lpc1768/source/gpio/gpio_lpc1768.c ****             switch (pGpioDevice->portPin.port)
 580              		.loc 1 137 0
 581 028c 019B     		ldr	r3, [sp, #4]	@ tmp207, pGpioDevice
 582 028e 1B79     		ldrb	r3, [r3, #4]	@ zero_extendqisi2	@ D.6565, pGpioDevice_4(D)->portPin.port
 583 0290 002B     		cmp	r3, #0	@ D.6566,
 584 0292 02D0     		beq	.L42	@,
 585 0294 022B     		cmp	r3, #2	@ D.6566,
 586 0296 3CD0     		beq	.L43	@,
ARM GAS  /tmp/ccSMIOqx.s 			page 14


 587 0298 77E0     		b	.L41	@
 588              	.L42:
 138:../epcf/native/port/arm/cm3/nxp/lpc1768/source/gpio/gpio_lpc1768.c ****             {
 139:../epcf/native/port/arm/cm3/nxp/lpc1768/source/gpio/gpio_lpc1768.c **** 
 140:../epcf/native/port/arm/cm3/nxp/lpc1768/source/gpio/gpio_lpc1768.c ****                 case EPCF_PORT_0:
 141:../epcf/native/port/arm/cm3/nxp/lpc1768/source/gpio/gpio_lpc1768.c ****                     if(gpioIntMode[index] == enEPCFGpioIntMode_FallingEdge )//falling edge
 589              		.loc 1 141 0
 590 029a 9DF80F30 		ldrb	r3, [sp, #15]	@ zero_extendqisi2	@ D.6566, index
 591 029e 454A     		ldr	r2, .L52+4	@ tmp208,
 592 02a0 D35C     		ldrb	r3, [r2, r3]	@ zero_extendqisi2	@ D.6565, gpioIntMode
 593 02a2 002B     		cmp	r3, #0	@ D.6565,
 594 02a4 09D1     		bne	.L44	@,
 142:../epcf/native/port/arm/cm3/nxp/lpc1768/source/gpio/gpio_lpc1768.c ****                     {
 143:../epcf/native/port/arm/cm3/nxp/lpc1768/source/gpio/gpio_lpc1768.c ****                         PERIPH_GPIOINT->IO0IntEnF |= 1 << pGpioDevice->portPin.pin;
 595              		.loc 1 143 0
 596 02a6 4449     		ldr	r1, .L52+8	@ D.6567,
 597 02a8 434B     		ldr	r3, .L52+8	@ D.6567,
 598 02aa 5B69     		ldr	r3, [r3, #20]	@ D.6568, _17->IO0IntEnF
 599 02ac 019A     		ldr	r2, [sp, #4]	@ tmp209, pGpioDevice
 600 02ae 5279     		ldrb	r2, [r2, #5]	@ zero_extendqisi2	@ D.6565, pGpioDevice_4(D)->portPin.pin
 601 02b0 1046     		mov	r0, r2	@ D.6566, D.6565
 602 02b2 0122     		movs	r2, #1	@ tmp210,
 603 02b4 8240     		lsls	r2, r2, r0	@ D.6566, tmp210, D.6566
 604 02b6 1343     		orrs	r3, r3, r2	@, D.6568, D.6568, D.6568
 605 02b8 4B61     		str	r3, [r1, #20]	@ D.6568, _16->IO0IntEnF
 606              	.L44:
 144:../epcf/native/port/arm/cm3/nxp/lpc1768/source/gpio/gpio_lpc1768.c ****                     }
 145:../epcf/native/port/arm/cm3/nxp/lpc1768/source/gpio/gpio_lpc1768.c ****                     if(gpioIntMode[index] == enEPCFGpioIntMode_RisingEdge) //rising edge
 607              		.loc 1 145 0
 608 02ba 9DF80F30 		ldrb	r3, [sp, #15]	@ zero_extendqisi2	@ D.6566, index
 609 02be 3D4A     		ldr	r2, .L52+4	@ tmp211,
 610 02c0 D35C     		ldrb	r3, [r2, r3]	@ zero_extendqisi2	@ D.6565, gpioIntMode
 611 02c2 012B     		cmp	r3, #1	@ D.6565,
 612 02c4 09D1     		bne	.L45	@,
 146:../epcf/native/port/arm/cm3/nxp/lpc1768/source/gpio/gpio_lpc1768.c ****                     {
 147:../epcf/native/port/arm/cm3/nxp/lpc1768/source/gpio/gpio_lpc1768.c ****                         PERIPH_GPIOINT->IO0IntEnR |= 1 << pGpioDevice->portPin.pin;
 613              		.loc 1 147 0
 614 02c6 3C49     		ldr	r1, .L52+8	@ D.6567,
 615 02c8 3B4B     		ldr	r3, .L52+8	@ D.6567,
 616 02ca 1B69     		ldr	r3, [r3, #16]	@ D.6568, _27->IO0IntEnR
 617 02cc 019A     		ldr	r2, [sp, #4]	@ tmp212, pGpioDevice
 618 02ce 5279     		ldrb	r2, [r2, #5]	@ zero_extendqisi2	@ D.6565, pGpioDevice_4(D)->portPin.pin
 619 02d0 1046     		mov	r0, r2	@ D.6566, D.6565
 620 02d2 0122     		movs	r2, #1	@ tmp213,
 621 02d4 8240     		lsls	r2, r2, r0	@ D.6566, tmp213, D.6566
 622 02d6 1343     		orrs	r3, r3, r2	@, D.6568, D.6568, D.6568
 623 02d8 0B61     		str	r3, [r1, #16]	@ D.6568, _26->IO0IntEnR
 624              	.L45:
 148:../epcf/native/port/arm/cm3/nxp/lpc1768/source/gpio/gpio_lpc1768.c ****                     }
 149:../epcf/native/port/arm/cm3/nxp/lpc1768/source/gpio/gpio_lpc1768.c ****                     if(gpioIntMode[index]==enEPCFGpioIntMode_BothEdge)
 625              		.loc 1 149 0
 626 02da 9DF80F30 		ldrb	r3, [sp, #15]	@ zero_extendqisi2	@ D.6566, index
 627 02de 354A     		ldr	r2, .L52+4	@ tmp214,
 628 02e0 D35C     		ldrb	r3, [r2, r3]	@ zero_extendqisi2	@ D.6565, gpioIntMode
 629 02e2 022B     		cmp	r3, #2	@ D.6565,
 630 02e4 14D1     		bne	.L46	@,
 150:../epcf/native/port/arm/cm3/nxp/lpc1768/source/gpio/gpio_lpc1768.c ****                     {
ARM GAS  /tmp/ccSMIOqx.s 			page 15


 151:../epcf/native/port/arm/cm3/nxp/lpc1768/source/gpio/gpio_lpc1768.c ****                         PERIPH_GPIOINT->IO0IntEnF |= 1 << pGpioDevice->portPin.pin;
 631              		.loc 1 151 0
 632 02e6 3449     		ldr	r1, .L52+8	@ D.6567,
 633 02e8 334B     		ldr	r3, .L52+8	@ D.6567,
 634 02ea 5B69     		ldr	r3, [r3, #20]	@ D.6568, _37->IO0IntEnF
 635 02ec 019A     		ldr	r2, [sp, #4]	@ tmp215, pGpioDevice
 636 02ee 5279     		ldrb	r2, [r2, #5]	@ zero_extendqisi2	@ D.6565, pGpioDevice_4(D)->portPin.pin
 637 02f0 1046     		mov	r0, r2	@ D.6566, D.6565
 638 02f2 0122     		movs	r2, #1	@ tmp216,
 639 02f4 8240     		lsls	r2, r2, r0	@ D.6566, tmp216, D.6566
 640 02f6 1343     		orrs	r3, r3, r2	@, D.6568, D.6568, D.6568
 641 02f8 4B61     		str	r3, [r1, #20]	@ D.6568, _36->IO0IntEnF
 152:../epcf/native/port/arm/cm3/nxp/lpc1768/source/gpio/gpio_lpc1768.c ****                         PERIPH_GPIOINT->IO0IntEnR |= 1 << pGpioDevice->portPin.pin;
 642              		.loc 1 152 0
 643 02fa 2F49     		ldr	r1, .L52+8	@ D.6567,
 644 02fc 2E4B     		ldr	r3, .L52+8	@ D.6567,
 645 02fe 1B69     		ldr	r3, [r3, #16]	@ D.6568, _45->IO0IntEnR
 646 0300 019A     		ldr	r2, [sp, #4]	@ tmp217, pGpioDevice
 647 0302 5279     		ldrb	r2, [r2, #5]	@ zero_extendqisi2	@ D.6565, pGpioDevice_4(D)->portPin.pin
 648 0304 1046     		mov	r0, r2	@ D.6566, D.6565
 649 0306 0122     		movs	r2, #1	@ tmp218,
 650 0308 8240     		lsls	r2, r2, r0	@ D.6566, tmp218, D.6566
 651 030a 1343     		orrs	r3, r3, r2	@, D.6568, D.6568, D.6568
 652 030c 0B61     		str	r3, [r1, #16]	@ D.6568, _44->IO0IntEnR
 153:../epcf/native/port/arm/cm3/nxp/lpc1768/source/gpio/gpio_lpc1768.c ****                     }
 154:../epcf/native/port/arm/cm3/nxp/lpc1768/source/gpio/gpio_lpc1768.c ****                     break;
 653              		.loc 1 154 0
 654 030e 3CE0     		b	.L41	@
 655              	.L46:
 656 0310 3BE0     		b	.L41	@
 657              	.L43:
 155:../epcf/native/port/arm/cm3/nxp/lpc1768/source/gpio/gpio_lpc1768.c ****                 case EPCF_PORT_2:
 156:../epcf/native/port/arm/cm3/nxp/lpc1768/source/gpio/gpio_lpc1768.c ****                     if(gpioIntMode[index] == enEPCFGpioIntMode_FallingEdge )//falling edge
 658              		.loc 1 156 0
 659 0312 9DF80F30 		ldrb	r3, [sp, #15]	@ zero_extendqisi2	@ D.6566, index
 660 0316 274A     		ldr	r2, .L52+4	@ tmp219,
 661 0318 D35C     		ldrb	r3, [r2, r3]	@ zero_extendqisi2	@ D.6565, gpioIntMode
 662 031a 002B     		cmp	r3, #0	@ D.6565,
 663 031c 09D1     		bne	.L47	@,
 157:../epcf/native/port/arm/cm3/nxp/lpc1768/source/gpio/gpio_lpc1768.c ****                     {
 158:../epcf/native/port/arm/cm3/nxp/lpc1768/source/gpio/gpio_lpc1768.c ****                         PERIPH_GPIOINT->IO2IntEnF |= 1 << pGpioDevice->portPin.pin;
 664              		.loc 1 158 0
 665 031e 2649     		ldr	r1, .L52+8	@ D.6567,
 666 0320 254B     		ldr	r3, .L52+8	@ D.6567,
 667 0322 5B6B     		ldr	r3, [r3, #52]	@ D.6568, _55->IO2IntEnF
 668 0324 019A     		ldr	r2, [sp, #4]	@ tmp220, pGpioDevice
 669 0326 5279     		ldrb	r2, [r2, #5]	@ zero_extendqisi2	@ D.6565, pGpioDevice_4(D)->portPin.pin
 670 0328 1046     		mov	r0, r2	@ D.6566, D.6565
 671 032a 0122     		movs	r2, #1	@ tmp221,
 672 032c 8240     		lsls	r2, r2, r0	@ D.6566, tmp221, D.6566
 673 032e 1343     		orrs	r3, r3, r2	@, D.6568, D.6568, D.6568
 674 0330 4B63     		str	r3, [r1, #52]	@ D.6568, _54->IO2IntEnF
 675              	.L47:
 159:../epcf/native/port/arm/cm3/nxp/lpc1768/source/gpio/gpio_lpc1768.c ****                     }
 160:../epcf/native/port/arm/cm3/nxp/lpc1768/source/gpio/gpio_lpc1768.c ****                     if(gpioIntMode[index] == enEPCFGpioIntMode_RisingEdge) //rising edge
 676              		.loc 1 160 0
 677 0332 9DF80F30 		ldrb	r3, [sp, #15]	@ zero_extendqisi2	@ D.6566, index
ARM GAS  /tmp/ccSMIOqx.s 			page 16


 678 0336 1F4A     		ldr	r2, .L52+4	@ tmp222,
 679 0338 D35C     		ldrb	r3, [r2, r3]	@ zero_extendqisi2	@ D.6565, gpioIntMode
 680 033a 012B     		cmp	r3, #1	@ D.6565,
 681 033c 09D1     		bne	.L48	@,
 161:../epcf/native/port/arm/cm3/nxp/lpc1768/source/gpio/gpio_lpc1768.c ****                     {
 162:../epcf/native/port/arm/cm3/nxp/lpc1768/source/gpio/gpio_lpc1768.c ****                         PERIPH_GPIOINT->IO2IntEnR |= 1 << pGpioDevice->portPin.pin;
 682              		.loc 1 162 0
 683 033e 1E49     		ldr	r1, .L52+8	@ D.6567,
 684 0340 1D4B     		ldr	r3, .L52+8	@ D.6567,
 685 0342 1B6B     		ldr	r3, [r3, #48]	@ D.6568, _65->IO2IntEnR
 686 0344 019A     		ldr	r2, [sp, #4]	@ tmp223, pGpioDevice
 687 0346 5279     		ldrb	r2, [r2, #5]	@ zero_extendqisi2	@ D.6565, pGpioDevice_4(D)->portPin.pin
 688 0348 1046     		mov	r0, r2	@ D.6566, D.6565
 689 034a 0122     		movs	r2, #1	@ tmp224,
 690 034c 8240     		lsls	r2, r2, r0	@ D.6566, tmp224, D.6566
 691 034e 1343     		orrs	r3, r3, r2	@, D.6568, D.6568, D.6568
 692 0350 0B63     		str	r3, [r1, #48]	@ D.6568, _64->IO2IntEnR
 693              	.L48:
 163:../epcf/native/port/arm/cm3/nxp/lpc1768/source/gpio/gpio_lpc1768.c ****                     }
 164:../epcf/native/port/arm/cm3/nxp/lpc1768/source/gpio/gpio_lpc1768.c ****                     if(gpioIntMode[index] ==enEPCFGpioIntMode_BothEdge)
 694              		.loc 1 164 0
 695 0352 9DF80F30 		ldrb	r3, [sp, #15]	@ zero_extendqisi2	@ D.6566, index
 696 0356 174A     		ldr	r2, .L52+4	@ tmp225,
 697 0358 D35C     		ldrb	r3, [r2, r3]	@ zero_extendqisi2	@ D.6565, gpioIntMode
 698 035a 022B     		cmp	r3, #2	@ D.6565,
 699 035c 14D1     		bne	.L49	@,
 165:../epcf/native/port/arm/cm3/nxp/lpc1768/source/gpio/gpio_lpc1768.c ****                     {
 166:../epcf/native/port/arm/cm3/nxp/lpc1768/source/gpio/gpio_lpc1768.c ****                         PERIPH_GPIOINT->IO2IntEnF |= 1 << pGpioDevice->portPin.pin;
 700              		.loc 1 166 0
 701 035e 1649     		ldr	r1, .L52+8	@ D.6567,
 702 0360 154B     		ldr	r3, .L52+8	@ D.6567,
 703 0362 5B6B     		ldr	r3, [r3, #52]	@ D.6568, _75->IO2IntEnF
 704 0364 019A     		ldr	r2, [sp, #4]	@ tmp226, pGpioDevice
 705 0366 5279     		ldrb	r2, [r2, #5]	@ zero_extendqisi2	@ D.6565, pGpioDevice_4(D)->portPin.pin
 706 0368 1046     		mov	r0, r2	@ D.6566, D.6565
 707 036a 0122     		movs	r2, #1	@ tmp227,
 708 036c 8240     		lsls	r2, r2, r0	@ D.6566, tmp227, D.6566
 709 036e 1343     		orrs	r3, r3, r2	@, D.6568, D.6568, D.6568
 710 0370 4B63     		str	r3, [r1, #52]	@ D.6568, _74->IO2IntEnF
 167:../epcf/native/port/arm/cm3/nxp/lpc1768/source/gpio/gpio_lpc1768.c ****                         PERIPH_GPIOINT->IO2IntEnR |= 1 << pGpioDevice->portPin.pin;
 711              		.loc 1 167 0
 712 0372 1149     		ldr	r1, .L52+8	@ D.6567,
 713 0374 104B     		ldr	r3, .L52+8	@ D.6567,
 714 0376 1B6B     		ldr	r3, [r3, #48]	@ D.6568, _83->IO2IntEnR
 715 0378 019A     		ldr	r2, [sp, #4]	@ tmp228, pGpioDevice
 716 037a 5279     		ldrb	r2, [r2, #5]	@ zero_extendqisi2	@ D.6565, pGpioDevice_4(D)->portPin.pin
 717 037c 1046     		mov	r0, r2	@ D.6566, D.6565
 718 037e 0122     		movs	r2, #1	@ tmp229,
 719 0380 8240     		lsls	r2, r2, r0	@ D.6566, tmp229, D.6566
 720 0382 1343     		orrs	r3, r3, r2	@, D.6568, D.6568, D.6568
 721 0384 0B63     		str	r3, [r1, #48]	@ D.6568, _82->IO2IntEnR
 168:../epcf/native/port/arm/cm3/nxp/lpc1768/source/gpio/gpio_lpc1768.c ****                     }
 169:../epcf/native/port/arm/cm3/nxp/lpc1768/source/gpio/gpio_lpc1768.c ****                     break;
 722              		.loc 1 169 0
 723 0386 FFE7     		b	.L51	@
 724              	.L49:
 725              	.L51:
ARM GAS  /tmp/ccSMIOqx.s 			page 17


 726 0388 00BF     		nop
 727              	.L41:
 132:../epcf/native/port/arm/cm3/nxp/lpc1768/source/gpio/gpio_lpc1768.c ****     {
 728              		.loc 1 132 0 discriminator 2
 729 038a 9DF80F30 		ldrb	r3, [sp, #15]	@ zero_extendqisi2	@ D.6565, index
 730 038e 0133     		adds	r3, r3, #1	@ tmp230, D.6565,
 731 0390 8DF80F30 		strb	r3, [sp, #15]	@ tmp231, index
 732              	.L40:
 132:../epcf/native/port/arm/cm3/nxp/lpc1768/source/gpio/gpio_lpc1768.c ****     {
 733              		.loc 1 132 0 is_stmt 0 discriminator 1
 734 0394 9DF80F30 		ldrb	r3, [sp, #15]	@ zero_extendqisi2	@ tmp232, index
 735 0398 292B     		cmp	r3, #41	@ tmp232,
 736 039a 7FF66AAF 		bls	.L50	@,
 170:../epcf/native/port/arm/cm3/nxp/lpc1768/source/gpio/gpio_lpc1768.c **** 
 171:../epcf/native/port/arm/cm3/nxp/lpc1768/source/gpio/gpio_lpc1768.c ****             }
 172:../epcf/native/port/arm/cm3/nxp/lpc1768/source/gpio/gpio_lpc1768.c ****         }
 173:../epcf/native/port/arm/cm3/nxp/lpc1768/source/gpio/gpio_lpc1768.c ****     }
 174:../epcf/native/port/arm/cm3/nxp/lpc1768/source/gpio/gpio_lpc1768.c ****    // NVIC_EnableIRQ(IRQ_NUM(EINT3));
 175:../epcf/native/port/arm/cm3/nxp/lpc1768/source/gpio/gpio_lpc1768.c ****     gpioIntEnable = enEPCFBoolean_True;
 737              		.loc 1 175 0 is_stmt 1
 738 039e 074B     		ldr	r3, .L52+12	@ tmp233,
 739 03a0 0122     		movs	r2, #1	@ tmp234,
 740 03a2 1A70     		strb	r2, [r3]	@ tmp235, gpioIntEnable
 176:../epcf/native/port/arm/cm3/nxp/lpc1768/source/gpio/gpio_lpc1768.c **** 
 177:../epcf/native/port/arm/cm3/nxp/lpc1768/source/gpio/gpio_lpc1768.c ****     return EPCF_STATUS_SUCCESS;
 741              		.loc 1 177 0
 742 03a4 0023     		movs	r3, #0	@ D.6564,
 743              	.L39:
 744 03a6 5BB2     		sxtb	r3, r3	@ tmp237, D.6564
 178:../epcf/native/port/arm/cm3/nxp/lpc1768/source/gpio/gpio_lpc1768.c **** }
 745              		.loc 1 178 0
 746 03a8 1846     		mov	r0, r3	@, <retval>
 747 03aa 04B0     		add	sp, sp, #16	@,,
 748              	.LCFI12:
 749              		.cfi_def_cfa_offset 0
 750              		@ sp needed	@
 751 03ac 7047     		bx	lr	@
 752              	.L53:
 753 03ae 00BF     		.align	2
 754              	.L52:
 755 03b0 D8000000 		.word	gpioIntList
 756 03b4 00000000 		.word	gpioIntMode
 757 03b8 80800240 		.word	1073905792
 758 03bc 2A000000 		.word	gpioIntEnable
 759              		.cfi_endproc
 760              	.LFE46:
 761              		.size	epcf_gpio_nativeIntEnable, .-epcf_gpio_nativeIntEnable
 762              		.align	2
 763              		.global	epcf_gpio_nativeIntDisable
 764              		.thumb
 765              		.thumb_func
 766              		.type	epcf_gpio_nativeIntDisable, %function
 767              	epcf_gpio_nativeIntDisable:
 768              	.LFB47:
 179:../epcf/native/port/arm/cm3/nxp/lpc1768/source/gpio/gpio_lpc1768.c **** 
 180:../epcf/native/port/arm/cm3/nxp/lpc1768/source/gpio/gpio_lpc1768.c **** int8_t epcf_gpio_nativeIntDisable(EPCFGpioDevice_t* pGpioDevice)
 181:../epcf/native/port/arm/cm3/nxp/lpc1768/source/gpio/gpio_lpc1768.c **** {
ARM GAS  /tmp/ccSMIOqx.s 			page 18


 769              		.loc 1 181 0
 770              		.cfi_startproc
 771              		@ args = 0, pretend = 0, frame = 8
 772              		@ frame_needed = 0, uses_anonymous_args = 0
 773              		@ link register save eliminated.
 774 03c0 82B0     		sub	sp, sp, #8	@,,
 775              	.LCFI13:
 776              		.cfi_def_cfa_offset 8
 777 03c2 0190     		str	r0, [sp, #4]	@ pGpioDevice, pGpioDevice
 182:../epcf/native/port/arm/cm3/nxp/lpc1768/source/gpio/gpio_lpc1768.c ****     //NVIC_DisableIRQ(IRQ_NUM(EINT3));
 183:../epcf/native/port/arm/cm3/nxp/lpc1768/source/gpio/gpio_lpc1768.c ****     gpioIntEnable = enEPCFBoolean_False;
 778              		.loc 1 183 0
 779 03c4 034B     		ldr	r3, .L56	@ tmp112,
 780 03c6 0022     		movs	r2, #0	@ tmp113,
 781 03c8 1A70     		strb	r2, [r3]	@ tmp114, gpioIntEnable
 184:../epcf/native/port/arm/cm3/nxp/lpc1768/source/gpio/gpio_lpc1768.c **** 
 185:../epcf/native/port/arm/cm3/nxp/lpc1768/source/gpio/gpio_lpc1768.c ****     return EPCF_STATUS_SUCCESS;
 782              		.loc 1 185 0
 783 03ca 0023     		movs	r3, #0	@ D.6569,
 784 03cc 5BB2     		sxtb	r3, r3	@ tmp116, D.6569
 186:../epcf/native/port/arm/cm3/nxp/lpc1768/source/gpio/gpio_lpc1768.c **** }
 785              		.loc 1 186 0
 786 03ce 1846     		mov	r0, r3	@, <retval>
 787 03d0 02B0     		add	sp, sp, #8	@,,
 788              	.LCFI14:
 789              		.cfi_def_cfa_offset 0
 790              		@ sp needed	@
 791 03d2 7047     		bx	lr	@
 792              	.L57:
 793              		.align	2
 794              	.L56:
 795 03d4 2A000000 		.word	gpioIntEnable
 796              		.cfi_endproc
 797              	.LFE47:
 798              		.size	epcf_gpio_nativeIntDisable, .-epcf_gpio_nativeIntDisable
 799              		.align	2
 800              		.global	epcf_gpio_nativeIntAttachCallback
 801              		.thumb
 802              		.thumb_func
 803              		.type	epcf_gpio_nativeIntAttachCallback, %function
 804              	epcf_gpio_nativeIntAttachCallback:
 805              	.LFB48:
 187:../epcf/native/port/arm/cm3/nxp/lpc1768/source/gpio/gpio_lpc1768.c **** 
 188:../epcf/native/port/arm/cm3/nxp/lpc1768/source/gpio/gpio_lpc1768.c **** int8_t epcf_gpio_nativeIntAttachCallback(EPCFGpioDevice_t* pGpioDevice,epcfCallback_fp pCallback)
 189:../epcf/native/port/arm/cm3/nxp/lpc1768/source/gpio/gpio_lpc1768.c **** {
 806              		.loc 1 189 0
 807              		.cfi_startproc
 808              		@ args = 0, pretend = 0, frame = 16
 809              		@ frame_needed = 0, uses_anonymous_args = 0
 810              		@ link register save eliminated.
 811 03d8 84B0     		sub	sp, sp, #16	@,,
 812              	.LCFI15:
 813              		.cfi_def_cfa_offset 16
 814 03da 0190     		str	r0, [sp, #4]	@ pGpioDevice, pGpioDevice
 815 03dc 0091     		str	r1, [sp]	@ pCallback, pCallback
 190:../epcf/native/port/arm/cm3/nxp/lpc1768/source/gpio/gpio_lpc1768.c **** uint8_t index=0;
 816              		.loc 1 190 0
ARM GAS  /tmp/ccSMIOqx.s 			page 19


 817 03de 0023     		movs	r3, #0	@ tmp117,
 818 03e0 8DF80F30 		strb	r3, [sp, #15]	@ tmp118, index
 191:../epcf/native/port/arm/cm3/nxp/lpc1768/source/gpio/gpio_lpc1768.c **** #if (PCF_ENABLE_DEBUG == PCF_ENABLE)
 192:../epcf/native/port/arm/cm3/nxp/lpc1768/source/gpio/gpio_lpc1768.c ****   CHECK_NULL_PTR(pCallback);
 193:../epcf/native/port/arm/cm3/nxp/lpc1768/source/gpio/gpio_lpc1768.c **** 
 194:../epcf/native/port/arm/cm3/nxp/lpc1768/source/gpio/gpio_lpc1768.c **** #endif  // #if (PCF_ENABLE_DEBUG == PCF_ENABLE)
 195:../epcf/native/port/arm/cm3/nxp/lpc1768/source/gpio/gpio_lpc1768.c **** 
 196:../epcf/native/port/arm/cm3/nxp/lpc1768/source/gpio/gpio_lpc1768.c ****     for (index = 0; index < __EPCF_GPIO_INT_MAX; index++)
 819              		.loc 1 196 0
 820 03e4 0023     		movs	r3, #0	@ tmp119,
 821 03e6 8DF80F30 		strb	r3, [sp, #15]	@ tmp120, index
 822 03ea 18E0     		b	.L59	@
 823              	.L62:
 197:../epcf/native/port/arm/cm3/nxp/lpc1768/source/gpio/gpio_lpc1768.c ****     {
 198:../epcf/native/port/arm/cm3/nxp/lpc1768/source/gpio/gpio_lpc1768.c ****         if(gpioIntList[index].portPin.pin == pGpioDevice->portPin.pin)
 824              		.loc 1 198 0
 825 03ec 9DF80F20 		ldrb	r2, [sp, #15]	@ zero_extendqisi2	@ D.6570, index
 826 03f0 1149     		ldr	r1, .L64	@ tmp121,
 827 03f2 1346     		mov	r3, r2	@ tmp122, D.6570
 828 03f4 5B00     		lsls	r3, r3, #1	@ tmp122, tmp122,
 829 03f6 1344     		add	r3, r3, r2	@ tmp122, D.6570
 830 03f8 9B00     		lsls	r3, r3, #2	@ tmp123, tmp122,
 831 03fa 0B44     		add	r3, r3, r1	@ tmp124, tmp121
 832 03fc 5A78     		ldrb	r2, [r3, #1]	@ zero_extendqisi2	@ D.6571, gpioIntList[_4].portPin.pin
 833 03fe 019B     		ldr	r3, [sp, #4]	@ tmp125, pGpioDevice
 834 0400 5B79     		ldrb	r3, [r3, #5]	@ zero_extendqisi2	@ D.6571, pGpioDevice_6(D)->portPin.pin
 835 0402 9A42     		cmp	r2, r3	@ D.6571, D.6571
 836 0404 06D1     		bne	.L60	@,
 199:../epcf/native/port/arm/cm3/nxp/lpc1768/source/gpio/gpio_lpc1768.c ****         {
 200:../epcf/native/port/arm/cm3/nxp/lpc1768/source/gpio/gpio_lpc1768.c ****             gpioIntCallbackList[index]=pCallback;
 837              		.loc 1 200 0
 838 0406 9DF80F30 		ldrb	r3, [sp, #15]	@ zero_extendqisi2	@ D.6570, index
 839 040a 0C49     		ldr	r1, .L64+4	@ tmp126,
 840 040c 009A     		ldr	r2, [sp]	@ tmp127, pCallback
 841 040e 41F82320 		str	r2, [r1, r3, lsl #2]	@ tmp127, gpioIntCallbackList
 201:../epcf/native/port/arm/cm3/nxp/lpc1768/source/gpio/gpio_lpc1768.c ****             break;
 842              		.loc 1 201 0
 843 0412 08E0     		b	.L61	@
 844              	.L60:
 196:../epcf/native/port/arm/cm3/nxp/lpc1768/source/gpio/gpio_lpc1768.c ****     {
 845              		.loc 1 196 0 discriminator 2
 846 0414 9DF80F30 		ldrb	r3, [sp, #15]	@ zero_extendqisi2	@ D.6571, index
 847 0418 0133     		adds	r3, r3, #1	@ tmp128, D.6571,
 848 041a 8DF80F30 		strb	r3, [sp, #15]	@ tmp129, index
 849              	.L59:
 196:../epcf/native/port/arm/cm3/nxp/lpc1768/source/gpio/gpio_lpc1768.c ****     {
 850              		.loc 1 196 0 is_stmt 0 discriminator 1
 851 041e 9DF80F30 		ldrb	r3, [sp, #15]	@ zero_extendqisi2	@ tmp130, index
 852 0422 292B     		cmp	r3, #41	@ tmp130,
 853 0424 E2D9     		bls	.L62	@,
 854              	.L61:
 202:../epcf/native/port/arm/cm3/nxp/lpc1768/source/gpio/gpio_lpc1768.c ****         }
 203:../epcf/native/port/arm/cm3/nxp/lpc1768/source/gpio/gpio_lpc1768.c ****     }
 204:../epcf/native/port/arm/cm3/nxp/lpc1768/source/gpio/gpio_lpc1768.c **** 
 205:../epcf/native/port/arm/cm3/nxp/lpc1768/source/gpio/gpio_lpc1768.c ****     gpioIntCallbackAttached=enEPCFBoolean_True;
 855              		.loc 1 205 0 is_stmt 1
 856 0426 064B     		ldr	r3, .L64+8	@ tmp131,
ARM GAS  /tmp/ccSMIOqx.s 			page 20


 857 0428 0122     		movs	r2, #1	@ tmp132,
 858 042a 1A70     		strb	r2, [r3]	@ tmp133, gpioIntCallbackAttached
 206:../epcf/native/port/arm/cm3/nxp/lpc1768/source/gpio/gpio_lpc1768.c **** 
 207:../epcf/native/port/arm/cm3/nxp/lpc1768/source/gpio/gpio_lpc1768.c ****     return EPCF_STATUS_SUCCESS;
 859              		.loc 1 207 0
 860 042c 0023     		movs	r3, #0	@ D.6572,
 861 042e 5BB2     		sxtb	r3, r3	@ tmp135, D.6572
 208:../epcf/native/port/arm/cm3/nxp/lpc1768/source/gpio/gpio_lpc1768.c **** 
 209:../epcf/native/port/arm/cm3/nxp/lpc1768/source/gpio/gpio_lpc1768.c **** }
 862              		.loc 1 209 0
 863 0430 1846     		mov	r0, r3	@, <retval>
 864 0432 04B0     		add	sp, sp, #16	@,,
 865              	.LCFI16:
 866              		.cfi_def_cfa_offset 0
 867              		@ sp needed	@
 868 0434 7047     		bx	lr	@
 869              	.L65:
 870 0436 00BF     		.align	2
 871              	.L64:
 872 0438 D8000000 		.word	gpioIntList
 873 043c 2C000000 		.word	gpioIntCallbackList
 874 0440 D4000000 		.word	gpioIntCallbackAttached
 875              		.cfi_endproc
 876              	.LFE48:
 877              		.size	epcf_gpio_nativeIntAttachCallback, .-epcf_gpio_nativeIntAttachCallback
 878              		.align	2
 879              		.global	epcf_gpio_nativeIntDetachCallback
 880              		.thumb
 881              		.thumb_func
 882              		.type	epcf_gpio_nativeIntDetachCallback, %function
 883              	epcf_gpio_nativeIntDetachCallback:
 884              	.LFB49:
 210:../epcf/native/port/arm/cm3/nxp/lpc1768/source/gpio/gpio_lpc1768.c **** 
 211:../epcf/native/port/arm/cm3/nxp/lpc1768/source/gpio/gpio_lpc1768.c **** int8_t epcf_gpio_nativeIntDetachCallback(EPCFGpioDevice_t* pGpioDevice)
 212:../epcf/native/port/arm/cm3/nxp/lpc1768/source/gpio/gpio_lpc1768.c **** {
 885              		.loc 1 212 0
 886              		.cfi_startproc
 887              		@ args = 0, pretend = 0, frame = 16
 888              		@ frame_needed = 0, uses_anonymous_args = 0
 889              		@ link register save eliminated.
 890 0444 84B0     		sub	sp, sp, #16	@,,
 891              	.LCFI17:
 892              		.cfi_def_cfa_offset 16
 893 0446 0190     		str	r0, [sp, #4]	@ pGpioDevice, pGpioDevice
 213:../epcf/native/port/arm/cm3/nxp/lpc1768/source/gpio/gpio_lpc1768.c **** 
 214:../epcf/native/port/arm/cm3/nxp/lpc1768/source/gpio/gpio_lpc1768.c ****     uint8_t index=0;
 894              		.loc 1 214 0
 895 0448 0023     		movs	r3, #0	@ tmp118,
 896 044a 8DF80F30 		strb	r3, [sp, #15]	@ tmp119, index
 215:../epcf/native/port/arm/cm3/nxp/lpc1768/source/gpio/gpio_lpc1768.c ****     if(gpioIntCallbackAttached==1)
 897              		.loc 1 215 0
 898 044e 174B     		ldr	r3, .L73	@ tmp120,
 899 0450 1B78     		ldrb	r3, [r3]	@ zero_extendqisi2	@ D.6574, gpioIntCallbackAttached
 900 0452 012B     		cmp	r3, #1	@ D.6574,
 901 0454 01D1     		bne	.L67	@,
 216:../epcf/native/port/arm/cm3/nxp/lpc1768/source/gpio/gpio_lpc1768.c ****         return EPCF_STATUS_ERROR;
 902              		.loc 1 216 0
ARM GAS  /tmp/ccSMIOqx.s 			page 21


 903 0456 FF23     		movs	r3, #255	@ D.6573,
 904 0458 24E0     		b	.L68	@
 905              	.L67:
 217:../epcf/native/port/arm/cm3/nxp/lpc1768/source/gpio/gpio_lpc1768.c **** 
 218:../epcf/native/port/arm/cm3/nxp/lpc1768/source/gpio/gpio_lpc1768.c ****     for (index = 0; index < __EPCF_GPIO_INT_MAX; index++)
 906              		.loc 1 218 0
 907 045a 0023     		movs	r3, #0	@ tmp121,
 908 045c 8DF80F30 		strb	r3, [sp, #15]	@ tmp122, index
 909 0460 18E0     		b	.L69	@
 910              	.L72:
 219:../epcf/native/port/arm/cm3/nxp/lpc1768/source/gpio/gpio_lpc1768.c ****     {
 220:../epcf/native/port/arm/cm3/nxp/lpc1768/source/gpio/gpio_lpc1768.c ****         if(gpioIntList[index].portPin.pin == pGpioDevice->portPin.pin)
 911              		.loc 1 220 0
 912 0462 9DF80F20 		ldrb	r2, [sp, #15]	@ zero_extendqisi2	@ D.6575, index
 913 0466 1249     		ldr	r1, .L73+4	@ tmp123,
 914 0468 1346     		mov	r3, r2	@ tmp124, D.6575
 915 046a 5B00     		lsls	r3, r3, #1	@ tmp124, tmp124,
 916 046c 1344     		add	r3, r3, r2	@ tmp124, D.6575
 917 046e 9B00     		lsls	r3, r3, #2	@ tmp125, tmp124,
 918 0470 0B44     		add	r3, r3, r1	@ tmp126, tmp123
 919 0472 5A78     		ldrb	r2, [r3, #1]	@ zero_extendqisi2	@ D.6576, gpioIntList[_7].portPin.pin
 920 0474 019B     		ldr	r3, [sp, #4]	@ tmp127, pGpioDevice
 921 0476 5B79     		ldrb	r3, [r3, #5]	@ zero_extendqisi2	@ D.6576, pGpioDevice_9(D)->portPin.pin
 922 0478 9A42     		cmp	r2, r3	@ D.6576, D.6576
 923 047a 06D1     		bne	.L70	@,
 221:../epcf/native/port/arm/cm3/nxp/lpc1768/source/gpio/gpio_lpc1768.c ****         {
 222:../epcf/native/port/arm/cm3/nxp/lpc1768/source/gpio/gpio_lpc1768.c ****             gpioIntCallbackList[index]=0;
 924              		.loc 1 222 0
 925 047c 9DF80F30 		ldrb	r3, [sp, #15]	@ zero_extendqisi2	@ D.6575, index
 926 0480 0C4A     		ldr	r2, .L73+8	@ tmp128,
 927 0482 0021     		movs	r1, #0	@ tmp129,
 928 0484 42F82310 		str	r1, [r2, r3, lsl #2]	@ tmp129, gpioIntCallbackList
 223:../epcf/native/port/arm/cm3/nxp/lpc1768/source/gpio/gpio_lpc1768.c ****             break;
 929              		.loc 1 223 0
 930 0488 08E0     		b	.L71	@
 931              	.L70:
 218:../epcf/native/port/arm/cm3/nxp/lpc1768/source/gpio/gpio_lpc1768.c ****     {
 932              		.loc 1 218 0 discriminator 2
 933 048a 9DF80F30 		ldrb	r3, [sp, #15]	@ zero_extendqisi2	@ D.6576, index
 934 048e 0133     		adds	r3, r3, #1	@ tmp130, D.6576,
 935 0490 8DF80F30 		strb	r3, [sp, #15]	@ tmp131, index
 936              	.L69:
 218:../epcf/native/port/arm/cm3/nxp/lpc1768/source/gpio/gpio_lpc1768.c ****     {
 937              		.loc 1 218 0 is_stmt 0 discriminator 1
 938 0494 9DF80F30 		ldrb	r3, [sp, #15]	@ zero_extendqisi2	@ tmp132, index
 939 0498 292B     		cmp	r3, #41	@ tmp132,
 940 049a E2D9     		bls	.L72	@,
 941              	.L71:
 224:../epcf/native/port/arm/cm3/nxp/lpc1768/source/gpio/gpio_lpc1768.c ****         }
 225:../epcf/native/port/arm/cm3/nxp/lpc1768/source/gpio/gpio_lpc1768.c ****     }
 226:../epcf/native/port/arm/cm3/nxp/lpc1768/source/gpio/gpio_lpc1768.c **** 
 227:../epcf/native/port/arm/cm3/nxp/lpc1768/source/gpio/gpio_lpc1768.c ****     gpioIntCallbackAttached=enEPCFBoolean_False;
 942              		.loc 1 227 0 is_stmt 1
 943 049c 034B     		ldr	r3, .L73	@ tmp133,
 944 049e 0022     		movs	r2, #0	@ tmp134,
 945 04a0 1A70     		strb	r2, [r3]	@ tmp135, gpioIntCallbackAttached
 228:../epcf/native/port/arm/cm3/nxp/lpc1768/source/gpio/gpio_lpc1768.c **** 
ARM GAS  /tmp/ccSMIOqx.s 			page 22


 229:../epcf/native/port/arm/cm3/nxp/lpc1768/source/gpio/gpio_lpc1768.c ****     return EPCF_STATUS_SUCCESS;
 946              		.loc 1 229 0
 947 04a2 0023     		movs	r3, #0	@ D.6573,
 948              	.L68:
 949 04a4 5BB2     		sxtb	r3, r3	@ tmp137, D.6573
 230:../epcf/native/port/arm/cm3/nxp/lpc1768/source/gpio/gpio_lpc1768.c **** 
 231:../epcf/native/port/arm/cm3/nxp/lpc1768/source/gpio/gpio_lpc1768.c **** }
 950              		.loc 1 231 0
 951 04a6 1846     		mov	r0, r3	@, <retval>
 952 04a8 04B0     		add	sp, sp, #16	@,,
 953              	.LCFI18:
 954              		.cfi_def_cfa_offset 0
 955              		@ sp needed	@
 956 04aa 7047     		bx	lr	@
 957              	.L74:
 958              		.align	2
 959              	.L73:
 960 04ac D4000000 		.word	gpioIntCallbackAttached
 961 04b0 D8000000 		.word	gpioIntList
 962 04b4 2C000000 		.word	gpioIntCallbackList
 963              		.cfi_endproc
 964              	.LFE49:
 965              		.size	epcf_gpio_nativeIntDetachCallback, .-epcf_gpio_nativeIntDetachCallback
 966              	.Letext0:
 967              		.file 2 "/usr/include/newlib/machine/_default_types.h"
 968              		.file 3 "/usr/include/newlib/sys/_stdint.h"
 969              		.file 4 "../pcf/include/private/arch/arm/cm3/nxp/lpc1768/./lpc1768_regmap.h"
 970              		.file 5 "../pcf/include/../../epcf/./common/types.h"
 971              		.file 6 "../pcf/include/../../epcf/./common/portpin.h"
 972              		.file 7 "./include/../../epcf/peripheral/include/./gpio/gpio.h"
 973              		.file 8 "./include/../../epcf/peripheral/source/gpio/gpio_hidden.h"
 974              		.file 9 "./include/../../epcf/native/port/arm/cm3/nxp/lpc1768/include/pin_lpc1768.h"
 975              		.file 10 "../pcf/include/private/arch/arm/cm3/nxp/lpc1768/./../../../../arm/cm3/nxp/lpc1768/lpc176