ARM GAS  /tmp/ccWbcxNG.s 			page 1


   1              		.syntax unified
   2              		.cpu cortex-m3
   3              		.fpu softvfp
   4              		.eabi_attribute 20, 1	@ Tag_ABI_FP_denormal
   5              		.eabi_attribute 21, 1	@ Tag_ABI_FP_exceptions
   6              		.eabi_attribute 23, 3	@ Tag_ABI_FP_number_model
   7              		.eabi_attribute 24, 1	@ Tag_ABI_align8_needed
   8              		.eabi_attribute 25, 1	@ Tag_ABI_align8_preserved
   9              		.eabi_attribute 26, 1	@ Tag_ABI_enum_size
  10              		.eabi_attribute 30, 6	@ Tag_ABI_optimization_goals
  11              		.eabi_attribute 34, 1	@ Tag_CPU_unaligned_access
  12              		.eabi_attribute 18, 4	@ Tag_ABI_PCS_wchar_t
  13              		.file	"uart.c"
  14              	@ GNU C (15:4.9.3+svn231177-1) version 4.9.3 20150529 (prerelease) (arm-none-eabi)
  15              	@	compiled by GNU C version 5.2.1 20151129, GMP version 6.1.0, MPFR version 3.1.3, MPC version 1.0.
  16              	@ warning: MPFR header version 3.1.3 differs from library version 3.1.4.
  17              	@ GGC heuristics: --param ggc-min-expand=100 --param ggc-min-heapsize=131072
  18              	@ options passed:  -I . -I ./include -I ../pcf/include -imultilib armv7-m
  19              	@ -MD Build/Obj/Debug/uart.d -MF Build/.dep/uart.o.d -MP
  20              	@ -MQ Build/Obj/Debug/uart.o -D__USES_INITFINI__
  21              	@ ../epcf/peripheral/source/uart/uart.c -mcpu=cortex-m3 -mthumb
  22              	@ -auxbase-strip Build/Obj/Debug/uart.o -gdwarf-2 -O0 -Wall -Wno-cpp
  23              	@ -std=gnu99 -fomit-frame-pointer -fverbose-asm
  24              	@ options enabled:  -faggressive-loop-optimizations -fauto-inc-dec -fcommon
  25              	@ -fdelete-null-pointer-checks -fdwarf2-cfi-asm -fearly-inlining
  26              	@ -feliminate-unused-debug-types -ffunction-cse -fgcse-lm -fgnu-runtime
  27              	@ -fgnu-unique -fident -finline-atomics -fira-hoist-pressure
  28              	@ -fira-share-save-slots -fira-share-spill-slots -fivopts
  29              	@ -fkeep-static-consts -fleading-underscore -flifetime-dse -fmath-errno
  30              	@ -fmerge-debug-strings -fomit-frame-pointer -fpeephole
  31              	@ -fprefetch-loop-arrays -freg-struct-return
  32              	@ -fsched-critical-path-heuristic -fsched-dep-count-heuristic
  33              	@ -fsched-group-heuristic -fsched-interblock -fsched-last-insn-heuristic
  34              	@ -fsched-rank-heuristic -fsched-spec -fsched-spec-insn-heuristic
  35              	@ -fsched-stalled-insns-dep -fshow-column -fsigned-zeros
  36              	@ -fsplit-ivs-in-unroller -fstrict-volatile-bitfields -fsync-libcalls
  37              	@ -ftrapping-math -ftree-coalesce-vars -ftree-cselim -ftree-forwprop
  38              	@ -ftree-loop-if-convert -ftree-loop-im -ftree-loop-ivcanon
  39              	@ -ftree-loop-optimize -ftree-parallelize-loops= -ftree-phiprop
  40              	@ -ftree-reassoc -ftree-scev-cprop -funit-at-a-time -fverbose-asm
  41              	@ -fzero-initialized-in-bss -mfix-cortex-m3-ldrd -mlittle-endian -mlra
  42              	@ -mpic-data-is-text-relative -msched-prolog -mthumb -munaligned-access
  43              	@ -mvectorize-with-neon-quad
  44              	
  45              		.text
  46              	.Ltext0:
  47              		.cfi_sections	.debug_frame
  48              		.align	2
  49              		.global	epcf_uart_createNative
  50              		.thumb
  51              		.thumb_func
  52              		.type	epcf_uart_createNative, %function
  53              	epcf_uart_createNative:
  54              	.LFB40:
  55              		.file 1 "../epcf/peripheral/source/uart/uart.c"
   1:../epcf/peripheral/source/uart/uart.c **** /**
   2:../epcf/peripheral/source/uart/uart.c ****  * \file  uart.c
ARM GAS  /tmp/ccWbcxNG.s 			page 2


   3:../epcf/peripheral/source/uart/uart.c ****  * \brief This file is used to configure a UART device
   4:../epcf/peripheral/source/uart/uart.c ****  */
   5:../epcf/peripheral/source/uart/uart.c **** 
   6:../epcf/peripheral/source/uart/uart.c **** #include "pcf.h"
   7:../epcf/peripheral/source/uart/uart.c **** 
   8:../epcf/peripheral/source/uart/uart.c **** //Include fifo file Required by uart_hidden.h
   9:../epcf/peripheral/source/uart/uart.c **** #define __EPCF_UTIL_FIFO_INCLUDE PCF_CONDITIONAL_INCLUDE_FILE(EPCF_DIR_PATH/,utils/,include/,epcf_f
  10:../epcf/peripheral/source/uart/uart.c **** #include  __EPCF_UTIL_FIFO_INCLUDE
  11:../epcf/peripheral/source/uart/uart.c **** #undef __EPCF_UTIL_FIFO_INCLUDE
  12:../epcf/peripheral/source/uart/uart.c **** 
  13:../epcf/peripheral/source/uart/uart.c **** #include "./uart_hidden.h"
  14:../epcf/peripheral/source/uart/uart.c **** 
  15:../epcf/peripheral/source/uart/uart.c **** EPCFUartDevice_t* epcf_uart_createNative(EPCFUartCfg_t* pUartConfig)
  16:../epcf/peripheral/source/uart/uart.c **** {
  56              		.loc 1 16 0
  57              		.cfi_startproc
  58              		@ args = 0, pretend = 0, frame = 16
  59              		@ frame_needed = 0, uses_anonymous_args = 0
  60 0000 00B5     		push	{lr}	@
  61              	.LCFI0:
  62              		.cfi_def_cfa_offset 4
  63              		.cfi_offset 14, -4
  64 0002 85B0     		sub	sp, sp, #20	@,,
  65              	.LCFI1:
  66              		.cfi_def_cfa_offset 24
  67 0004 0190     		str	r0, [sp, #4]	@ pUartConfig, pUartConfig
  17:../epcf/peripheral/source/uart/uart.c **** 	EPCFUartDevice_t* pUartDevice;
  18:../epcf/peripheral/source/uart/uart.c **** 	int8_t status=0;
  68              		.loc 1 18 0
  69 0006 0023     		movs	r3, #0	@ tmp113,
  70 0008 8DF80F30 		strb	r3, [sp, #15]	@ tmp114, status
  19:../epcf/peripheral/source/uart/uart.c **** 	
  20:../epcf/peripheral/source/uart/uart.c **** 	if(epcf_uart_nativeGetDeviceCount())
  71              		.loc 1 20 0
  72 000c FFF7FEFF 		bl	epcf_uart_nativeGetDeviceCount	@
  73 0010 0346     		mov	r3, r0	@ D.6349,
  74 0012 002B     		cmp	r3, #0	@ D.6349,
  75 0014 1BD0     		beq	.L2	@,
  21:../epcf/peripheral/source/uart/uart.c **** 	{
  22:../epcf/peripheral/source/uart/uart.c **** 		pUartDevice = (EPCFUartDevice_t *)malloc(sizeof(EPCFUartDevice_t));
  76              		.loc 1 22 0
  77 0016 1C20     		movs	r0, #28	@,
  78 0018 FFF7FEFF 		bl	malloc	@
  79 001c 0346     		mov	r3, r0	@ tmp115,
  80 001e 0293     		str	r3, [sp, #8]	@ tmp115, pUartDevice
  23:../epcf/peripheral/source/uart/uart.c **** 		if (pUartDevice == (EPCFUartDevice_t *)NULL)
  81              		.loc 1 23 0
  82 0020 029B     		ldr	r3, [sp, #8]	@ tmp116, pUartDevice
  83 0022 002B     		cmp	r3, #0	@ tmp116,
  84 0024 01D1     		bne	.L3	@,
  24:../epcf/peripheral/source/uart/uart.c **** 		return NULL;
  85              		.loc 1 24 0
  86 0026 0023     		movs	r3, #0	@ D.6348,
  87 0028 12E0     		b	.L4	@
  88              	.L3:
  25:../epcf/peripheral/source/uart/uart.c **** 		
  26:../epcf/peripheral/source/uart/uart.c **** 		pUartDevice->controllerConfig = NULL;
ARM GAS  /tmp/ccWbcxNG.s 			page 3


  89              		.loc 1 26 0
  90 002a 029B     		ldr	r3, [sp, #8]	@ tmp117, pUartDevice
  91 002c 0022     		movs	r2, #0	@ tmp118,
  92 002e 1A60     		str	r2, [r3]	@ tmp118, pUartDevice_4->controllerConfig
  27:../epcf/peripheral/source/uart/uart.c **** 		
  28:../epcf/peripheral/source/uart/uart.c **** 		status = epcf_uart_nativeInit(pUartDevice, pUartConfig);
  93              		.loc 1 28 0
  94 0030 0298     		ldr	r0, [sp, #8]	@, pUartDevice
  95 0032 0199     		ldr	r1, [sp, #4]	@, pUartConfig
  96 0034 FFF7FEFF 		bl	epcf_uart_nativeInit	@
  97 0038 0346     		mov	r3, r0	@ tmp119,
  98 003a 8DF80F30 		strb	r3, [sp, #15]	@ tmp120, status
  29:../epcf/peripheral/source/uart/uart.c **** 		if(status != 0)
  99              		.loc 1 29 0
 100 003e 9DF90F30 		ldrsb	r3, [sp, #15]	@ tmp121, status
 101 0042 002B     		cmp	r3, #0	@ tmp121,
 102 0044 01D0     		beq	.L5	@,
  30:../epcf/peripheral/source/uart/uart.c **** 			return NULL;
 103              		.loc 1 30 0
 104 0046 0023     		movs	r3, #0	@ D.6348,
 105 0048 02E0     		b	.L4	@
 106              	.L5:
  31:../epcf/peripheral/source/uart/uart.c **** 		
  32:../epcf/peripheral/source/uart/uart.c **** 		return pUartDevice;
 107              		.loc 1 32 0
 108 004a 029B     		ldr	r3, [sp, #8]	@ D.6348, pUartDevice
 109 004c 00E0     		b	.L4	@
 110              	.L2:
  33:../epcf/peripheral/source/uart/uart.c **** 	}
  34:../epcf/peripheral/source/uart/uart.c **** 	else
  35:../epcf/peripheral/source/uart/uart.c **** 		return NULL;
 111              		.loc 1 35 0
 112 004e 0023     		movs	r3, #0	@ D.6348,
 113              	.L4:
  36:../epcf/peripheral/source/uart/uart.c **** }
 114              		.loc 1 36 0
 115 0050 1846     		mov	r0, r3	@, <retval>
 116 0052 05B0     		add	sp, sp, #20	@,,
 117              	.LCFI2:
 118              		.cfi_def_cfa_offset 4
 119              		@ sp needed	@
 120 0054 5DF804FB 		ldr	pc, [sp], #4	@
 121              		.cfi_endproc
 122              	.LFE40:
 123              		.size	epcf_uart_createNative, .-epcf_uart_createNative
 124              		.align	2
 125              		.global	epcf_uart_close
 126              		.thumb
 127              		.thumb_func
 128              		.type	epcf_uart_close, %function
 129              	epcf_uart_close:
 130              	.LFB41:
  37:../epcf/peripheral/source/uart/uart.c ****  
  38:../epcf/peripheral/source/uart/uart.c **** 
  39:../epcf/peripheral/source/uart/uart.c **** #ifdef EPCF_SUPPORT_EXTENDED_UART
  40:../epcf/peripheral/source/uart/uart.c **** EPCFUartDevice_t* epcf_uart_createExtended(EPCFUartController_t* pUartController, EPCFUartCfg_t* pU
  41:../epcf/peripheral/source/uart/uart.c **** {
ARM GAS  /tmp/ccWbcxNG.s 			page 4


  42:../epcf/peripheral/source/uart/uart.c **** 	EPCFUartDevice_t* pUartDevice;
  43:../epcf/peripheral/source/uart/uart.c **** 	int8_t status = 0;
  44:../epcf/peripheral/source/uart/uart.c **** 
  45:../epcf/peripheral/source/uart/uart.c **** 	if(epcf_uart_extGetDeviceCount(pUartController))
  46:../epcf/peripheral/source/uart/uart.c **** 	{
  47:../epcf/peripheral/source/uart/uart.c **** 		pUartDevice = (EPCFUartDevice_t*)malloc(sizeof(EPCFUartDevice_t));
  48:../epcf/peripheral/source/uart/uart.c **** 		if(pUartDevice == NULL)
  49:../epcf/peripheral/source/uart/uart.c **** 			return NULL;
  50:../epcf/peripheral/source/uart/uart.c **** 
  51:../epcf/peripheral/source/uart/uart.c **** 		pUartDevice->controllerConfig = pUartController;
  52:../epcf/peripheral/source/uart/uart.c **** 
  53:../epcf/peripheral/source/uart/uart.c **** 		status = pUartController->uartInit(pUartDevice, pUartConfig);
  54:../epcf/peripheral/source/uart/uart.c **** 		if(status != 0)
  55:../epcf/peripheral/source/uart/uart.c **** 			return NULL;
  56:../epcf/peripheral/source/uart/uart.c **** 
  57:../epcf/peripheral/source/uart/uart.c **** 		return pUartDevice;
  58:../epcf/peripheral/source/uart/uart.c **** 	}
  59:../epcf/peripheral/source/uart/uart.c **** 	else
  60:../epcf/peripheral/source/uart/uart.c **** 		return NULL;
  61:../epcf/peripheral/source/uart/uart.c **** }
  62:../epcf/peripheral/source/uart/uart.c **** #endif
  63:../epcf/peripheral/source/uart/uart.c **** 
  64:../epcf/peripheral/source/uart/uart.c **** int8_t epcf_uart_close(EPCFUartDevice_t* pUartDevice)
  65:../epcf/peripheral/source/uart/uart.c **** {
 131              		.loc 1 65 0
 132              		.cfi_startproc
 133              		@ args = 0, pretend = 0, frame = 16
 134              		@ frame_needed = 0, uses_anonymous_args = 0
 135 0058 00B5     		push	{lr}	@
 136              	.LCFI3:
 137              		.cfi_def_cfa_offset 4
 138              		.cfi_offset 14, -4
 139 005a 85B0     		sub	sp, sp, #20	@,,
 140              	.LCFI4:
 141              		.cfi_def_cfa_offset 24
 142 005c 0190     		str	r0, [sp, #4]	@ pUartDevice, pUartDevice
  66:../epcf/peripheral/source/uart/uart.c **** 	int8_t status=0;
 143              		.loc 1 66 0
 144 005e 0023     		movs	r3, #0	@ tmp115,
 145 0060 8DF80F30 		strb	r3, [sp, #15]	@ tmp116, status
  67:../epcf/peripheral/source/uart/uart.c **** 
  68:../epcf/peripheral/source/uart/uart.c **** 	if(pUartDevice->controllerConfig == NULL)
 146              		.loc 1 68 0
 147 0064 019B     		ldr	r3, [sp, #4]	@ tmp117, pUartDevice
 148 0066 1B68     		ldr	r3, [r3]	@ D.6350, pUartDevice_3(D)->controllerConfig
 149 0068 002B     		cmp	r3, #0	@ D.6350,
 150 006a 06D1     		bne	.L7	@,
  69:../epcf/peripheral/source/uart/uart.c **** 	{
  70:../epcf/peripheral/source/uart/uart.c **** 		status = epcf_uart_nativeClose(pUartDevice);
 151              		.loc 1 70 0
 152 006c 0198     		ldr	r0, [sp, #4]	@, pUartDevice
 153 006e FFF7FEFF 		bl	epcf_uart_nativeClose	@
 154 0072 0346     		mov	r3, r0	@ tmp118,
 155 0074 8DF80F30 		strb	r3, [sp, #15]	@ tmp119, status
 156 0078 07E0     		b	.L8	@
 157              	.L7:
  71:../epcf/peripheral/source/uart/uart.c **** 	}
ARM GAS  /tmp/ccWbcxNG.s 			page 5


  72:../epcf/peripheral/source/uart/uart.c **** 	else
  73:../epcf/peripheral/source/uart/uart.c **** 	{
  74:../epcf/peripheral/source/uart/uart.c **** 		status = pUartDevice->controllerConfig->uartClose(pUartDevice);
 158              		.loc 1 74 0
 159 007a 019B     		ldr	r3, [sp, #4]	@ tmp120, pUartDevice
 160 007c 1B68     		ldr	r3, [r3]	@ D.6350, pUartDevice_3(D)->controllerConfig
 161 007e 9B6A     		ldr	r3, [r3, #40]	@ D.6351, _6->uartClose
 162 0080 0198     		ldr	r0, [sp, #4]	@, pUartDevice
 163 0082 9847     		blx	r3	@ D.6351
 164 0084 0346     		mov	r3, r0	@ tmp121,
 165 0086 8DF80F30 		strb	r3, [sp, #15]	@ tmp122, status
 166              	.L8:
  75:../epcf/peripheral/source/uart/uart.c **** 	}
  76:../epcf/peripheral/source/uart/uart.c **** 	return status;
 167              		.loc 1 76 0
 168 008a 9DF80F30 		ldrb	r3, [sp, #15]	@ zero_extendqisi2	@ D.6352, status
 169 008e 5BB2     		sxtb	r3, r3	@ tmp124, D.6352
  77:../epcf/peripheral/source/uart/uart.c **** }
 170              		.loc 1 77 0
 171 0090 1846     		mov	r0, r3	@, <retval>
 172 0092 05B0     		add	sp, sp, #20	@,,
 173              	.LCFI5:
 174              		.cfi_def_cfa_offset 4
 175              		@ sp needed	@
 176 0094 5DF804FB 		ldr	pc, [sp], #4	@
 177              		.cfi_endproc
 178              	.LFE41:
 179              		.size	epcf_uart_close, .-epcf_uart_close
 180              		.align	2
 181              		.global	epcf_uart_write
 182              		.thumb
 183              		.thumb_func
 184              		.type	epcf_uart_write, %function
 185              	epcf_uart_write:
 186              	.LFB42:
  78:../epcf/peripheral/source/uart/uart.c **** 
  79:../epcf/peripheral/source/uart/uart.c **** int32_t epcf_uart_write(EPCFUartDevice_t* pUartDevice, const uint8_t* data, uint32_t size, EPCFTime
  80:../epcf/peripheral/source/uart/uart.c **** {
 187              		.loc 1 80 0
 188              		.cfi_startproc
 189              		@ args = 12, pretend = 8, frame = 24
 190              		@ frame_needed = 0, uses_anonymous_args = 0
 191 0098 82B0     		sub	sp, sp, #8	@,,
 192              	.LCFI6:
 193              		.cfi_def_cfa_offset 8
 194 009a 10B5     		push	{r4, lr}	@
 195              	.LCFI7:
 196              		.cfi_def_cfa_offset 16
 197              		.cfi_offset 4, -16
 198              		.cfi_offset 14, -12
 199 009c 88B0     		sub	sp, sp, #32	@,,
 200              	.LCFI8:
 201              		.cfi_def_cfa_offset 48
 202 009e 0590     		str	r0, [sp, #20]	@ pUartDevice, pUartDevice
 203 00a0 0491     		str	r1, [sp, #16]	@ data, data
 204 00a2 0392     		str	r2, [sp, #12]	@ size, size
 205 00a4 0B93     		str	r3, [sp, #44]	@, timeout
ARM GAS  /tmp/ccWbcxNG.s 			page 6


  81:../epcf/peripheral/source/uart/uart.c **** 	int32_t retVal=0;
 206              		.loc 1 81 0
 207 00a6 0023     		movs	r3, #0	@ tmp115,
 208 00a8 0793     		str	r3, [sp, #28]	@ tmp115, retVal
  82:../epcf/peripheral/source/uart/uart.c **** 
  83:../epcf/peripheral/source/uart/uart.c **** 	if(pUartDevice->controllerConfig == NULL)
 209              		.loc 1 83 0
 210 00aa 059B     		ldr	r3, [sp, #20]	@ tmp116, pUartDevice
 211 00ac 1B68     		ldr	r3, [r3]	@ D.6353, pUartDevice_3(D)->controllerConfig
 212 00ae 002B     		cmp	r3, #0	@ D.6353,
 213 00b0 09D1     		bne	.L11	@,
  84:../epcf/peripheral/source/uart/uart.c **** 	{
  85:../epcf/peripheral/source/uart/uart.c **** 		retVal = epcf_uart_nativeWrite(pUartDevice, data, size, timeout);
 214              		.loc 1 85 0
 215 00b2 0C9B     		ldr	r3, [sp, #48]	@ tmp117, timeout
 216 00b4 0093     		str	r3, [sp]	@ tmp117,
 217 00b6 0B9B     		ldr	r3, [sp, #44]	@, timeout
 218 00b8 0598     		ldr	r0, [sp, #20]	@, pUartDevice
 219 00ba 0499     		ldr	r1, [sp, #16]	@, data
 220 00bc 039A     		ldr	r2, [sp, #12]	@, size
 221 00be FFF7FEFF 		bl	epcf_uart_nativeWrite	@
 222 00c2 0790     		str	r0, [sp, #28]	@, retVal
 223 00c4 0AE0     		b	.L12	@
 224              	.L11:
  86:../epcf/peripheral/source/uart/uart.c **** 	}
  87:../epcf/peripheral/source/uart/uart.c **** 	else
  88:../epcf/peripheral/source/uart/uart.c **** 	{
  89:../epcf/peripheral/source/uart/uart.c **** 		retVal = pUartDevice->controllerConfig->uartWrite(pUartDevice, data, size, timeout);
 225              		.loc 1 89 0
 226 00c6 059B     		ldr	r3, [sp, #20]	@ tmp118, pUartDevice
 227 00c8 1B68     		ldr	r3, [r3]	@ D.6353, pUartDevice_3(D)->controllerConfig
 228 00ca 5C68     		ldr	r4, [r3, #4]	@ D.6354, _8->uartWrite
 229 00cc 0C9B     		ldr	r3, [sp, #48]	@ tmp119, timeout
 230 00ce 0093     		str	r3, [sp]	@ tmp119,
 231 00d0 0B9B     		ldr	r3, [sp, #44]	@, timeout
 232 00d2 0598     		ldr	r0, [sp, #20]	@, pUartDevice
 233 00d4 0499     		ldr	r1, [sp, #16]	@, data
 234 00d6 039A     		ldr	r2, [sp, #12]	@, size
 235 00d8 A047     		blx	r4	@ D.6354
 236 00da 0790     		str	r0, [sp, #28]	@, retVal
 237              	.L12:
  90:../epcf/peripheral/source/uart/uart.c **** 	}
  91:../epcf/peripheral/source/uart/uart.c **** 	return retVal;
 238              		.loc 1 91 0
 239 00dc 079B     		ldr	r3, [sp, #28]	@ D.6355, retVal
  92:../epcf/peripheral/source/uart/uart.c **** }
 240              		.loc 1 92 0
 241 00de 1846     		mov	r0, r3	@, <retval>
 242 00e0 08B0     		add	sp, sp, #32	@,,
 243              	.LCFI9:
 244              		.cfi_def_cfa_offset 16
 245              		@ sp needed	@
 246 00e2 BDE81040 		pop	{r4, lr}	@
 247              	.LCFI10:
 248              		.cfi_restore 14
 249              		.cfi_restore 4
 250              		.cfi_def_cfa_offset 8
ARM GAS  /tmp/ccWbcxNG.s 			page 7


 251 00e6 02B0     		add	sp, sp, #8	@,,
 252              	.LCFI11:
 253              		.cfi_def_cfa_offset 0
 254 00e8 7047     		bx	lr	@
 255              		.cfi_endproc
 256              	.LFE42:
 257              		.size	epcf_uart_write, .-epcf_uart_write
 258 00ea 00BF     		.align	2
 259              		.global	epcf_uart_writeString
 260              		.thumb
 261              		.thumb_func
 262              		.type	epcf_uart_writeString, %function
 263              	epcf_uart_writeString:
 264              	.LFB43:
  93:../epcf/peripheral/source/uart/uart.c **** 
  94:../epcf/peripheral/source/uart/uart.c **** int32_t epcf_uart_writeString(EPCFUartDevice_t* pUartDevice, const uint8_t* data, EPCFTime_t timeou
  95:../epcf/peripheral/source/uart/uart.c **** {
 265              		.loc 1 95 0
 266              		.cfi_startproc
 267              		@ args = 0, pretend = 0, frame = 24
 268              		@ frame_needed = 0, uses_anonymous_args = 0
 269 00ec 10B5     		push	{r4, lr}	@
 270              	.LCFI12:
 271              		.cfi_def_cfa_offset 8
 272              		.cfi_offset 4, -8
 273              		.cfi_offset 14, -4
 274 00ee 86B0     		sub	sp, sp, #24	@,,
 275              	.LCFI13:
 276              		.cfi_def_cfa_offset 32
 277 00f0 0390     		str	r0, [sp, #12]	@ pUartDevice, pUartDevice
 278 00f2 0291     		str	r1, [sp, #8]	@ data, data
 279 00f4 6946     		mov	r1, sp	@ tmp115,
 280 00f6 81E80C00 		stmia	r1, {r2, r3}	@ tmp115,,
  96:../epcf/peripheral/source/uart/uart.c **** 	int32_t retVal=0;
 281              		.loc 1 96 0
 282 00fa 0023     		movs	r3, #0	@ tmp116,
 283 00fc 0593     		str	r3, [sp, #20]	@ tmp116, retVal
  97:../epcf/peripheral/source/uart/uart.c **** 
  98:../epcf/peripheral/source/uart/uart.c **** 	if(pUartDevice->controllerConfig == NULL)
 284              		.loc 1 98 0
 285 00fe 039B     		ldr	r3, [sp, #12]	@ tmp117, pUartDevice
 286 0100 1B68     		ldr	r3, [r3]	@ D.6357, pUartDevice_3(D)->controllerConfig
 287 0102 002B     		cmp	r3, #0	@ D.6357,
 288 0104 07D1     		bne	.L15	@,
  99:../epcf/peripheral/source/uart/uart.c **** 	{
 100:../epcf/peripheral/source/uart/uart.c **** 		retVal = epcf_uart_nativeWriteString(pUartDevice, data, timeout);
 289              		.loc 1 100 0
 290 0106 0398     		ldr	r0, [sp, #12]	@, pUartDevice
 291 0108 0299     		ldr	r1, [sp, #8]	@, data
 292 010a 6B46     		mov	r3, sp	@ tmp118,
 293 010c 0CCB     		ldmia	r3, {r2, r3}	@ tmp118,,
 294 010e FFF7FEFF 		bl	epcf_uart_nativeWriteString	@
 295 0112 0590     		str	r0, [sp, #20]	@, retVal
 296 0114 08E0     		b	.L16	@
 297              	.L15:
 101:../epcf/peripheral/source/uart/uart.c **** 	}
 102:../epcf/peripheral/source/uart/uart.c **** 	else
ARM GAS  /tmp/ccWbcxNG.s 			page 8


 103:../epcf/peripheral/source/uart/uart.c **** 	{
 104:../epcf/peripheral/source/uart/uart.c **** 		retVal = pUartDevice->controllerConfig->uartWriteString(pUartDevice, data, timeout);
 298              		.loc 1 104 0
 299 0116 039B     		ldr	r3, [sp, #12]	@ tmp119, pUartDevice
 300 0118 1B68     		ldr	r3, [r3]	@ D.6357, pUartDevice_3(D)->controllerConfig
 301 011a DC68     		ldr	r4, [r3, #12]	@ D.6358, _7->uartWriteString
 302 011c 0398     		ldr	r0, [sp, #12]	@, pUartDevice
 303 011e 0299     		ldr	r1, [sp, #8]	@, data
 304 0120 6B46     		mov	r3, sp	@ tmp120,
 305 0122 0CCB     		ldmia	r3, {r2, r3}	@ tmp120,,
 306 0124 A047     		blx	r4	@ D.6358
 307 0126 0590     		str	r0, [sp, #20]	@, retVal
 308              	.L16:
 105:../epcf/peripheral/source/uart/uart.c **** 	}
 106:../epcf/peripheral/source/uart/uart.c **** 	return retVal;
 309              		.loc 1 106 0
 310 0128 059B     		ldr	r3, [sp, #20]	@ D.6359, retVal
 107:../epcf/peripheral/source/uart/uart.c **** }
 311              		.loc 1 107 0
 312 012a 1846     		mov	r0, r3	@, <retval>
 313 012c 06B0     		add	sp, sp, #24	@,,
 314              	.LCFI14:
 315              		.cfi_def_cfa_offset 8
 316              		@ sp needed	@
 317 012e 10BD     		pop	{r4, pc}	@
 318              		.cfi_endproc
 319              	.LFE43:
 320              		.size	epcf_uart_writeString, .-epcf_uart_writeString
 321              		.align	2
 322              		.global	epcf_uart_read
 323              		.thumb
 324              		.thumb_func
 325              		.type	epcf_uart_read, %function
 326              	epcf_uart_read:
 327              	.LFB44:
 108:../epcf/peripheral/source/uart/uart.c **** 
 109:../epcf/peripheral/source/uart/uart.c **** int32_t epcf_uart_read(EPCFUartDevice_t* pUartDevice, uint8_t *data, uint32_t size, EPCFTime_t time
 110:../epcf/peripheral/source/uart/uart.c **** {
 328              		.loc 1 110 0
 329              		.cfi_startproc
 330              		@ args = 12, pretend = 8, frame = 24
 331              		@ frame_needed = 0, uses_anonymous_args = 0
 332 0130 82B0     		sub	sp, sp, #8	@,,
 333              	.LCFI15:
 334              		.cfi_def_cfa_offset 8
 335 0132 10B5     		push	{r4, lr}	@
 336              	.LCFI16:
 337              		.cfi_def_cfa_offset 16
 338              		.cfi_offset 4, -16
 339              		.cfi_offset 14, -12
 340 0134 88B0     		sub	sp, sp, #32	@,,
 341              	.LCFI17:
 342              		.cfi_def_cfa_offset 48
 343 0136 0590     		str	r0, [sp, #20]	@ pUartDevice, pUartDevice
 344 0138 0491     		str	r1, [sp, #16]	@ data, data
 345 013a 0392     		str	r2, [sp, #12]	@ size, size
 346 013c 0B93     		str	r3, [sp, #44]	@, timeout
ARM GAS  /tmp/ccWbcxNG.s 			page 9


 111:../epcf/peripheral/source/uart/uart.c **** 	int32_t retVal = 0;
 347              		.loc 1 111 0
 348 013e 0023     		movs	r3, #0	@ tmp115,
 349 0140 0793     		str	r3, [sp, #28]	@ tmp115, retVal
 112:../epcf/peripheral/source/uart/uart.c **** 
 113:../epcf/peripheral/source/uart/uart.c **** 	if(pUartDevice->controllerConfig == NULL)
 350              		.loc 1 113 0
 351 0142 059B     		ldr	r3, [sp, #20]	@ tmp116, pUartDevice
 352 0144 1B68     		ldr	r3, [r3]	@ D.6360, pUartDevice_3(D)->controllerConfig
 353 0146 002B     		cmp	r3, #0	@ D.6360,
 354 0148 09D1     		bne	.L19	@,
 114:../epcf/peripheral/source/uart/uart.c **** 	{
 115:../epcf/peripheral/source/uart/uart.c **** 		retVal = epcf_uart_nativeRead(pUartDevice, data, size, timeout);
 355              		.loc 1 115 0
 356 014a 0C9B     		ldr	r3, [sp, #48]	@ tmp117, timeout
 357 014c 0093     		str	r3, [sp]	@ tmp117,
 358 014e 0B9B     		ldr	r3, [sp, #44]	@, timeout
 359 0150 0598     		ldr	r0, [sp, #20]	@, pUartDevice
 360 0152 0499     		ldr	r1, [sp, #16]	@, data
 361 0154 039A     		ldr	r2, [sp, #12]	@, size
 362 0156 FFF7FEFF 		bl	epcf_uart_nativeRead	@
 363 015a 0790     		str	r0, [sp, #28]	@, retVal
 364 015c 0AE0     		b	.L20	@
 365              	.L19:
 116:../epcf/peripheral/source/uart/uart.c **** 	}
 117:../epcf/peripheral/source/uart/uart.c **** 	else
 118:../epcf/peripheral/source/uart/uart.c **** 	{
 119:../epcf/peripheral/source/uart/uart.c **** 		retVal = pUartDevice->controllerConfig->uartRead(pUartDevice, data, size, timeout);
 366              		.loc 1 119 0
 367 015e 059B     		ldr	r3, [sp, #20]	@ tmp118, pUartDevice
 368 0160 1B68     		ldr	r3, [r3]	@ D.6360, pUartDevice_3(D)->controllerConfig
 369 0162 1C69     		ldr	r4, [r3, #16]	@ D.6361, _8->uartRead
 370 0164 0C9B     		ldr	r3, [sp, #48]	@ tmp119, timeout
 371 0166 0093     		str	r3, [sp]	@ tmp119,
 372 0168 0B9B     		ldr	r3, [sp, #44]	@, timeout
 373 016a 0598     		ldr	r0, [sp, #20]	@, pUartDevice
 374 016c 0499     		ldr	r1, [sp, #16]	@, data
 375 016e 039A     		ldr	r2, [sp, #12]	@, size
 376 0170 A047     		blx	r4	@ D.6361
 377 0172 0790     		str	r0, [sp, #28]	@, retVal
 378              	.L20:
 120:../epcf/peripheral/source/uart/uart.c **** 	}
 121:../epcf/peripheral/source/uart/uart.c **** 	return retVal;
 379              		.loc 1 121 0
 380 0174 079B     		ldr	r3, [sp, #28]	@ D.6362, retVal
 122:../epcf/peripheral/source/uart/uart.c **** }
 381              		.loc 1 122 0
 382 0176 1846     		mov	r0, r3	@, <retval>
 383 0178 08B0     		add	sp, sp, #32	@,,
 384              	.LCFI18:
 385              		.cfi_def_cfa_offset 16
 386              		@ sp needed	@
 387 017a BDE81040 		pop	{r4, lr}	@
 388              	.LCFI19:
 389              		.cfi_restore 14
 390              		.cfi_restore 4
 391              		.cfi_def_cfa_offset 8
ARM GAS  /tmp/ccWbcxNG.s 			page 10


 392 017e 02B0     		add	sp, sp, #8	@,,
 393              	.LCFI20:
 394              		.cfi_def_cfa_offset 0
 395 0180 7047     		bx	lr	@
 396              		.cfi_endproc
 397              	.LFE44:
 398              		.size	epcf_uart_read, .-epcf_uart_read
 399 0182 00BF     		.align	2
 400              		.global	epcf_uart_getDeviceCount
 401              		.thumb
 402              		.thumb_func
 403              		.type	epcf_uart_getDeviceCount, %function
 404              	epcf_uart_getDeviceCount:
 405              	.LFB45:
 123:../epcf/peripheral/source/uart/uart.c **** 
 124:../epcf/peripheral/source/uart/uart.c **** uint8_t epcf_uart_getDeviceCount()
 125:../epcf/peripheral/source/uart/uart.c **** {
 406              		.loc 1 125 0
 407              		.cfi_startproc
 408              		@ args = 0, pretend = 0, frame = 8
 409              		@ frame_needed = 0, uses_anonymous_args = 0
 410 0184 00B5     		push	{lr}	@
 411              	.LCFI21:
 412              		.cfi_def_cfa_offset 4
 413              		.cfi_offset 14, -4
 414 0186 83B0     		sub	sp, sp, #12	@,,
 415              	.LCFI22:
 416              		.cfi_def_cfa_offset 16
 126:../epcf/peripheral/source/uart/uart.c **** 	uint8_t retVal=0;
 417              		.loc 1 126 0
 418 0188 0023     		movs	r3, #0	@ tmp113,
 419 018a 8DF80730 		strb	r3, [sp, #7]	@ tmp114, retVal
 127:../epcf/peripheral/source/uart/uart.c **** 
 128:../epcf/peripheral/source/uart/uart.c **** 	retVal = epcf_uart_nativeGetDeviceCount();
 420              		.loc 1 128 0
 421 018e FFF7FEFF 		bl	epcf_uart_nativeGetDeviceCount	@
 422 0192 0346     		mov	r3, r0	@ D.6363,
 423 0194 8DF80730 		strb	r3, [sp, #7]	@ tmp115, retVal
 129:../epcf/peripheral/source/uart/uart.c **** 	return retVal;
 424              		.loc 1 129 0
 425 0198 9DF80730 		ldrb	r3, [sp, #7]	@ zero_extendqisi2	@ D.6364, retVal
 130:../epcf/peripheral/source/uart/uart.c **** }
 426              		.loc 1 130 0
 427 019c 1846     		mov	r0, r3	@, <retval>
 428 019e 03B0     		add	sp, sp, #12	@,,
 429              	.LCFI23:
 430              		.cfi_def_cfa_offset 4
 431              		@ sp needed	@
 432 01a0 5DF804FB 		ldr	pc, [sp], #4	@
 433              		.cfi_endproc
 434              	.LFE45:
 435              		.size	epcf_uart_getDeviceCount, .-epcf_uart_getDeviceCount
 436              		.align	2
 437              		.global	epcf_uart_getRxBufferCount
 438              		.thumb
 439              		.thumb_func
 440              		.type	epcf_uart_getRxBufferCount, %function
ARM GAS  /tmp/ccWbcxNG.s 			page 11


 441              	epcf_uart_getRxBufferCount:
 442              	.LFB46:
 131:../epcf/peripheral/source/uart/uart.c **** 
 132:../epcf/peripheral/source/uart/uart.c **** int32_t epcf_uart_getRxBufferCount(EPCFUartDevice_t* pUartDevice)
 133:../epcf/peripheral/source/uart/uart.c **** {
 443              		.loc 1 133 0
 444              		.cfi_startproc
 445              		@ args = 0, pretend = 0, frame = 16
 446              		@ frame_needed = 0, uses_anonymous_args = 0
 447 01a4 00B5     		push	{lr}	@
 448              	.LCFI24:
 449              		.cfi_def_cfa_offset 4
 450              		.cfi_offset 14, -4
 451 01a6 85B0     		sub	sp, sp, #20	@,,
 452              	.LCFI25:
 453              		.cfi_def_cfa_offset 24
 454 01a8 0190     		str	r0, [sp, #4]	@ pUartDevice, pUartDevice
 134:../epcf/peripheral/source/uart/uart.c **** 	int32_t retVal=0;
 455              		.loc 1 134 0
 456 01aa 0023     		movs	r3, #0	@ tmp115,
 457 01ac 0393     		str	r3, [sp, #12]	@ tmp115, retVal
 135:../epcf/peripheral/source/uart/uart.c **** 
 136:../epcf/peripheral/source/uart/uart.c **** 	if(pUartDevice->controllerConfig == NULL)
 458              		.loc 1 136 0
 459 01ae 019B     		ldr	r3, [sp, #4]	@ tmp116, pUartDevice
 460 01b0 1B68     		ldr	r3, [r3]	@ D.6365, pUartDevice_3(D)->controllerConfig
 461 01b2 002B     		cmp	r3, #0	@ D.6365,
 462 01b4 04D1     		bne	.L25	@,
 137:../epcf/peripheral/source/uart/uart.c **** 	{
 138:../epcf/peripheral/source/uart/uart.c **** 		retVal = epcf_uart_nativeGetRxBufferCount(pUartDevice);
 463              		.loc 1 138 0
 464 01b6 0198     		ldr	r0, [sp, #4]	@, pUartDevice
 465 01b8 FFF7FEFF 		bl	epcf_uart_nativeGetRxBufferCount	@
 466 01bc 0390     		str	r0, [sp, #12]	@, retVal
 467 01be 05E0     		b	.L26	@
 468              	.L25:
 139:../epcf/peripheral/source/uart/uart.c **** 	}
 140:../epcf/peripheral/source/uart/uart.c **** 	else
 141:../epcf/peripheral/source/uart/uart.c **** 	{
 142:../epcf/peripheral/source/uart/uart.c **** 		retVal = pUartDevice->controllerConfig->uartRxBufferCount(pUartDevice);
 469              		.loc 1 142 0
 470 01c0 019B     		ldr	r3, [sp, #4]	@ tmp117, pUartDevice
 471 01c2 1B68     		ldr	r3, [r3]	@ D.6365, pUartDevice_3(D)->controllerConfig
 472 01c4 DB69     		ldr	r3, [r3, #28]	@ D.6366, _6->uartRxBufferCount
 473 01c6 0198     		ldr	r0, [sp, #4]	@, pUartDevice
 474 01c8 9847     		blx	r3	@ D.6366
 475 01ca 0390     		str	r0, [sp, #12]	@, retVal
 476              	.L26:
 143:../epcf/peripheral/source/uart/uart.c **** 	}
 144:../epcf/peripheral/source/uart/uart.c **** 	return retVal;
 477              		.loc 1 144 0
 478 01cc 039B     		ldr	r3, [sp, #12]	@ D.6367, retVal
 145:../epcf/peripheral/source/uart/uart.c **** }
 479              		.loc 1 145 0
 480 01ce 1846     		mov	r0, r3	@, <retval>
 481 01d0 05B0     		add	sp, sp, #20	@,,
 482              	.LCFI26:
ARM GAS  /tmp/ccWbcxNG.s 			page 12


 483              		.cfi_def_cfa_offset 4
 484              		@ sp needed	@
 485 01d2 5DF804FB 		ldr	pc, [sp], #4	@
 486              		.cfi_endproc
 487              	.LFE46:
 488              		.size	epcf_uart_getRxBufferCount, .-epcf_uart_getRxBufferCount
 489 01d6 00BF     		.align	2
 490              		.global	epcf_uart_rxBufferFlush
 491              		.thumb
 492              		.thumb_func
 493              		.type	epcf_uart_rxBufferFlush, %function
 494              	epcf_uart_rxBufferFlush:
 495              	.LFB47:
 146:../epcf/peripheral/source/uart/uart.c **** 
 147:../epcf/peripheral/source/uart/uart.c **** int8_t epcf_uart_rxBufferFlush(EPCFUartDevice_t* pUartDevice)
 148:../epcf/peripheral/source/uart/uart.c **** {
 496              		.loc 1 148 0
 497              		.cfi_startproc
 498              		@ args = 0, pretend = 0, frame = 16
 499              		@ frame_needed = 0, uses_anonymous_args = 0
 500 01d8 00B5     		push	{lr}	@
 501              	.LCFI27:
 502              		.cfi_def_cfa_offset 4
 503              		.cfi_offset 14, -4
 504 01da 85B0     		sub	sp, sp, #20	@,,
 505              	.LCFI28:
 506              		.cfi_def_cfa_offset 24
 507 01dc 0190     		str	r0, [sp, #4]	@ pUartDevice, pUartDevice
 149:../epcf/peripheral/source/uart/uart.c **** 	int8_t retVal=0;
 508              		.loc 1 149 0
 509 01de 0023     		movs	r3, #0	@ tmp115,
 510 01e0 8DF80F30 		strb	r3, [sp, #15]	@ tmp116, retVal
 150:../epcf/peripheral/source/uart/uart.c **** 
 151:../epcf/peripheral/source/uart/uart.c **** 	if(pUartDevice->controllerConfig == NULL)
 511              		.loc 1 151 0
 512 01e4 019B     		ldr	r3, [sp, #4]	@ tmp117, pUartDevice
 513 01e6 1B68     		ldr	r3, [r3]	@ D.6368, pUartDevice_3(D)->controllerConfig
 514 01e8 002B     		cmp	r3, #0	@ D.6368,
 515 01ea 06D1     		bne	.L29	@,
 152:../epcf/peripheral/source/uart/uart.c **** 	{
 153:../epcf/peripheral/source/uart/uart.c **** 		retVal = epcf_uart_nativeRxBufferFlush(pUartDevice);
 516              		.loc 1 153 0
 517 01ec 0198     		ldr	r0, [sp, #4]	@, pUartDevice
 518 01ee FFF7FEFF 		bl	epcf_uart_nativeRxBufferFlush	@
 519 01f2 0346     		mov	r3, r0	@ tmp118,
 520 01f4 8DF80F30 		strb	r3, [sp, #15]	@ tmp119, retVal
 521 01f8 07E0     		b	.L30	@
 522              	.L29:
 154:../epcf/peripheral/source/uart/uart.c **** 	}
 155:../epcf/peripheral/source/uart/uart.c **** 	else
 156:../epcf/peripheral/source/uart/uart.c **** 	{
 157:../epcf/peripheral/source/uart/uart.c **** 		retVal = pUartDevice->controllerConfig->uartRxBufferFlush(pUartDevice);
 523              		.loc 1 157 0
 524 01fa 019B     		ldr	r3, [sp, #4]	@ tmp120, pUartDevice
 525 01fc 1B68     		ldr	r3, [r3]	@ D.6368, pUartDevice_3(D)->controllerConfig
 526 01fe 9B69     		ldr	r3, [r3, #24]	@ D.6369, _6->uartRxBufferFlush
 527 0200 0198     		ldr	r0, [sp, #4]	@, pUartDevice
ARM GAS  /tmp/ccWbcxNG.s 			page 13


 528 0202 9847     		blx	r3	@ D.6369
 529 0204 0346     		mov	r3, r0	@ tmp121,
 530 0206 8DF80F30 		strb	r3, [sp, #15]	@ tmp122, retVal
 531              	.L30:
 158:../epcf/peripheral/source/uart/uart.c **** 	}
 159:../epcf/peripheral/source/uart/uart.c **** 	return retVal;
 532              		.loc 1 159 0
 533 020a 9DF80F30 		ldrb	r3, [sp, #15]	@ zero_extendqisi2	@ D.6370, retVal
 534 020e 5BB2     		sxtb	r3, r3	@ tmp124, D.6370
 160:../epcf/peripheral/source/uart/uart.c **** }
 535              		.loc 1 160 0
 536 0210 1846     		mov	r0, r3	@, <retval>
 537 0212 05B0     		add	sp, sp, #20	@,,
 538              	.LCFI29:
 539              		.cfi_def_cfa_offset 4
 540              		@ sp needed	@
 541 0214 5DF804FB 		ldr	pc, [sp], #4	@
 542              		.cfi_endproc
 543              	.LFE47:
 544              		.size	epcf_uart_rxBufferFlush, .-epcf_uart_rxBufferFlush
 545              		.align	2
 546              		.global	epcf_uart_getTxBufferCount
 547              		.thumb
 548              		.thumb_func
 549              		.type	epcf_uart_getTxBufferCount, %function
 550              	epcf_uart_getTxBufferCount:
 551              	.LFB48:
 161:../epcf/peripheral/source/uart/uart.c **** 
 162:../epcf/peripheral/source/uart/uart.c **** int32_t epcf_uart_getTxBufferCount(EPCFUartDevice_t* pUartDevice)
 163:../epcf/peripheral/source/uart/uart.c **** {
 552              		.loc 1 163 0
 553              		.cfi_startproc
 554              		@ args = 0, pretend = 0, frame = 16
 555              		@ frame_needed = 0, uses_anonymous_args = 0
 556 0218 00B5     		push	{lr}	@
 557              	.LCFI30:
 558              		.cfi_def_cfa_offset 4
 559              		.cfi_offset 14, -4
 560 021a 85B0     		sub	sp, sp, #20	@,,
 561              	.LCFI31:
 562              		.cfi_def_cfa_offset 24
 563 021c 0190     		str	r0, [sp, #4]	@ pUartDevice, pUartDevice
 164:../epcf/peripheral/source/uart/uart.c **** 	int32_t retVal=0;
 564              		.loc 1 164 0
 565 021e 0023     		movs	r3, #0	@ tmp115,
 566 0220 0393     		str	r3, [sp, #12]	@ tmp115, retVal
 165:../epcf/peripheral/source/uart/uart.c **** 
 166:../epcf/peripheral/source/uart/uart.c **** 	if(pUartDevice->controllerConfig == NULL)
 567              		.loc 1 166 0
 568 0222 019B     		ldr	r3, [sp, #4]	@ tmp116, pUartDevice
 569 0224 1B68     		ldr	r3, [r3]	@ D.6371, pUartDevice_3(D)->controllerConfig
 570 0226 002B     		cmp	r3, #0	@ D.6371,
 571 0228 04D1     		bne	.L33	@,
 167:../epcf/peripheral/source/uart/uart.c **** 	{
 168:../epcf/peripheral/source/uart/uart.c **** 		retVal = epcf_uart_nativeGetTxBufferCount(pUartDevice);
 572              		.loc 1 168 0
 573 022a 0198     		ldr	r0, [sp, #4]	@, pUartDevice
ARM GAS  /tmp/ccWbcxNG.s 			page 14


 574 022c FFF7FEFF 		bl	epcf_uart_nativeGetTxBufferCount	@
 575 0230 0390     		str	r0, [sp, #12]	@, retVal
 576 0232 05E0     		b	.L34	@
 577              	.L33:
 169:../epcf/peripheral/source/uart/uart.c **** 	}
 170:../epcf/peripheral/source/uart/uart.c **** 	else
 171:../epcf/peripheral/source/uart/uart.c **** 	{
 172:../epcf/peripheral/source/uart/uart.c **** 		retVal = pUartDevice->controllerConfig->uartTxBufferCount(pUartDevice);
 578              		.loc 1 172 0
 579 0234 019B     		ldr	r3, [sp, #4]	@ tmp117, pUartDevice
 580 0236 1B68     		ldr	r3, [r3]	@ D.6371, pUartDevice_3(D)->controllerConfig
 581 0238 5B6A     		ldr	r3, [r3, #36]	@ D.6372, _6->uartTxBufferCount
 582 023a 0198     		ldr	r0, [sp, #4]	@, pUartDevice
 583 023c 9847     		blx	r3	@ D.6372
 584 023e 0390     		str	r0, [sp, #12]	@, retVal
 585              	.L34:
 173:../epcf/peripheral/source/uart/uart.c **** 	}
 174:../epcf/peripheral/source/uart/uart.c **** 	return retVal;
 586              		.loc 1 174 0
 587 0240 039B     		ldr	r3, [sp, #12]	@ D.6373, retVal
 175:../epcf/peripheral/source/uart/uart.c **** }
 588              		.loc 1 175 0
 589 0242 1846     		mov	r0, r3	@, <retval>
 590 0244 05B0     		add	sp, sp, #20	@,,
 591              	.LCFI32:
 592              		.cfi_def_cfa_offset 4
 593              		@ sp needed	@
 594 0246 5DF804FB 		ldr	pc, [sp], #4	@
 595              		.cfi_endproc
 596              	.LFE48:
 597              		.size	epcf_uart_getTxBufferCount, .-epcf_uart_getTxBufferCount
 598 024a 00BF     		.align	2
 599              		.global	epcf_uart_txBufferFlush
 600              		.thumb
 601              		.thumb_func
 602              		.type	epcf_uart_txBufferFlush, %function
 603              	epcf_uart_txBufferFlush:
 604              	.LFB49:
 176:../epcf/peripheral/source/uart/uart.c **** 
 177:../epcf/peripheral/source/uart/uart.c **** int8_t epcf_uart_txBufferFlush(EPCFUartDevice_t* pUartDevice)
 178:../epcf/peripheral/source/uart/uart.c **** {
 605              		.loc 1 178 0
 606              		.cfi_startproc
 607              		@ args = 0, pretend = 0, frame = 16
 608              		@ frame_needed = 0, uses_anonymous_args = 0
 609 024c 00B5     		push	{lr}	@
 610              	.LCFI33:
 611              		.cfi_def_cfa_offset 4
 612              		.cfi_offset 14, -4
 613 024e 85B0     		sub	sp, sp, #20	@,,
 614              	.LCFI34:
 615              		.cfi_def_cfa_offset 24
 616 0250 0190     		str	r0, [sp, #4]	@ pUartDevice, pUartDevice
 179:../epcf/peripheral/source/uart/uart.c **** 	int8_t retVal=0;
 617              		.loc 1 179 0
 618 0252 0023     		movs	r3, #0	@ tmp115,
 619 0254 8DF80F30 		strb	r3, [sp, #15]	@ tmp116, retVal
ARM GAS  /tmp/ccWbcxNG.s 			page 15


 180:../epcf/peripheral/source/uart/uart.c **** 
 181:../epcf/peripheral/source/uart/uart.c **** 	if(pUartDevice->controllerConfig == NULL)
 620              		.loc 1 181 0
 621 0258 019B     		ldr	r3, [sp, #4]	@ tmp117, pUartDevice
 622 025a 1B68     		ldr	r3, [r3]	@ D.6374, pUartDevice_3(D)->controllerConfig
 623 025c 002B     		cmp	r3, #0	@ D.6374,
 624 025e 06D1     		bne	.L37	@,
 182:../epcf/peripheral/source/uart/uart.c **** 	{
 183:../epcf/peripheral/source/uart/uart.c **** 		retVal = epcf_uart_nativeTxBufferFlush(pUartDevice);
 625              		.loc 1 183 0
 626 0260 0198     		ldr	r0, [sp, #4]	@, pUartDevice
 627 0262 FFF7FEFF 		bl	epcf_uart_nativeTxBufferFlush	@
 628 0266 0346     		mov	r3, r0	@ tmp118,
 629 0268 8DF80F30 		strb	r3, [sp, #15]	@ tmp119, retVal
 630 026c 07E0     		b	.L38	@
 631              	.L37:
 184:../epcf/peripheral/source/uart/uart.c **** 	}
 185:../epcf/peripheral/source/uart/uart.c **** 	else
 186:../epcf/peripheral/source/uart/uart.c **** 	{
 187:../epcf/peripheral/source/uart/uart.c **** 		retVal = pUartDevice->controllerConfig->uartTxBufferFlush(pUartDevice);
 632              		.loc 1 187 0
 633 026e 019B     		ldr	r3, [sp, #4]	@ tmp120, pUartDevice
 634 0270 1B68     		ldr	r3, [r3]	@ D.6374, pUartDevice_3(D)->controllerConfig
 635 0272 1B6A     		ldr	r3, [r3, #32]	@ D.6375, _6->uartTxBufferFlush
 636 0274 0198     		ldr	r0, [sp, #4]	@, pUartDevice
 637 0276 9847     		blx	r3	@ D.6375
 638 0278 0346     		mov	r3, r0	@ tmp121,
 639 027a 8DF80F30 		strb	r3, [sp, #15]	@ tmp122, retVal
 640              	.L38:
 188:../epcf/peripheral/source/uart/uart.c **** 	}
 189:../epcf/peripheral/source/uart/uart.c **** 	return retVal;
 641              		.loc 1 189 0
 642 027e 9DF80F30 		ldrb	r3, [sp, #15]	@ zero_extendqisi2	@ D.6376, retVal
 643 0282 5BB2     		sxtb	r3, r3	@ tmp124, D.6376
 190:../epcf/peripheral/source/uart/uart.c **** }
 644              		.loc 1 190 0
 645 0284 1846     		mov	r0, r3	@, <retval>
 646 0286 05B0     		add	sp, sp, #20	@,,
 647              	.LCFI35:
 648              		.cfi_def_cfa_offset 4
 649              		@ sp needed	@
 650 0288 5DF804FB 		ldr	pc, [sp], #4	@
 651              		.cfi_endproc
 652              	.LFE49:
 653              		.size	epcf_uart_txBufferFlush, .-epcf_uart_txBufferFlush
 654              		.align	2
 655              		.global	epcf_uart_extGetDeviceCount
 656              		.thumb
 657              		.thumb_func
 658              		.type	epcf_uart_extGetDeviceCount, %function
 659              	epcf_uart_extGetDeviceCount:
 660              	.LFB50:
 191:../epcf/peripheral/source/uart/uart.c **** 
 192:../epcf/peripheral/source/uart/uart.c **** uint32_t epcf_uart_extGetDeviceCount(EPCFUartController_t* pUartController)
 193:../epcf/peripheral/source/uart/uart.c **** {
 661              		.loc 1 193 0
 662              		.cfi_startproc
ARM GAS  /tmp/ccWbcxNG.s 			page 16


 663              		@ args = 0, pretend = 0, frame = 16
 664              		@ frame_needed = 0, uses_anonymous_args = 0
 665 028c 00B5     		push	{lr}	@
 666              	.LCFI36:
 667              		.cfi_def_cfa_offset 4
 668              		.cfi_offset 14, -4
 669 028e 85B0     		sub	sp, sp, #20	@,,
 670              	.LCFI37:
 671              		.cfi_def_cfa_offset 24
 672 0290 0190     		str	r0, [sp, #4]	@ pUartController, pUartController
 194:../epcf/peripheral/source/uart/uart.c **** 	uint32_t retVal=0;
 673              		.loc 1 194 0
 674 0292 0023     		movs	r3, #0	@ tmp113,
 675 0294 0393     		str	r3, [sp, #12]	@ tmp113, retVal
 195:../epcf/peripheral/source/uart/uart.c **** 
 196:../epcf/peripheral/source/uart/uart.c **** 	if(pUartController == NULL)
 676              		.loc 1 196 0
 677 0296 019B     		ldr	r3, [sp, #4]	@ tmp114, pUartController
 678 0298 002B     		cmp	r3, #0	@ tmp114,
 679 029a 02D1     		bne	.L41	@,
 197:../epcf/peripheral/source/uart/uart.c **** 		return EPCF_STATUS_ERROR;
 680              		.loc 1 197 0
 681 029c 4FF0FF33 		mov	r3, #-1	@ D.6377,
 682 02a0 05E0     		b	.L42	@
 683              	.L41:
 198:../epcf/peripheral/source/uart/uart.c **** 	else
 199:../epcf/peripheral/source/uart/uart.c **** 	{
 200:../epcf/peripheral/source/uart/uart.c **** 		retVal = pUartController->uartGetDeviceCount(pUartController);
 684              		.loc 1 200 0
 685 02a2 019B     		ldr	r3, [sp, #4]	@ tmp115, pUartController
 686 02a4 5B69     		ldr	r3, [r3, #20]	@ D.6378, pUartController_3(D)->uartGetDeviceCount
 687 02a6 0198     		ldr	r0, [sp, #4]	@, pUartController
 688 02a8 9847     		blx	r3	@ D.6378
 689 02aa 0390     		str	r0, [sp, #12]	@, retVal
 201:../epcf/peripheral/source/uart/uart.c **** 		return retVal;
 690              		.loc 1 201 0
 691 02ac 039B     		ldr	r3, [sp, #12]	@ D.6377, retVal
 692              	.L42:
 202:../epcf/peripheral/source/uart/uart.c **** 	}
 203:../epcf/peripheral/source/uart/uart.c **** }
 693              		.loc 1 203 0
 694 02ae 1846     		mov	r0, r3	@, <retval>
 695 02b0 05B0     		add	sp, sp, #20	@,,
 696              	.LCFI38:
 697              		.cfi_def_cfa_offset 4
 698              		@ sp needed	@
 699 02b2 5DF804FB 		ldr	pc, [sp], #4	@
 700              		.cfi_endproc
 701              	.LFE50:
 702              		.size	epcf_uart_extGetDeviceCount, .-epcf_uart_extGetDeviceCount
 703              	.Letext0:
 704              		.file 2 "/usr/include/newlib/machine/_default_types.h"
 705              		.file 3 "/usr/include/newlib/sys/_stdint.h"
 706              		.file 4 "../pcf/include/../../epcf/./common/types.h"
 707              		.file 5 "../epcf/peripheral/source/uart/./uart_hidden.h"
 708              		.file 6 "./include/../../epcf/peripheral/include/./uart/uart.h"
 709              		.file 7 "./include/../../epcf/utils/include/epcf_fifo.h"
ARM GAS  /tmp/ccWbcxNG.s 			page 17


 710              		.file 8 "../pcf/include/private/arch/arm/cm3/nxp/lpc1768/./../../../../arm/cm3/nxp/lpc1768/lpc1768